ARM GAS  C:\Users\DJESSOU\AppData\Local\Temp\cc3eovRL.s 			page 1


   1              		.arch armv8.1-m.main
   2              		.fpu fpv5-d16
   3              		.arch_extension dsp
   4              		.arch_extension fp
   5              		.arch_extension fp.dp
   6              		.arch_extension mve
   7              		.arch_extension mve.fp
   8              		.eabi_attribute 5, "cortex-m55"
   9              		.eabi_attribute 28, 1
  10              		.eabi_attribute 20, 1
  11              		.eabi_attribute 21, 1
  12              		.eabi_attribute 23, 3
  13              		.eabi_attribute 24, 1
  14              		.eabi_attribute 25, 1
  15              		.eabi_attribute 26, 1
  16              		.eabi_attribute 30, 4
  17              		.eabi_attribute 34, 1
  18              		.eabi_attribute 38, 1
  19              		.eabi_attribute 18, 4
  20              		.file	"vd1943.c"
  21              		.text
  22              	.Ltext0:
  23              		.cfi_sections	.debug_frame
  24              		.file 1 "Lib/Camera_Middleware/sensors/vd1943/vd1943.c"
  25              		.section	.text.VD1943_log_impl,"ax",%progbits
  26              		.align	1
  27              		.syntax unified
  28              		.thumb
  29              		.thumb_func
  31              	VD1943_log_impl:
  32              	.LVL0:
  33              	.LFB0:
   1:Lib/Camera_Middleware/sensors/vd1943/vd1943.c **** /**
   2:Lib/Camera_Middleware/sensors/vd1943/vd1943.c ****   ******************************************************************************
   3:Lib/Camera_Middleware/sensors/vd1943/vd1943.c ****   * @file    vd1943.c
   4:Lib/Camera_Middleware/sensors/vd1943/vd1943.c ****   * @author  MDG Application Team
   5:Lib/Camera_Middleware/sensors/vd1943/vd1943.c ****   ******************************************************************************
   6:Lib/Camera_Middleware/sensors/vd1943/vd1943.c ****   * @attention
   7:Lib/Camera_Middleware/sensors/vd1943/vd1943.c ****   *
   8:Lib/Camera_Middleware/sensors/vd1943/vd1943.c ****   * Copyright (c) 2024 STMicroelectronics.
   9:Lib/Camera_Middleware/sensors/vd1943/vd1943.c ****   * All rights reserved.
  10:Lib/Camera_Middleware/sensors/vd1943/vd1943.c ****   *
  11:Lib/Camera_Middleware/sensors/vd1943/vd1943.c ****   * This software is licensed under terms that can be found in the LICENSE file
  12:Lib/Camera_Middleware/sensors/vd1943/vd1943.c ****   * in the root directory of this software component.
  13:Lib/Camera_Middleware/sensors/vd1943/vd1943.c ****   * If no LICENSE file comes with this software, it is provided AS-IS.
  14:Lib/Camera_Middleware/sensors/vd1943/vd1943.c ****   *
  15:Lib/Camera_Middleware/sensors/vd1943/vd1943.c ****   ******************************************************************************
  16:Lib/Camera_Middleware/sensors/vd1943/vd1943.c ****   */
  17:Lib/Camera_Middleware/sensors/vd1943/vd1943.c **** 
  18:Lib/Camera_Middleware/sensors/vd1943/vd1943.c **** #include "vd1943.h"
  19:Lib/Camera_Middleware/sensors/vd1943/vd1943.c **** 
  20:Lib/Camera_Middleware/sensors/vd1943/vd1943.c **** #include <assert.h>
  21:Lib/Camera_Middleware/sensors/vd1943/vd1943.c **** #include <stdint.h>
  22:Lib/Camera_Middleware/sensors/vd1943/vd1943.c **** 
  23:Lib/Camera_Middleware/sensors/vd1943/vd1943.c **** #include "vd1943_patch_cut_13.c"
  24:Lib/Camera_Middleware/sensors/vd1943/vd1943.c **** #include "vd5943_patch_cut_13.c"
  25:Lib/Camera_Middleware/sensors/vd1943/vd1943.c **** #include "vd1943_vt_patch.c"
ARM GAS  C:\Users\DJESSOU\AppData\Local\Temp\cc3eovRL.s 			page 2


  26:Lib/Camera_Middleware/sensors/vd1943/vd1943.c **** 
  27:Lib/Camera_Middleware/sensors/vd1943/vd1943.c **** /* STATUS */
  28:Lib/Camera_Middleware/sensors/vd1943/vd1943.c **** #define VD1943_REG_MODEL_ID                                   0x0000
  29:Lib/Camera_Middleware/sensors/vd1943/vd1943.c ****   #define VD1943_MODEL_ID_1_3                                 0x53393430
  30:Lib/Camera_Middleware/sensors/vd1943/vd1943.c ****   #define VD1943_MODEL_ID_1_4                                 0x53393431
  31:Lib/Camera_Middleware/sensors/vd1943/vd1943.c **** #define VD1943_REG_ROM_REVISION                               0x000c
  32:Lib/Camera_Middleware/sensors/vd1943/vd1943.c ****   #define VD1943_ROM_REVISION_13                              0x0400
  33:Lib/Camera_Middleware/sensors/vd1943/vd1943.c ****   #define VD1943_ROM_REVISION_14                              0x0540
  34:Lib/Camera_Middleware/sensors/vd1943/vd1943.c **** #define VD1943_REG_CFA_SELECTION                              0x000e
  35:Lib/Camera_Middleware/sensors/vd1943/vd1943.c ****   #define VD1943_OPTICAL_RGBIR                                0x00
  36:Lib/Camera_Middleware/sensors/vd1943/vd1943.c ****   #define VD1943_OPTICAL_MONO                                 0x01
  37:Lib/Camera_Middleware/sensors/vd1943/vd1943.c **** #define VD1943_REG_SYSTEM_FSM_STATE                           0x0044
  38:Lib/Camera_Middleware/sensors/vd1943/vd1943.c ****   #define VD1943_HW_STBY                                      0
  39:Lib/Camera_Middleware/sensors/vd1943/vd1943.c ****   #define VD1943_SYSTEM_UP                                    1
  40:Lib/Camera_Middleware/sensors/vd1943/vd1943.c ****   #define VD1943_BOOT                                         2
  41:Lib/Camera_Middleware/sensors/vd1943/vd1943.c ****   #define VD1943_SW_STBY                                      3
  42:Lib/Camera_Middleware/sensors/vd1943/vd1943.c ****   #define VD1943_STREAMING                                    4
  43:Lib/Camera_Middleware/sensors/vd1943/vd1943.c ****   #define VD1943_HALT                                         6
  44:Lib/Camera_Middleware/sensors/vd1943/vd1943.c **** #define VD1943_REG_SYSTEM_ERROR                               0x0048
  45:Lib/Camera_Middleware/sensors/vd1943/vd1943.c **** #define VD1943_FWPATCH_REVISION                               0x004a
  46:Lib/Camera_Middleware/sensors/vd1943/vd1943.c **** #define VD1943_REG_SYSTEM_PLL_CLK                             0x0228
  47:Lib/Camera_Middleware/sensors/vd1943/vd1943.c **** #define VD1943_REG_PIXEL_CLK                                  0x022c
  48:Lib/Camera_Middleware/sensors/vd1943/vd1943.c **** /* CMD */
  49:Lib/Camera_Middleware/sensors/vd1943/vd1943.c ****   #define VD1943_CMD_ACK                                      0
  50:Lib/Camera_Middleware/sensors/vd1943/vd1943.c **** #define VD1943_REG_SYSTEM_UP                                  0x0514
  51:Lib/Camera_Middleware/sensors/vd1943/vd1943.c ****   #define VD1943_CMD_START_SENSOR                             1
  52:Lib/Camera_Middleware/sensors/vd1943/vd1943.c **** #define VD1943_REG_BOOT                                       0x0515
  53:Lib/Camera_Middleware/sensors/vd1943/vd1943.c ****   #define VD1943_CMD_LOAD_CERTIFICATE                         1
  54:Lib/Camera_Middleware/sensors/vd1943/vd1943.c ****   #define VD1943_CMD_LOAD_FWP                                 2
  55:Lib/Camera_Middleware/sensors/vd1943/vd1943.c ****   #define VD1943_CMD_END_BOOT                                 0x10
  56:Lib/Camera_Middleware/sensors/vd1943/vd1943.c **** #define VD1943_REG_SW_STBY                                    0x0516
  57:Lib/Camera_Middleware/sensors/vd1943/vd1943.c ****   #define VD1943_CMD_START_STREAMING                          1
  58:Lib/Camera_Middleware/sensors/vd1943/vd1943.c ****   #define VD1943_CMD_UPDATE_VT_RAM_START                      3
  59:Lib/Camera_Middleware/sensors/vd1943/vd1943.c ****   #define VD1943_CMD_UPDATE_VT_RAM_END                        4
  60:Lib/Camera_Middleware/sensors/vd1943/vd1943.c **** #define VD1943_REG_STREAMING                                  0x0517
  61:Lib/Camera_Middleware/sensors/vd1943/vd1943.c ****   #define VD1943_CMD_STOP_STREAMING                           1
  62:Lib/Camera_Middleware/sensors/vd1943/vd1943.c **** /* SENSOR SETTINGS */
  63:Lib/Camera_Middleware/sensors/vd1943/vd1943.c **** #define VD1943_REG_EXT_CLOCK                                  0x0734
  64:Lib/Camera_Middleware/sensors/vd1943/vd1943.c **** #define VD1943_REG_MIPI_DATA_RATE                             0x0738
  65:Lib/Camera_Middleware/sensors/vd1943/vd1943.c **** #define VD1943_REG_LANE_NB_SEL                                0x0743
  66:Lib/Camera_Middleware/sensors/vd1943/vd1943.c ****   #define VD1943_LANE_NB_SEL_4                                0
  67:Lib/Camera_Middleware/sensors/vd1943/vd1943.c ****   #define VD1943_LANE_NB_SEL_2                                1
  68:Lib/Camera_Middleware/sensors/vd1943/vd1943.c **** /* DIAG SETTINGS */
  69:Lib/Camera_Middleware/sensors/vd1943/vd1943.c **** #define VD1943_REG_DIAG_DISABLE_FW_0_ERR                      0x078d
  70:Lib/Camera_Middleware/sensors/vd1943/vd1943.c ****   #define VD1943_DIAG_DISABLE_FW_0_ERR_UI_CRC                 1
  71:Lib/Camera_Middleware/sensors/vd1943/vd1943.c **** #define VD1943_REG_DIAG_DISABLE_FW_1_ERR                      0x078e
  72:Lib/Camera_Middleware/sensors/vd1943/vd1943.c ****   #define VD1943_DIAG_DISABLE_FW_1_ERR_TASK_MONITOR           4
  73:Lib/Camera_Middleware/sensors/vd1943/vd1943.c **** #define VD1943_REG_DIAG_DISABLE_STREAMING_ERR                 0x078f
  74:Lib/Camera_Middleware/sensors/vd1943/vd1943.c ****   #define VD1943_DIAG_DISABLE_STREAMING_ERR_ALL               0xff
  75:Lib/Camera_Middleware/sensors/vd1943/vd1943.c **** /* STREAM STATICS */
  76:Lib/Camera_Middleware/sensors/vd1943/vd1943.c **** #define VD1943_REG_ROI_A_WIDTH_OFFSET                         0x090c
  77:Lib/Camera_Middleware/sensors/vd1943/vd1943.c **** #define VD1943_REG_ROI_A_HEIGHT_OFFSET                        0x090e
  78:Lib/Camera_Middleware/sensors/vd1943/vd1943.c **** #define VD1943_REG_ROI_A_WIDTH                                0x0910
  79:Lib/Camera_Middleware/sensors/vd1943/vd1943.c **** #define VD1943_REG_ROI_A_HEIGHT                               0x0912
  80:Lib/Camera_Middleware/sensors/vd1943/vd1943.c **** #define VD1943_REG_ROI_A_DT                                   0x0914
  81:Lib/Camera_Middleware/sensors/vd1943/vd1943.c **** #define VD1943_REG_LINE_LENGTH                                0x0934
  82:Lib/Camera_Middleware/sensors/vd1943/vd1943.c **** #define VD1943_REG_ORIENTATION                                0x0937
ARM GAS  C:\Users\DJESSOU\AppData\Local\Temp\cc3eovRL.s 			page 3


  83:Lib/Camera_Middleware/sensors/vd1943/vd1943.c **** #define VD1943_REG_PATGEN_CTRL                                0x0938
  84:Lib/Camera_Middleware/sensors/vd1943/vd1943.c ****  #define VD1943_PATGEN_CTRL_DISABLE                           0x0000
  85:Lib/Camera_Middleware/sensors/vd1943/vd1943.c ****  #define VD1943_PATGEN_CTRL_DGREY                             0x2201
  86:Lib/Camera_Middleware/sensors/vd1943/vd1943.c ****  #define VD1943_PATGEN_CTRL_PN28                              0x2801
  87:Lib/Camera_Middleware/sensors/vd1943/vd1943.c **** #define VD1943_REG_OIF_LANE_PHY_MAP                           0x093a
  88:Lib/Camera_Middleware/sensors/vd1943/vd1943.c **** #define VD1943_REG_OIF_LANE_PHY_SWAP                          0x093b
  89:Lib/Camera_Middleware/sensors/vd1943/vd1943.c **** #define VD1943_REG_OIF_INTERPACKET_DELAY                      0x093c
  90:Lib/Camera_Middleware/sensors/vd1943/vd1943.c **** #define VD1943_REG_VT_CTRL                                    0x0ac6
  91:Lib/Camera_Middleware/sensors/vd1943/vd1943.c ****   #define VD1943_VT_CTRL_MASTER                               0
  92:Lib/Camera_Middleware/sensors/vd1943/vd1943.c ****   #define VD1943_VT_CTRL_SLAVE                                1
  93:Lib/Camera_Middleware/sensors/vd1943/vd1943.c **** #define VD1943_REG_OIF_ISL_ENABLE                             0x0ac7
  94:Lib/Camera_Middleware/sensors/vd1943/vd1943.c **** #define VD1943_REG_GPIO_x_CTRL(_i_)                           (0xad4 + (_i_))
  95:Lib/Camera_Middleware/sensors/vd1943/vd1943.c **** #define VD1943_REG_CFA_BLENDER_ALPHA_CTRL                     0x0aed
  96:Lib/Camera_Middleware/sensors/vd1943/vd1943.c ****   #define VD1943_CFA_BLENDER_NORMAL                           0
  97:Lib/Camera_Middleware/sensors/vd1943/vd1943.c ****   #define VD1943_CFA_BLENDER_ZERO                             2
  98:Lib/Camera_Middleware/sensors/vd1943/vd1943.c **** #define VD1943_REG_OIF_DT_ISL                                 0x0afc
  99:Lib/Camera_Middleware/sensors/vd1943/vd1943.c **** /* STREAM_CTXx_STATIC */
 100:Lib/Camera_Middleware/sensors/vd1943/vd1943.c **** #define VD1943_REG_CTXx_STATIC_OFFSET(_x_, _addr_)            (0x0b40 + (_x_) * 72 + (_addr_))
 101:Lib/Camera_Middleware/sensors/vd1943/vd1943.c **** #define VD1943_REG_SENSOR_CONFIGURATION(_x_)                  VD1943_REG_CTXx_STATIC_OFFSET(_x_, 0x
 102:Lib/Camera_Middleware/sensors/vd1943/vd1943.c **** #define VD1943_REG_FRAME_LENGTH(_x_)                          VD1943_REG_CTXx_STATIC_OFFSET(_x_, 0x
 103:Lib/Camera_Middleware/sensors/vd1943/vd1943.c **** #define VD1943_REG_GPIO_CTRL(_x_)                             VD1943_REG_CTXx_STATIC_OFFSET(_x_, 0x
 104:Lib/Camera_Middleware/sensors/vd1943/vd1943.c ****  #define VD1943_GPIO_DISABLE                                  0
 105:Lib/Camera_Middleware/sensors/vd1943/vd1943.c ****  #define VD1943_GPIO_ENABLE                                   1
 106:Lib/Camera_Middleware/sensors/vd1943/vd1943.c **** /* STREAM DYNAMICS */
 107:Lib/Camera_Middleware/sensors/vd1943/vd1943.c **** /* STREAM_CTXx_DYNAMIC */
 108:Lib/Camera_Middleware/sensors/vd1943/vd1943.c **** #define VD1943_REG_CTXx_DYNAMIC_OFFSET(_x_, _addr_)           (0x0c78 + (_x_) * 40 + (_addr_))
 109:Lib/Camera_Middleware/sensors/vd1943/vd1943.c **** 
 110:Lib/Camera_Middleware/sensors/vd1943/vd1943.c **** #define VD1943_REG_GROUP_PARAMETER_HOLD(_x_)                  VD1943_REG_CTXx_DYNAMIC_OFFSET(_x_, 0
 111:Lib/Camera_Middleware/sensors/vd1943/vd1943.c ****  #define VD1943_GROUP_PARAMETER_HOLD_DISABLE                  0
 112:Lib/Camera_Middleware/sensors/vd1943/vd1943.c ****  #define VD1943_GROUP_PARAMETER_HOLD_ENABLE                   1
 113:Lib/Camera_Middleware/sensors/vd1943/vd1943.c **** #define VD1943_REG_ANALOG_GAIN(_x_)                           VD1943_REG_CTXx_DYNAMIC_OFFSET(_x_, 0
 114:Lib/Camera_Middleware/sensors/vd1943/vd1943.c **** #define VD1943_REG_INTEGRATION_TIME_PRIMARY(_x_)              VD1943_REG_CTXx_DYNAMIC_OFFSET(_x_, 0
 115:Lib/Camera_Middleware/sensors/vd1943/vd1943.c **** #define VD1943_REG_INTEGRATION_TIME_IR(_x_)                   VD1943_REG_CTXx_DYNAMIC_OFFSET(_x_, 0
 116:Lib/Camera_Middleware/sensors/vd1943/vd1943.c **** #define VD1943_REG_INTEGRATION_TIME_SHORT(_x_)                VD1943_REG_CTXx_DYNAMIC_OFFSET(_x_, 0
 117:Lib/Camera_Middleware/sensors/vd1943/vd1943.c **** #define VD1943_DIGITAL_GAIN_R(_x_)                            VD1943_REG_CTXx_DYNAMIC_OFFSET(_x_, 0
 118:Lib/Camera_Middleware/sensors/vd1943/vd1943.c **** #define VD1943_DIGITAL_GAIN_G(_x_)                            VD1943_REG_CTXx_DYNAMIC_OFFSET(_x_, 0
 119:Lib/Camera_Middleware/sensors/vd1943/vd1943.c **** #define VD1943_DIGITAL_GAIN_B(_x_)                            VD1943_REG_CTXx_DYNAMIC_OFFSET(_x_, 0
 120:Lib/Camera_Middleware/sensors/vd1943/vd1943.c **** #define VD1943_DIGITAL_GAIN_IR(_x_)                           VD1943_REG_CTXx_DYNAMIC_OFFSET(_x_, 0
 121:Lib/Camera_Middleware/sensors/vd1943/vd1943.c **** 
 122:Lib/Camera_Middleware/sensors/vd1943/vd1943.c **** /* DEBUG */
 123:Lib/Camera_Middleware/sensors/vd1943/vd1943.c **** #define VD1943_REG_DPHYTX_CTRL                                0x108c
 124:Lib/Camera_Middleware/sensors/vd1943/vd1943.c **** #define VD1943_REG_BOTTOM_STATUS_LINE_DISABLE                 0x110c
 125:Lib/Camera_Middleware/sensors/vd1943/vd1943.c **** /* CERTIFICATE */
 126:Lib/Camera_Middleware/sensors/vd1943/vd1943.c **** #define VD1943_REG_CERTIFICATE_AREA_START_ADDR                0x1aa8
 127:Lib/Camera_Middleware/sensors/vd1943/vd1943.c **** /* PATCH AREA */
 128:Lib/Camera_Middleware/sensors/vd1943/vd1943.c **** #define VD1943_REG_FWPATCH_START_ADDR                         0x2000
 129:Lib/Camera_Middleware/sensors/vd1943/vd1943.c **** 
 130:Lib/Camera_Middleware/sensors/vd1943/vd1943.c **** #define VD1943_MIN_VBLANK                                     60
 131:Lib/Camera_Middleware/sensors/vd1943/vd1943.c **** 
 132:Lib/Camera_Middleware/sensors/vd1943/vd1943.c **** /* Yes we are above maximum recommended line time duration. But this value allow to output a 10 bit
 133:Lib/Camera_Middleware/sensors/vd1943/vd1943.c ****  * global shutter mode in a 2 lanes configuration.
 134:Lib/Camera_Middleware/sensors/vd1943/vd1943.c ****  */
 135:Lib/Camera_Middleware/sensors/vd1943/vd1943.c **** #define VD1943_LINE_TIME_IN_NS                                14500
 136:Lib/Camera_Middleware/sensors/vd1943/vd1943.c **** #define VD1943_LINE_LENGTH_MIN                                3375
 137:Lib/Camera_Middleware/sensors/vd1943/vd1943.c **** 
 138:Lib/Camera_Middleware/sensors/vd1943/vd1943.c **** /* FIXME : Need characterization */
 139:Lib/Camera_Middleware/sensors/vd1943/vd1943.c **** #define VD1943_EXPOSURE_MARGIN                                100
ARM GAS  C:\Users\DJESSOU\AppData\Local\Temp\cc3eovRL.s 			page 4


 140:Lib/Camera_Middleware/sensors/vd1943/vd1943.c **** 
 141:Lib/Camera_Middleware/sensors/vd1943/vd1943.c **** #ifndef MIN
 142:Lib/Camera_Middleware/sensors/vd1943/vd1943.c **** #define MIN(a,b) ((a)<(b)?(a):(b))
 143:Lib/Camera_Middleware/sensors/vd1943/vd1943.c **** #endif
 144:Lib/Camera_Middleware/sensors/vd1943/vd1943.c **** 
 145:Lib/Camera_Middleware/sensors/vd1943/vd1943.c **** #ifndef MAX
 146:Lib/Camera_Middleware/sensors/vd1943/vd1943.c **** #define MAX(a,b) ((a)>(b)?(a):(b))
 147:Lib/Camera_Middleware/sensors/vd1943/vd1943.c **** #endif
 148:Lib/Camera_Middleware/sensors/vd1943/vd1943.c **** 
 149:Lib/Camera_Middleware/sensors/vd1943/vd1943.c **** #define VD1943_COMPUTE_LEFT(_w_)                              ((VD1943_MAX_WIDTH - (_w_)) / 2)
 150:Lib/Camera_Middleware/sensors/vd1943/vd1943.c **** #define VD1943_COMPUTE_TOP(_h_)                               ((VD1943_MAX_HEIGHT - (_h_)) / 2)
 151:Lib/Camera_Middleware/sensors/vd1943/vd1943.c **** 
 152:Lib/Camera_Middleware/sensors/vd1943/vd1943.c **** struct vd1943_rect {
 153:Lib/Camera_Middleware/sensors/vd1943/vd1943.c ****   int32_t left;
 154:Lib/Camera_Middleware/sensors/vd1943/vd1943.c ****   int32_t top;
 155:Lib/Camera_Middleware/sensors/vd1943/vd1943.c ****   uint32_t width;
 156:Lib/Camera_Middleware/sensors/vd1943/vd1943.c ****   uint32_t height;
 157:Lib/Camera_Middleware/sensors/vd1943/vd1943.c **** };
 158:Lib/Camera_Middleware/sensors/vd1943/vd1943.c **** 
 159:Lib/Camera_Middleware/sensors/vd1943/vd1943.c **** static const struct vd1943_rect vd1943_supported_modes[] = {
 160:Lib/Camera_Middleware/sensors/vd1943/vd1943.c ****   /* VD1943_RES_QVGA_320_240 */
 161:Lib/Camera_Middleware/sensors/vd1943/vd1943.c ****   {
 162:Lib/Camera_Middleware/sensors/vd1943/vd1943.c ****     .left = VD1943_COMPUTE_LEFT(320),
 163:Lib/Camera_Middleware/sensors/vd1943/vd1943.c ****     .top = VD1943_COMPUTE_TOP(240),
 164:Lib/Camera_Middleware/sensors/vd1943/vd1943.c ****     .width = 320,
 165:Lib/Camera_Middleware/sensors/vd1943/vd1943.c ****     .height = 240,
 166:Lib/Camera_Middleware/sensors/vd1943/vd1943.c ****   },
 167:Lib/Camera_Middleware/sensors/vd1943/vd1943.c ****   /* VD1943_RES_VGA_640_480 */
 168:Lib/Camera_Middleware/sensors/vd1943/vd1943.c ****   {
 169:Lib/Camera_Middleware/sensors/vd1943/vd1943.c ****     .left = VD1943_COMPUTE_LEFT(640),
 170:Lib/Camera_Middleware/sensors/vd1943/vd1943.c ****     .top = VD1943_COMPUTE_TOP(480),
 171:Lib/Camera_Middleware/sensors/vd1943/vd1943.c ****     .width = 640,
 172:Lib/Camera_Middleware/sensors/vd1943/vd1943.c ****     .height = 480,
 173:Lib/Camera_Middleware/sensors/vd1943/vd1943.c ****   },
 174:Lib/Camera_Middleware/sensors/vd1943/vd1943.c ****   /* VD1943_RES_VGA_800_600 */
 175:Lib/Camera_Middleware/sensors/vd1943/vd1943.c ****   {
 176:Lib/Camera_Middleware/sensors/vd1943/vd1943.c ****     .left = VD1943_COMPUTE_LEFT(800),
 177:Lib/Camera_Middleware/sensors/vd1943/vd1943.c ****     .top = VD1943_COMPUTE_TOP(600),
 178:Lib/Camera_Middleware/sensors/vd1943/vd1943.c ****     .width = 800,
 179:Lib/Camera_Middleware/sensors/vd1943/vd1943.c ****     .height = 600,
 180:Lib/Camera_Middleware/sensors/vd1943/vd1943.c ****   },
 181:Lib/Camera_Middleware/sensors/vd1943/vd1943.c ****   /* VD1943_RES_XGA_1024_768 */
 182:Lib/Camera_Middleware/sensors/vd1943/vd1943.c ****   {
 183:Lib/Camera_Middleware/sensors/vd1943/vd1943.c ****     .left = VD1943_COMPUTE_LEFT(1024),
 184:Lib/Camera_Middleware/sensors/vd1943/vd1943.c ****     .top = VD1943_COMPUTE_TOP(768),
 185:Lib/Camera_Middleware/sensors/vd1943/vd1943.c ****     .width = 1024,
 186:Lib/Camera_Middleware/sensors/vd1943/vd1943.c ****     .height = 768,
 187:Lib/Camera_Middleware/sensors/vd1943/vd1943.c ****   },
 188:Lib/Camera_Middleware/sensors/vd1943/vd1943.c ****   /* VD1943_RES_720P_1280_720 */
 189:Lib/Camera_Middleware/sensors/vd1943/vd1943.c ****   {
 190:Lib/Camera_Middleware/sensors/vd1943/vd1943.c ****     .left = VD1943_COMPUTE_LEFT(1280),
 191:Lib/Camera_Middleware/sensors/vd1943/vd1943.c ****     .top = VD1943_COMPUTE_TOP(720),
 192:Lib/Camera_Middleware/sensors/vd1943/vd1943.c ****     .width = 1280,
 193:Lib/Camera_Middleware/sensors/vd1943/vd1943.c ****     .height = 720,
 194:Lib/Camera_Middleware/sensors/vd1943/vd1943.c ****   },
 195:Lib/Camera_Middleware/sensors/vd1943/vd1943.c ****   /* VD1943_RES_SXGA_1280_1024 */
 196:Lib/Camera_Middleware/sensors/vd1943/vd1943.c ****   {
ARM GAS  C:\Users\DJESSOU\AppData\Local\Temp\cc3eovRL.s 			page 5


 197:Lib/Camera_Middleware/sensors/vd1943/vd1943.c ****     .left = VD1943_COMPUTE_LEFT(1280),
 198:Lib/Camera_Middleware/sensors/vd1943/vd1943.c ****     .top = VD1943_COMPUTE_TOP(1024),
 199:Lib/Camera_Middleware/sensors/vd1943/vd1943.c ****     .width = 1280,
 200:Lib/Camera_Middleware/sensors/vd1943/vd1943.c ****     .height = 1024,
 201:Lib/Camera_Middleware/sensors/vd1943/vd1943.c ****   },
 202:Lib/Camera_Middleware/sensors/vd1943/vd1943.c ****   /* VD1943_RES_1080P_1920_1080 */
 203:Lib/Camera_Middleware/sensors/vd1943/vd1943.c ****   {
 204:Lib/Camera_Middleware/sensors/vd1943/vd1943.c ****     .left = VD1943_COMPUTE_LEFT(1920),
 205:Lib/Camera_Middleware/sensors/vd1943/vd1943.c ****     .top = VD1943_COMPUTE_TOP(1080),
 206:Lib/Camera_Middleware/sensors/vd1943/vd1943.c ****     .width = 1920,
 207:Lib/Camera_Middleware/sensors/vd1943/vd1943.c ****     .height = 1080,
 208:Lib/Camera_Middleware/sensors/vd1943/vd1943.c ****   },
 209:Lib/Camera_Middleware/sensors/vd1943/vd1943.c ****   /* VD1943_RES_QXGA_2048_1536 */
 210:Lib/Camera_Middleware/sensors/vd1943/vd1943.c ****   {
 211:Lib/Camera_Middleware/sensors/vd1943/vd1943.c ****     .left = VD1943_COMPUTE_LEFT(2048),
 212:Lib/Camera_Middleware/sensors/vd1943/vd1943.c ****     .top = VD1943_COMPUTE_TOP(1536),
 213:Lib/Camera_Middleware/sensors/vd1943/vd1943.c ****     .width = 2048,
 214:Lib/Camera_Middleware/sensors/vd1943/vd1943.c ****     .height = 1536,
 215:Lib/Camera_Middleware/sensors/vd1943/vd1943.c ****   },
 216:Lib/Camera_Middleware/sensors/vd1943/vd1943.c ****   /* VD1943_RES_FULL43_2560_1920 */
 217:Lib/Camera_Middleware/sensors/vd1943/vd1943.c ****   {
 218:Lib/Camera_Middleware/sensors/vd1943/vd1943.c ****     .left = VD1943_COMPUTE_LEFT(2560),
 219:Lib/Camera_Middleware/sensors/vd1943/vd1943.c ****     .top = VD1943_COMPUTE_TOP(1920),
 220:Lib/Camera_Middleware/sensors/vd1943/vd1943.c ****     .width = 2560,
 221:Lib/Camera_Middleware/sensors/vd1943/vd1943.c ****     .height = 1920,
 222:Lib/Camera_Middleware/sensors/vd1943/vd1943.c ****   },
 223:Lib/Camera_Middleware/sensors/vd1943/vd1943.c ****   /* VD1943_RES_FULL_2560_1984 */
 224:Lib/Camera_Middleware/sensors/vd1943/vd1943.c ****   {
 225:Lib/Camera_Middleware/sensors/vd1943/vd1943.c ****     .left = VD1943_COMPUTE_LEFT(2560),
 226:Lib/Camera_Middleware/sensors/vd1943/vd1943.c ****     .top = VD1943_COMPUTE_TOP(1984),
 227:Lib/Camera_Middleware/sensors/vd1943/vd1943.c ****     .width = 2560,
 228:Lib/Camera_Middleware/sensors/vd1943/vd1943.c ****     .height = 1984,
 229:Lib/Camera_Middleware/sensors/vd1943/vd1943.c ****   },
 230:Lib/Camera_Middleware/sensors/vd1943/vd1943.c **** };
 231:Lib/Camera_Middleware/sensors/vd1943/vd1943.c **** 
 232:Lib/Camera_Middleware/sensors/vd1943/vd1943.c **** #define VD1943_TraceError(_ctx_,_ret_) do { \
 233:Lib/Camera_Middleware/sensors/vd1943/vd1943.c ****   if (_ret_) VD1943_error(_ctx_, "Error on %s:%d : %d\n", __func__, __LINE__, _ret_); \
 234:Lib/Camera_Middleware/sensors/vd1943/vd1943.c ****   if (_ret_) display_error(_ctx_); \
 235:Lib/Camera_Middleware/sensors/vd1943/vd1943.c ****   if (_ret_) return _ret_; \
 236:Lib/Camera_Middleware/sensors/vd1943/vd1943.c **** } while(0)
 237:Lib/Camera_Middleware/sensors/vd1943/vd1943.c **** 
 238:Lib/Camera_Middleware/sensors/vd1943/vd1943.c **** static void VD1943_log_impl(VD1943_Ctx_t *ctx, int lvl, const char *format, ...)
 239:Lib/Camera_Middleware/sensors/vd1943/vd1943.c **** {
  34              		.loc 1 239 1 view -0
  35              		.cfi_startproc
  36              		@ args = 4, pretend = 8, frame = 8
  37              		@ frame_needed = 0, uses_anonymous_args = 1
 240:Lib/Camera_Middleware/sensors/vd1943/vd1943.c ****   va_list ap;
  38              		.loc 1 240 3 view .LVU1
 241:Lib/Camera_Middleware/sensors/vd1943/vd1943.c **** 
 242:Lib/Camera_Middleware/sensors/vd1943/vd1943.c ****   if (!ctx->log)
  39              		.loc 1 242 3 view .LVU2
 239:Lib/Camera_Middleware/sensors/vd1943/vd1943.c ****   va_list ap;
  40              		.loc 1 239 1 is_stmt 0 view .LVU3
  41 0000 0CB4     		push	{r2, r3}
  42              		.cfi_def_cfa_offset 8
  43              		.cfi_offset 2, -8
ARM GAS  C:\Users\DJESSOU\AppData\Local\Temp\cc3eovRL.s 			page 6


  44              		.cfi_offset 3, -4
  45 0002 13B5     		push	{r0, r1, r4, lr}
  46              		.cfi_def_cfa_offset 24
  47              		.cfi_offset 4, -16
  48              		.cfi_offset 14, -12
  49              		.loc 1 242 6 view .LVU4
  50 0004 446A     		ldr	r4, [r0, #36]
  51 0006 1CB1     		cbz	r4, .L1
 243:Lib/Camera_Middleware/sensors/vd1943/vd1943.c ****     return ;
 244:Lib/Camera_Middleware/sensors/vd1943/vd1943.c **** 
 245:Lib/Camera_Middleware/sensors/vd1943/vd1943.c ****   va_start(ap, format);
  52              		.loc 1 245 3 is_stmt 1 view .LVU5
  53 0008 05AB     		add	r3, sp, #20
 246:Lib/Camera_Middleware/sensors/vd1943/vd1943.c ****   ctx->log(ctx, lvl, format, ap);
  54              		.loc 1 246 3 is_stmt 0 view .LVU6
  55 000a 049A     		ldr	r2, [sp, #16]
 245:Lib/Camera_Middleware/sensors/vd1943/vd1943.c ****   ctx->log(ctx, lvl, format, ap);
  56              		.loc 1 245 3 view .LVU7
  57 000c 0193     		str	r3, [sp, #4]
  58              		.loc 1 246 3 is_stmt 1 view .LVU8
  59 000e A047     		blx	r4
  60              	.LVL1:
 247:Lib/Camera_Middleware/sensors/vd1943/vd1943.c ****   va_end(ap);
  61              		.loc 1 247 3 view .LVU9
  62              	.L1:
 248:Lib/Camera_Middleware/sensors/vd1943/vd1943.c **** }
  63              		.loc 1 248 1 is_stmt 0 view .LVU10
  64 0010 02B0     		add	sp, sp, #8
  65              		.cfi_def_cfa_offset 16
  66              		@ sp needed
  67 0012 BDE81040 		pop	{r4, lr}
  68              		.cfi_restore 14
  69              		.cfi_restore 4
  70              		.cfi_def_cfa_offset 8
  71 0016 02B0     		add	sp, sp, #8
  72              		.cfi_restore 3
  73              		.cfi_restore 2
  74              		.cfi_def_cfa_offset 0
  75 0018 7047     		bx	lr
  76              		.cfi_endproc
  77              	.LFE0:
  79              		.section	.rodata.VD1943_PollReg8.str1.1,"aMS",%progbits,1
  80              	.LC0:
  81 0000 56443139 		.ascii	"VD1943_DG%d-%d : current state %d\012\000"
  81      34335F44 
  81      4725642D 
  81      2564203A 
  81      20637572 
  82              		.section	.text.VD1943_PollReg8,"ax",%progbits
  83              		.align	1
  84              		.syntax unified
  85              		.thumb
  86              		.thumb_func
  88              	VD1943_PollReg8:
  89              	.LVL2:
  90              	.LFB2:
 249:Lib/Camera_Middleware/sensors/vd1943/vd1943.c **** 
ARM GAS  C:\Users\DJESSOU\AppData\Local\Temp\cc3eovRL.s 			page 7


 250:Lib/Camera_Middleware/sensors/vd1943/vd1943.c **** #define VD1943_dbg(_ctx_, _lvl_, _fmt_, ...) do { \
 251:Lib/Camera_Middleware/sensors/vd1943/vd1943.c ****   VD1943_log_impl(_ctx_, VD1943_LVL_DBG(_lvl_), "VD1943_DG%d-%d : " _fmt_, _lvl_, __LINE__, ##__VA_
 252:Lib/Camera_Middleware/sensors/vd1943/vd1943.c **** } while(0)
 253:Lib/Camera_Middleware/sensors/vd1943/vd1943.c **** 
 254:Lib/Camera_Middleware/sensors/vd1943/vd1943.c **** #define VD1943_notice(_ctx_, _fmt_, ...) do { \
 255:Lib/Camera_Middleware/sensors/vd1943/vd1943.c ****   VD1943_log_impl(_ctx_, VD1943_LVL_NOTICE, "VD1943_NOT-%d : " _fmt_, __LINE__, ##__VA_ARGS__); \
 256:Lib/Camera_Middleware/sensors/vd1943/vd1943.c **** } while(0)
 257:Lib/Camera_Middleware/sensors/vd1943/vd1943.c **** 
 258:Lib/Camera_Middleware/sensors/vd1943/vd1943.c **** #define VD1943_warn(_ctx_, _fmt_, ...) do { \
 259:Lib/Camera_Middleware/sensors/vd1943/vd1943.c ****   VD1943_log_impl(_ctx_, VD1943_LVL_WARNING, "VD1943_WRN-%d : " _fmt_, __LINE__, ##__VA_ARGS__); \
 260:Lib/Camera_Middleware/sensors/vd1943/vd1943.c **** } while(0)
 261:Lib/Camera_Middleware/sensors/vd1943/vd1943.c **** 
 262:Lib/Camera_Middleware/sensors/vd1943/vd1943.c **** #define VD1943_error(_ctx_, _fmt_, ...) do { \
 263:Lib/Camera_Middleware/sensors/vd1943/vd1943.c ****   VD1943_log_impl(_ctx_, VD1943_LVL_ERROR, "VD1943_ERR-%d : " _fmt_, __LINE__, ##__VA_ARGS__); \
 264:Lib/Camera_Middleware/sensors/vd1943/vd1943.c **** } while(0)
 265:Lib/Camera_Middleware/sensors/vd1943/vd1943.c **** 
 266:Lib/Camera_Middleware/sensors/vd1943/vd1943.c **** static void display_error(VD1943_Ctx_t *ctx)
 267:Lib/Camera_Middleware/sensors/vd1943/vd1943.c **** {
 268:Lib/Camera_Middleware/sensors/vd1943/vd1943.c ****   uint16_t reg16;
 269:Lib/Camera_Middleware/sensors/vd1943/vd1943.c ****   int ret;
 270:Lib/Camera_Middleware/sensors/vd1943/vd1943.c **** 
 271:Lib/Camera_Middleware/sensors/vd1943/vd1943.c ****   ret = ctx->read16(ctx, VD1943_REG_SYSTEM_ERROR, &reg16);
 272:Lib/Camera_Middleware/sensors/vd1943/vd1943.c ****   assert(ret == 0);
 273:Lib/Camera_Middleware/sensors/vd1943/vd1943.c ****   VD1943_error(ctx, "ERROR_CODE : 0x%04x\n", reg16);
 274:Lib/Camera_Middleware/sensors/vd1943/vd1943.c **** }
 275:Lib/Camera_Middleware/sensors/vd1943/vd1943.c **** 
 276:Lib/Camera_Middleware/sensors/vd1943/vd1943.c **** static int VD1943_PollReg8(VD1943_Ctx_t *ctx, uint16_t addr, uint8_t poll_val)
 277:Lib/Camera_Middleware/sensors/vd1943/vd1943.c **** {
  91              		.loc 1 277 1 is_stmt 1 view -0
  92              		.cfi_startproc
  93              		@ args = 0, pretend = 0, frame = 8
  94              		@ frame_needed = 0, uses_anonymous_args = 0
 278:Lib/Camera_Middleware/sensors/vd1943/vd1943.c ****   const unsigned int loop_delay_ms = 10;
  95              		.loc 1 278 3 view .LVU12
 279:Lib/Camera_Middleware/sensors/vd1943/vd1943.c ****   const unsigned int timeout_ms = 500;
  96              		.loc 1 279 3 view .LVU13
 280:Lib/Camera_Middleware/sensors/vd1943/vd1943.c ****   int loop_nb = timeout_ms / loop_delay_ms;
  97              		.loc 1 280 3 view .LVU14
 281:Lib/Camera_Middleware/sensors/vd1943/vd1943.c ****   uint8_t val;
  98              		.loc 1 281 3 view .LVU15
 282:Lib/Camera_Middleware/sensors/vd1943/vd1943.c ****   int ret;
  99              		.loc 1 282 3 view .LVU16
 283:Lib/Camera_Middleware/sensors/vd1943/vd1943.c **** 
 284:Lib/Camera_Middleware/sensors/vd1943/vd1943.c ****   while (--loop_nb) {
 100              		.loc 1 284 3 view .LVU17
 101              		.loc 1 284 10 view .LVU18
 277:Lib/Camera_Middleware/sensors/vd1943/vd1943.c ****   const unsigned int loop_delay_ms = 10;
 102              		.loc 1 277 1 is_stmt 0 view .LVU19
 103 0000 F0B5     		push	{r4, r5, r6, r7, lr}
 104              		.cfi_def_cfa_offset 20
 105              		.cfi_offset 4, -20
 106              		.cfi_offset 5, -16
 107              		.cfi_offset 6, -12
 108              		.cfi_offset 7, -8
 109              		.cfi_offset 14, -4
 110 0002 0446     		mov	r4, r0
 111 0004 0E46     		mov	r6, r1
ARM GAS  C:\Users\DJESSOU\AppData\Local\Temp\cc3eovRL.s 			page 8


 112 0006 1746     		mov	r7, r2
 113 0008 3125     		movs	r5, #49
 114 000a 85B0     		sub	sp, sp, #20
 115              		.cfi_def_cfa_offset 40
 116              	.LVL3:
 117              	.L8:
 285:Lib/Camera_Middleware/sensors/vd1943/vd1943.c ****     ret = ctx->read8(ctx, addr, &val);
 118              		.loc 1 285 5 is_stmt 1 view .LVU20
 119              		.loc 1 285 11 is_stmt 0 view .LVU21
 120 000c 3146     		mov	r1, r6
 121 000e 2046     		mov	r0, r4
 122 0010 6368     		ldr	r3, [r4, #4]
 123 0012 0DF10F02 		add	r2, sp, #15
 124 0016 9847     		blx	r3
 125              	.LVL4:
 286:Lib/Camera_Middleware/sensors/vd1943/vd1943.c ****     if (ret < 0)
 126              		.loc 1 286 5 is_stmt 1 view .LVU22
 127              		.loc 1 286 8 is_stmt 0 view .LVU23
 128 0018 0028     		cmp	r0, #0
 129              		.loc 1 286 8 view .LVU24
 130 001a 17DB     		blt	.L6
 287:Lib/Camera_Middleware/sensors/vd1943/vd1943.c ****       return ret;
 288:Lib/Camera_Middleware/sensors/vd1943/vd1943.c ****     if (val == poll_val)
 131              		.loc 1 288 5 is_stmt 1 view .LVU25
 132              		.loc 1 288 8 is_stmt 0 view .LVU26
 133 001c 9DF80F30 		ldrb	r3, [sp, #15]	@ zero_extendqisi2
 134 0020 BB42     		cmp	r3, r7
 135 0022 15D0     		beq	.L9
 289:Lib/Camera_Middleware/sensors/vd1943/vd1943.c ****       return 0;
 290:Lib/Camera_Middleware/sensors/vd1943/vd1943.c ****     ctx->delay(ctx, loop_delay_ms);
 136              		.loc 1 290 5 is_stmt 1 view .LVU27
 137 0024 0A21     		movs	r1, #10
 138 0026 2046     		mov	r0, r4
 139              	.LVL5:
 140              		.loc 1 290 5 is_stmt 0 view .LVU28
 141 0028 236A     		ldr	r3, [r4, #32]
 142 002a 9847     		blx	r3
 143              	.LVL6:
 284:Lib/Camera_Middleware/sensors/vd1943/vd1943.c ****     ret = ctx->read8(ctx, addr, &val);
 144              		.loc 1 284 10 is_stmt 1 view .LVU29
 284:Lib/Camera_Middleware/sensors/vd1943/vd1943.c ****     ret = ctx->read8(ctx, addr, &val);
 145              		.loc 1 284 10 is_stmt 0 view .LVU30
 146 002c 013D     		subs	r5, r5, #1
 147              	.LVL7:
 284:Lib/Camera_Middleware/sensors/vd1943/vd1943.c ****     ret = ctx->read8(ctx, addr, &val);
 148              		.loc 1 284 10 view .LVU31
 149 002e EDD1     		bne	.L8
 291:Lib/Camera_Middleware/sensors/vd1943/vd1943.c ****   }
 292:Lib/Camera_Middleware/sensors/vd1943/vd1943.c **** 
 293:Lib/Camera_Middleware/sensors/vd1943/vd1943.c ****   VD1943_dbg(ctx, 0, "current state %d\n", val);
 150              		.loc 1 293 3 is_stmt 1 view .LVU32
 151              		.loc 1 293 3 view .LVU33
 152 0030 9DF80F30 		ldrb	r3, [sp, #15]	@ zero_extendqisi2
 153 0034 2046     		mov	r0, r4
 154 0036 0193     		str	r3, [sp, #4]
 155 0038 40F22513 		movw	r3, #293
 156 003c 0321     		movs	r1, #3
ARM GAS  C:\Users\DJESSOU\AppData\Local\Temp\cc3eovRL.s 			page 9


 157 003e 0093     		str	r3, [sp]
 158 0040 044A     		ldr	r2, .L11
 159 0042 2B46     		mov	r3, r5
 160 0044 FFF7FEFF 		bl	VD1943_log_impl
 161              	.LVL8:
 162              		.loc 1 293 3 discriminator 1 view .LVU34
 294:Lib/Camera_Middleware/sensors/vd1943/vd1943.c **** 
 295:Lib/Camera_Middleware/sensors/vd1943/vd1943.c ****   return -1;
 163              		.loc 1 295 3 view .LVU35
 164              		.loc 1 295 10 is_stmt 0 view .LVU36
 165 0048 4FF0FF30 		mov	r0, #-1
 166              	.LVL9:
 167              	.L6:
 296:Lib/Camera_Middleware/sensors/vd1943/vd1943.c **** }
 168              		.loc 1 296 1 view .LVU37
 169 004c 05B0     		add	sp, sp, #20
 170              		.cfi_remember_state
 171              		.cfi_def_cfa_offset 20
 172              		@ sp needed
 173 004e F0BD     		pop	{r4, r5, r6, r7, pc}
 174              	.LVL10:
 175              	.L9:
 176              		.cfi_restore_state
 289:Lib/Camera_Middleware/sensors/vd1943/vd1943.c ****     ctx->delay(ctx, loop_delay_ms);
 177              		.loc 1 289 14 view .LVU38
 178 0050 0020     		movs	r0, #0
 179              	.LVL11:
 289:Lib/Camera_Middleware/sensors/vd1943/vd1943.c ****     ctx->delay(ctx, loop_delay_ms);
 180              		.loc 1 289 14 view .LVU39
 181 0052 FBE7     		b	.L6
 182              	.L12:
 183              		.align	2
 184              	.L11:
 185 0054 00000000 		.word	.LC0
 186              		.cfi_endproc
 187              	.LFE2:
 189              		.section	.rodata.display_error.str1.1,"aMS",%progbits,1
 190              	.LC1:
 191 0000 72657420 		.ascii	"ret == 0\000"
 191      3D3D2030 
 191      00
 192              	.LC2:
 193 0009 4C69622F 		.ascii	"Lib/Camera_Middleware/sensors/vd1943/vd1943.c\000"
 193      43616D65 
 193      72615F4D 
 193      6964646C 
 193      65776172 
 194              	.LC3:
 195 0037 56443139 		.ascii	"VD1943_ERR-%d : ERROR_CODE : 0x%04x\012\000"
 195      34335F45 
 195      52522D25 
 195      64203A20 
 195      4552524F 
 196              		.section	.text.display_error,"ax",%progbits
 197              		.align	1
 198              		.syntax unified
 199              		.thumb
ARM GAS  C:\Users\DJESSOU\AppData\Local\Temp\cc3eovRL.s 			page 10


 200              		.thumb_func
 202              	display_error:
 203              	.LVL12:
 204              	.LFB1:
 267:Lib/Camera_Middleware/sensors/vd1943/vd1943.c ****   uint16_t reg16;
 205              		.loc 1 267 1 is_stmt 1 view -0
 206              		.cfi_startproc
 207              		@ args = 0, pretend = 0, frame = 8
 208              		@ frame_needed = 0, uses_anonymous_args = 0
 268:Lib/Camera_Middleware/sensors/vd1943/vd1943.c ****   int ret;
 209              		.loc 1 268 3 view .LVU41
 269:Lib/Camera_Middleware/sensors/vd1943/vd1943.c **** 
 210              		.loc 1 269 3 view .LVU42
 271:Lib/Camera_Middleware/sensors/vd1943/vd1943.c ****   assert(ret == 0);
 211              		.loc 1 271 3 view .LVU43
 267:Lib/Camera_Middleware/sensors/vd1943/vd1943.c ****   uint16_t reg16;
 212              		.loc 1 267 1 is_stmt 0 view .LVU44
 213 0000 1FB5     		push	{r0, r1, r2, r3, r4, lr}
 214              		.cfi_def_cfa_offset 24
 215              		.cfi_offset 4, -8
 216              		.cfi_offset 14, -4
 271:Lib/Camera_Middleware/sensors/vd1943/vd1943.c ****   assert(ret == 0);
 217              		.loc 1 271 9 view .LVU45
 218 0002 4821     		movs	r1, #72
 219 0004 8368     		ldr	r3, [r0, #8]
 220 0006 0DF10E02 		add	r2, sp, #14
 267:Lib/Camera_Middleware/sensors/vd1943/vd1943.c ****   uint16_t reg16;
 221              		.loc 1 267 1 view .LVU46
 222 000a 0446     		mov	r4, r0
 271:Lib/Camera_Middleware/sensors/vd1943/vd1943.c ****   assert(ret == 0);
 223              		.loc 1 271 9 view .LVU47
 224 000c 9847     		blx	r3
 225              	.LVL13:
 272:Lib/Camera_Middleware/sensors/vd1943/vd1943.c ****   VD1943_error(ctx, "ERROR_CODE : 0x%04x\n", reg16);
 226              		.loc 1 272 3 is_stmt 1 view .LVU48
 227 000e 0146     		mov	r1, r0
 228 0010 30B1     		cbz	r0, .L14
 229              	.LBB4:
 230              	.LBI4:
 266:Lib/Camera_Middleware/sensors/vd1943/vd1943.c **** {
 231              		.loc 1 266 13 view .LVU49
 232              	.LVL14:
 233              	.LBB5:
 272:Lib/Camera_Middleware/sensors/vd1943/vd1943.c ****   VD1943_error(ctx, "ERROR_CODE : 0x%04x\n", reg16);
 234              		.loc 1 272 3 is_stmt 0 discriminator 1 view .LVU50
 235 0012 4FF48871 		mov	r1, #272
 236 0016 084B     		ldr	r3, .L15
 237 0018 084A     		ldr	r2, .L15+4
 238 001a 0948     		ldr	r0, .L15+8
 239              	.LVL15:
 272:Lib/Camera_Middleware/sensors/vd1943/vd1943.c ****   VD1943_error(ctx, "ERROR_CODE : 0x%04x\n", reg16);
 240              		.loc 1 272 3 discriminator 1 view .LVU51
 241 001c FFF7FEFF 		bl	__assert_func
 242              	.LVL16:
 243              	.L14:
 272:Lib/Camera_Middleware/sensors/vd1943/vd1943.c ****   VD1943_error(ctx, "ERROR_CODE : 0x%04x\n", reg16);
 244              		.loc 1 272 3 discriminator 1 view .LVU52
ARM GAS  C:\Users\DJESSOU\AppData\Local\Temp\cc3eovRL.s 			page 11


 245              	.LBE5:
 246              	.LBE4:
 273:Lib/Camera_Middleware/sensors/vd1943/vd1943.c **** }
 247              		.loc 1 273 3 is_stmt 1 view .LVU53
 273:Lib/Camera_Middleware/sensors/vd1943/vd1943.c **** }
 248              		.loc 1 273 3 view .LVU54
 249 0020 BDF80E30 		ldrh	r3, [sp, #14]
 250 0024 2046     		mov	r0, r4
 251              	.LVL17:
 273:Lib/Camera_Middleware/sensors/vd1943/vd1943.c **** }
 252              		.loc 1 273 3 is_stmt 0 view .LVU55
 253 0026 0093     		str	r3, [sp]
 254 0028 064A     		ldr	r2, .L15+12
 255 002a 40F21113 		movw	r3, #273
 256 002e FFF7FEFF 		bl	VD1943_log_impl
 257              	.LVL18:
 273:Lib/Camera_Middleware/sensors/vd1943/vd1943.c **** }
 258              		.loc 1 273 3 is_stmt 1 discriminator 1 view .LVU56
 274:Lib/Camera_Middleware/sensors/vd1943/vd1943.c **** 
 259              		.loc 1 274 1 is_stmt 0 view .LVU57
 260 0032 04B0     		add	sp, sp, #16
 261              		.cfi_def_cfa_offset 8
 262              		@ sp needed
 263 0034 10BD     		pop	{r4, pc}
 264              	.LVL19:
 265              	.L16:
 274:Lib/Camera_Middleware/sensors/vd1943/vd1943.c **** 
 266              		.loc 1 274 1 view .LVU58
 267 0036 00BF     		.align	2
 268              	.L15:
 269 0038 00000000 		.word	.LC1
 270 003c 00000000 		.word	__func__.34
 271 0040 09000000 		.word	.LC2
 272 0044 37000000 		.word	.LC3
 273              		.cfi_endproc
 274              	.LFE1:
 276              		.section	.rodata.VD1943_ComputeFrameLength.str1.1,"aMS",%progbits,1
 277              	.LC4:
 278 0000 56443139 		.ascii	"VD1943_ERR-%d : Error on %s:%d : %d\012\000"
 278      34335F45 
 278      52522D25 
 278      64203A20 
 278      4572726F 
 279              	.LC5:
 280 0025 56443139 		.ascii	"VD1943_DG%d-%d : frame_length to MAX(%d, %d) = %d t"
 280      34335F44 
 280      4725642D 
 280      2564203A 
 280      20667261 
 281 0058 6F207265 		.ascii	"o reach %d fps\012\000"
 281      61636820 
 281      25642066 
 281      70730A00 
 282              		.section	.text.VD1943_ComputeFrameLength,"ax",%progbits
 283              		.align	1
 284              		.syntax unified
 285              		.thumb
ARM GAS  C:\Users\DJESSOU\AppData\Local\Temp\cc3eovRL.s 			page 12


 286              		.thumb_func
 288              	VD1943_ComputeFrameLength:
 289              	.LVL20:
 290              	.LFB33:
 297:Lib/Camera_Middleware/sensors/vd1943/vd1943.c **** 
 298:Lib/Camera_Middleware/sensors/vd1943/vd1943.c **** static int VD1943_WaitState(VD1943_Ctx_t *ctx, int state)
 299:Lib/Camera_Middleware/sensors/vd1943/vd1943.c **** {
 300:Lib/Camera_Middleware/sensors/vd1943/vd1943.c ****   int ret = VD1943_PollReg8(ctx, VD1943_REG_SYSTEM_FSM_STATE, state);
 301:Lib/Camera_Middleware/sensors/vd1943/vd1943.c **** 
 302:Lib/Camera_Middleware/sensors/vd1943/vd1943.c ****   if (ret)
 303:Lib/Camera_Middleware/sensors/vd1943/vd1943.c ****     VD1943_warn(ctx, "Unable to reach state %d\n", state);
 304:Lib/Camera_Middleware/sensors/vd1943/vd1943.c ****   else
 305:Lib/Camera_Middleware/sensors/vd1943/vd1943.c ****     VD1943_dbg(ctx, 0, "reach state %d\n", state);
 306:Lib/Camera_Middleware/sensors/vd1943/vd1943.c **** 
 307:Lib/Camera_Middleware/sensors/vd1943/vd1943.c ****   return ret;
 308:Lib/Camera_Middleware/sensors/vd1943/vd1943.c **** }
 309:Lib/Camera_Middleware/sensors/vd1943/vd1943.c **** 
 310:Lib/Camera_Middleware/sensors/vd1943/vd1943.c **** static int VD1943_ApplyCmdAndWait(VD1943_Ctx_t *ctx, uint16_t addr, uint8_t cmd)
 311:Lib/Camera_Middleware/sensors/vd1943/vd1943.c **** {
 312:Lib/Camera_Middleware/sensors/vd1943/vd1943.c ****   int ret;
 313:Lib/Camera_Middleware/sensors/vd1943/vd1943.c **** 
 314:Lib/Camera_Middleware/sensors/vd1943/vd1943.c ****   VD1943_dbg(ctx, 0, "Apply cmd %d to 0x%04x\n", cmd, addr);
 315:Lib/Camera_Middleware/sensors/vd1943/vd1943.c ****   ret = ctx->write8(ctx, addr, cmd);
 316:Lib/Camera_Middleware/sensors/vd1943/vd1943.c ****   VD1943_TraceError(ctx, ret);
 317:Lib/Camera_Middleware/sensors/vd1943/vd1943.c **** 
 318:Lib/Camera_Middleware/sensors/vd1943/vd1943.c ****   ret = VD1943_PollReg8(ctx, addr, VD1943_CMD_ACK);
 319:Lib/Camera_Middleware/sensors/vd1943/vd1943.c ****   VD1943_TraceError(ctx, ret);
 320:Lib/Camera_Middleware/sensors/vd1943/vd1943.c **** 
 321:Lib/Camera_Middleware/sensors/vd1943/vd1943.c ****   return 0;
 322:Lib/Camera_Middleware/sensors/vd1943/vd1943.c **** }
 323:Lib/Camera_Middleware/sensors/vd1943/vd1943.c **** 
 324:Lib/Camera_Middleware/sensors/vd1943/vd1943.c **** static int VD1943_CheckModelId(VD1943_Ctx_t *ctx)
 325:Lib/Camera_Middleware/sensors/vd1943/vd1943.c **** {
 326:Lib/Camera_Middleware/sensors/vd1943/vd1943.c ****   uint32_t reg32;
 327:Lib/Camera_Middleware/sensors/vd1943/vd1943.c ****   uint16_t reg16;
 328:Lib/Camera_Middleware/sensors/vd1943/vd1943.c ****   int ret;
 329:Lib/Camera_Middleware/sensors/vd1943/vd1943.c **** 
 330:Lib/Camera_Middleware/sensors/vd1943/vd1943.c ****   ret = ctx->read32(ctx, VD1943_REG_MODEL_ID, &reg32);
 331:Lib/Camera_Middleware/sensors/vd1943/vd1943.c ****   VD1943_TraceError(ctx, ret);
 332:Lib/Camera_Middleware/sensors/vd1943/vd1943.c ****   VD1943_dbg(ctx, 0, "model_id = 0x%08x\n", reg32);
 333:Lib/Camera_Middleware/sensors/vd1943/vd1943.c ****   if (reg32 != VD1943_MODEL_ID_1_3 && reg32 != VD1943_MODEL_ID_1_4) {
 334:Lib/Camera_Middleware/sensors/vd1943/vd1943.c ****     VD1943_error(ctx, "Unsupported model id: 0x%08x\n", reg32);
 335:Lib/Camera_Middleware/sensors/vd1943/vd1943.c ****     return -1;
 336:Lib/Camera_Middleware/sensors/vd1943/vd1943.c ****   }
 337:Lib/Camera_Middleware/sensors/vd1943/vd1943.c **** 
 338:Lib/Camera_Middleware/sensors/vd1943/vd1943.c ****   ret = ctx->read16(ctx, VD1943_REG_ROM_REVISION, &reg16);
 339:Lib/Camera_Middleware/sensors/vd1943/vd1943.c ****   VD1943_TraceError(ctx, ret);
 340:Lib/Camera_Middleware/sensors/vd1943/vd1943.c ****   VD1943_dbg(ctx, 0, "rom revision = 0x%08x\n", reg16);
 341:Lib/Camera_Middleware/sensors/vd1943/vd1943.c ****   if (reg16 == VD1943_ROM_REVISION_13) {
 342:Lib/Camera_Middleware/sensors/vd1943/vd1943.c ****     ctx->ctx.is_fastboot = 0;
 343:Lib/Camera_Middleware/sensors/vd1943/vd1943.c ****   } else if (reg16 == VD1943_ROM_REVISION_14) {
 344:Lib/Camera_Middleware/sensors/vd1943/vd1943.c ****     ctx->ctx.is_fastboot = 1;
 345:Lib/Camera_Middleware/sensors/vd1943/vd1943.c ****   } else {
 346:Lib/Camera_Middleware/sensors/vd1943/vd1943.c ****     VD1943_error(ctx, "Unsupported rom revision: 0x%08x\n", reg16);
 347:Lib/Camera_Middleware/sensors/vd1943/vd1943.c ****     return -1;
 348:Lib/Camera_Middleware/sensors/vd1943/vd1943.c ****   }
 349:Lib/Camera_Middleware/sensors/vd1943/vd1943.c **** 
ARM GAS  C:\Users\DJESSOU\AppData\Local\Temp\cc3eovRL.s 			page 13


 350:Lib/Camera_Middleware/sensors/vd1943/vd1943.c ****   if (ctx->ctx.is_fastboot) {
 351:Lib/Camera_Middleware/sensors/vd1943/vd1943.c ****     ret = ctx->read16(ctx, VD1943_REG_CFA_SELECTION, &reg16);
 352:Lib/Camera_Middleware/sensors/vd1943/vd1943.c ****     VD1943_TraceError(ctx, ret);
 353:Lib/Camera_Middleware/sensors/vd1943/vd1943.c ****     VD1943_dbg(ctx, 0, "optical revision = 0x%04x\n", reg16);
 354:Lib/Camera_Middleware/sensors/vd1943/vd1943.c ****     ctx->ctx.is_mono = (reg16 == VD1943_OPTICAL_MONO);
 355:Lib/Camera_Middleware/sensors/vd1943/vd1943.c ****   } else {
 356:Lib/Camera_Middleware/sensors/vd1943/vd1943.c ****     /* On cut 1.3 it's not possible to differentiate versions */
 357:Lib/Camera_Middleware/sensors/vd1943/vd1943.c **** #ifdef USE_VD5943_SENSOR
 358:Lib/Camera_Middleware/sensors/vd1943/vd1943.c ****     ctx->ctx.is_mono = 1;
 359:Lib/Camera_Middleware/sensors/vd1943/vd1943.c **** #else
 360:Lib/Camera_Middleware/sensors/vd1943/vd1943.c ****     ctx->ctx.is_mono = 0;
 361:Lib/Camera_Middleware/sensors/vd1943/vd1943.c **** #endif
 362:Lib/Camera_Middleware/sensors/vd1943/vd1943.c ****   }
 363:Lib/Camera_Middleware/sensors/vd1943/vd1943.c **** 
 364:Lib/Camera_Middleware/sensors/vd1943/vd1943.c ****   return 0;
 365:Lib/Camera_Middleware/sensors/vd1943/vd1943.c **** }
 366:Lib/Camera_Middleware/sensors/vd1943/vd1943.c **** 
 367:Lib/Camera_Middleware/sensors/vd1943/vd1943.c **** static int VD1943_GoToBootState(VD1943_Ctx_t *ctx)
 368:Lib/Camera_Middleware/sensors/vd1943/vd1943.c **** {
 369:Lib/Camera_Middleware/sensors/vd1943/vd1943.c ****   int ret;
 370:Lib/Camera_Middleware/sensors/vd1943/vd1943.c **** 
 371:Lib/Camera_Middleware/sensors/vd1943/vd1943.c ****   ret = VD1943_ApplyCmdAndWait(ctx, VD1943_REG_SYSTEM_UP, VD1943_CMD_START_SENSOR);
 372:Lib/Camera_Middleware/sensors/vd1943/vd1943.c ****   if (ret)
 373:Lib/Camera_Middleware/sensors/vd1943/vd1943.c ****     return ret;
 374:Lib/Camera_Middleware/sensors/vd1943/vd1943.c **** 
 375:Lib/Camera_Middleware/sensors/vd1943/vd1943.c ****   ret = VD1943_WaitState(ctx, VD1943_BOOT);
 376:Lib/Camera_Middleware/sensors/vd1943/vd1943.c ****   if (ret)
 377:Lib/Camera_Middleware/sensors/vd1943/vd1943.c ****     return ret;
 378:Lib/Camera_Middleware/sensors/vd1943/vd1943.c **** 
 379:Lib/Camera_Middleware/sensors/vd1943/vd1943.c ****   return 0;
 380:Lib/Camera_Middleware/sensors/vd1943/vd1943.c **** }
 381:Lib/Camera_Middleware/sensors/vd1943/vd1943.c **** 
 382:Lib/Camera_Middleware/sensors/vd1943/vd1943.c **** static int VD1943_ApplyCertificate(VD1943_Ctx_t *ctx)
 383:Lib/Camera_Middleware/sensors/vd1943/vd1943.c **** {
 384:Lib/Camera_Middleware/sensors/vd1943/vd1943.c ****   struct drv_vd1943_ctx *drv_vd1943_ctx = &ctx->ctx;
 385:Lib/Camera_Middleware/sensors/vd1943/vd1943.c ****   int ret;
 386:Lib/Camera_Middleware/sensors/vd1943/vd1943.c **** 
 387:Lib/Camera_Middleware/sensors/vd1943/vd1943.c ****   if (drv_vd1943_ctx->is_mono) {
 388:Lib/Camera_Middleware/sensors/vd1943/vd1943.c ****       ret = ctx->write_array(ctx, VD1943_REG_CERTIFICATE_AREA_START_ADDR, (uint8_t *)fw_patch_13_mo
 389:Lib/Camera_Middleware/sensors/vd1943/vd1943.c ****                              sizeof(fw_patch_13_mono_cert));
 390:Lib/Camera_Middleware/sensors/vd1943/vd1943.c ****   } else {
 391:Lib/Camera_Middleware/sensors/vd1943/vd1943.c ****       ret = ctx->write_array(ctx, VD1943_REG_CERTIFICATE_AREA_START_ADDR, (uint8_t *)fw_patch_13_rg
 392:Lib/Camera_Middleware/sensors/vd1943/vd1943.c ****                              sizeof(fw_patch_13_rgbnir_cert));
 393:Lib/Camera_Middleware/sensors/vd1943/vd1943.c ****   }
 394:Lib/Camera_Middleware/sensors/vd1943/vd1943.c ****   VD1943_TraceError(ctx, ret);
 395:Lib/Camera_Middleware/sensors/vd1943/vd1943.c **** 
 396:Lib/Camera_Middleware/sensors/vd1943/vd1943.c ****   ret = VD1943_ApplyCmdAndWait(ctx, VD1943_REG_BOOT, VD1943_CMD_LOAD_CERTIFICATE);
 397:Lib/Camera_Middleware/sensors/vd1943/vd1943.c ****   if (ret)
 398:Lib/Camera_Middleware/sensors/vd1943/vd1943.c ****     return ret;
 399:Lib/Camera_Middleware/sensors/vd1943/vd1943.c **** 
 400:Lib/Camera_Middleware/sensors/vd1943/vd1943.c ****   return 0;
 401:Lib/Camera_Middleware/sensors/vd1943/vd1943.c **** }
 402:Lib/Camera_Middleware/sensors/vd1943/vd1943.c **** 
 403:Lib/Camera_Middleware/sensors/vd1943/vd1943.c **** static int VD1943_ApplyFwPatch(VD1943_Ctx_t *ctx)
 404:Lib/Camera_Middleware/sensors/vd1943/vd1943.c **** {
 405:Lib/Camera_Middleware/sensors/vd1943/vd1943.c ****   struct drv_vd1943_ctx *drv_vd1943_ctx = &ctx->ctx;
 406:Lib/Camera_Middleware/sensors/vd1943/vd1943.c ****   uint16_t reg16;
ARM GAS  C:\Users\DJESSOU\AppData\Local\Temp\cc3eovRL.s 			page 14


 407:Lib/Camera_Middleware/sensors/vd1943/vd1943.c ****   int ret;
 408:Lib/Camera_Middleware/sensors/vd1943/vd1943.c **** 
 409:Lib/Camera_Middleware/sensors/vd1943/vd1943.c ****   if (drv_vd1943_ctx->is_mono) {
 410:Lib/Camera_Middleware/sensors/vd1943/vd1943.c ****       ret = ctx->write_array(ctx, VD1943_REG_FWPATCH_START_ADDR, (uint8_t *)fw_patch_13_mono_array,
 411:Lib/Camera_Middleware/sensors/vd1943/vd1943.c ****                              sizeof(fw_patch_13_mono_array));
 412:Lib/Camera_Middleware/sensors/vd1943/vd1943.c ****   } else {
 413:Lib/Camera_Middleware/sensors/vd1943/vd1943.c ****       ret = ctx->write_array(ctx, VD1943_REG_FWPATCH_START_ADDR, (uint8_t *)fw_patch_13_rgbnir_arra
 414:Lib/Camera_Middleware/sensors/vd1943/vd1943.c ****                              sizeof(fw_patch_13_rgbnir_array));
 415:Lib/Camera_Middleware/sensors/vd1943/vd1943.c ****   }
 416:Lib/Camera_Middleware/sensors/vd1943/vd1943.c ****   VD1943_TraceError(ctx, ret);
 417:Lib/Camera_Middleware/sensors/vd1943/vd1943.c **** 
 418:Lib/Camera_Middleware/sensors/vd1943/vd1943.c ****   ret = VD1943_ApplyCmdAndWait(ctx, VD1943_REG_BOOT, VD1943_CMD_LOAD_FWP);
 419:Lib/Camera_Middleware/sensors/vd1943/vd1943.c ****   if (ret)
 420:Lib/Camera_Middleware/sensors/vd1943/vd1943.c ****     return ret;
 421:Lib/Camera_Middleware/sensors/vd1943/vd1943.c **** 
 422:Lib/Camera_Middleware/sensors/vd1943/vd1943.c ****   ret = ctx->read16(ctx, VD1943_FWPATCH_REVISION, &reg16);
 423:Lib/Camera_Middleware/sensors/vd1943/vd1943.c ****   VD1943_TraceError(ctx, ret);
 424:Lib/Camera_Middleware/sensors/vd1943/vd1943.c ****   VD1943_notice(ctx, "patch = %d.%d\n", reg16 >> 8, reg16 & 0xff);
 425:Lib/Camera_Middleware/sensors/vd1943/vd1943.c **** 
 426:Lib/Camera_Middleware/sensors/vd1943/vd1943.c ****   return 0;
 427:Lib/Camera_Middleware/sensors/vd1943/vd1943.c **** }
 428:Lib/Camera_Middleware/sensors/vd1943/vd1943.c **** 
 429:Lib/Camera_Middleware/sensors/vd1943/vd1943.c **** static int VD1943_GoToStandbyState(VD1943_Ctx_t *ctx)
 430:Lib/Camera_Middleware/sensors/vd1943/vd1943.c **** {
 431:Lib/Camera_Middleware/sensors/vd1943/vd1943.c ****   struct drv_vd1943_ctx *drv_vd1943_ctx = &ctx->ctx;
 432:Lib/Camera_Middleware/sensors/vd1943/vd1943.c ****   int ret;
 433:Lib/Camera_Middleware/sensors/vd1943/vd1943.c **** 
 434:Lib/Camera_Middleware/sensors/vd1943/vd1943.c ****   /* Need to setup input clock before boot */
 435:Lib/Camera_Middleware/sensors/vd1943/vd1943.c ****   ret = ctx->write32(ctx, VD1943_REG_EXT_CLOCK, drv_vd1943_ctx->config_save.ext_clock_freq_in_hz);
 436:Lib/Camera_Middleware/sensors/vd1943/vd1943.c ****   VD1943_TraceError(ctx, ret);
 437:Lib/Camera_Middleware/sensors/vd1943/vd1943.c **** 
 438:Lib/Camera_Middleware/sensors/vd1943/vd1943.c ****   ret = VD1943_ApplyCmdAndWait(ctx, VD1943_REG_BOOT, VD1943_CMD_END_BOOT);
 439:Lib/Camera_Middleware/sensors/vd1943/vd1943.c ****   if (ret)
 440:Lib/Camera_Middleware/sensors/vd1943/vd1943.c ****     return ret;
 441:Lib/Camera_Middleware/sensors/vd1943/vd1943.c **** 
 442:Lib/Camera_Middleware/sensors/vd1943/vd1943.c ****   ret = VD1943_WaitState(ctx, VD1943_SW_STBY);
 443:Lib/Camera_Middleware/sensors/vd1943/vd1943.c ****   if (ret)
 444:Lib/Camera_Middleware/sensors/vd1943/vd1943.c ****     return ret;
 445:Lib/Camera_Middleware/sensors/vd1943/vd1943.c **** 
 446:Lib/Camera_Middleware/sensors/vd1943/vd1943.c ****   return 0;
 447:Lib/Camera_Middleware/sensors/vd1943/vd1943.c **** }
 448:Lib/Camera_Middleware/sensors/vd1943/vd1943.c **** 
 449:Lib/Camera_Middleware/sensors/vd1943/vd1943.c **** static int VD1943_ApplyVTPatch(VD1943_Ctx_t *ctx)
 450:Lib/Camera_Middleware/sensors/vd1943/vd1943.c **** {
 451:Lib/Camera_Middleware/sensors/vd1943/vd1943.c ****   int ret;
 452:Lib/Camera_Middleware/sensors/vd1943/vd1943.c **** 
 453:Lib/Camera_Middleware/sensors/vd1943/vd1943.c ****   ret = VD1943_ApplyCmdAndWait(ctx, VD1943_REG_SW_STBY, VD1943_CMD_UPDATE_VT_RAM_START);
 454:Lib/Camera_Middleware/sensors/vd1943/vd1943.c ****   if (ret)
 455:Lib/Camera_Middleware/sensors/vd1943/vd1943.c ****     return ret;
 456:Lib/Camera_Middleware/sensors/vd1943/vd1943.c **** 
 457:Lib/Camera_Middleware/sensors/vd1943/vd1943.c ****   ret = ctx->write_array(ctx, 0x5bc0, (uint8_t *) gt_ram_pat_content, sizeof(gt_ram_pat_content));
 458:Lib/Camera_Middleware/sensors/vd1943/vd1943.c ****   VD1943_TraceError(ctx, ret);
 459:Lib/Camera_Middleware/sensors/vd1943/vd1943.c **** 
 460:Lib/Camera_Middleware/sensors/vd1943/vd1943.c ****   ret = ctx->write_array(ctx, 0x5e40, (uint8_t *) gt_ram_seq1_content, sizeof(gt_ram_seq1_content))
 461:Lib/Camera_Middleware/sensors/vd1943/vd1943.c ****   VD1943_TraceError(ctx, ret);
 462:Lib/Camera_Middleware/sensors/vd1943/vd1943.c **** 
 463:Lib/Camera_Middleware/sensors/vd1943/vd1943.c ****   ret = ctx->write_array(ctx, 0x5f80, (uint8_t *) gt_ram_seq2_content, sizeof(gt_ram_seq2_content))
ARM GAS  C:\Users\DJESSOU\AppData\Local\Temp\cc3eovRL.s 			page 15


 464:Lib/Camera_Middleware/sensors/vd1943/vd1943.c ****   VD1943_TraceError(ctx, ret);
 465:Lib/Camera_Middleware/sensors/vd1943/vd1943.c **** 
 466:Lib/Camera_Middleware/sensors/vd1943/vd1943.c ****   ret = ctx->write_array(ctx, 0x60c0, (uint8_t *) gt_ram_seq3_content, sizeof(gt_ram_seq3_content))
 467:Lib/Camera_Middleware/sensors/vd1943/vd1943.c ****   VD1943_TraceError(ctx, ret);
 468:Lib/Camera_Middleware/sensors/vd1943/vd1943.c **** 
 469:Lib/Camera_Middleware/sensors/vd1943/vd1943.c ****   ret = ctx->write_array(ctx, 0x6160, (uint8_t *) gt_ram_seq4_content, sizeof(gt_ram_seq4_content))
 470:Lib/Camera_Middleware/sensors/vd1943/vd1943.c ****   VD1943_TraceError(ctx, ret);
 471:Lib/Camera_Middleware/sensors/vd1943/vd1943.c **** 
 472:Lib/Camera_Middleware/sensors/vd1943/vd1943.c ****   ret = ctx->write_array(ctx, 0x6ac0, (uint8_t *) rd_ram_pat_content, sizeof(rd_ram_pat_content));
 473:Lib/Camera_Middleware/sensors/vd1943/vd1943.c ****   VD1943_TraceError(ctx, ret);
 474:Lib/Camera_Middleware/sensors/vd1943/vd1943.c **** 
 475:Lib/Camera_Middleware/sensors/vd1943/vd1943.c ****   ret = ctx->write_array(ctx, 0x5000, (uint8_t *) rd_ram_seq1_content, sizeof(rd_ram_seq1_content))
 476:Lib/Camera_Middleware/sensors/vd1943/vd1943.c ****   VD1943_TraceError(ctx, ret);
 477:Lib/Camera_Middleware/sensors/vd1943/vd1943.c **** 
 478:Lib/Camera_Middleware/sensors/vd1943/vd1943.c ****   ret = VD1943_ApplyCmdAndWait(ctx, VD1943_REG_SW_STBY, VD1943_CMD_UPDATE_VT_RAM_END);
 479:Lib/Camera_Middleware/sensors/vd1943/vd1943.c ****   if (ret)
 480:Lib/Camera_Middleware/sensors/vd1943/vd1943.c ****     return ret;
 481:Lib/Camera_Middleware/sensors/vd1943/vd1943.c **** 
 482:Lib/Camera_Middleware/sensors/vd1943/vd1943.c ****   return 0;
 483:Lib/Camera_Middleware/sensors/vd1943/vd1943.c **** }
 484:Lib/Camera_Middleware/sensors/vd1943/vd1943.c **** 
 485:Lib/Camera_Middleware/sensors/vd1943/vd1943.c **** static int VD1943_SetDigitalGain_RGB(VD1943_Ctx_t *ctx, unsigned int gain)
 486:Lib/Camera_Middleware/sensors/vd1943/vd1943.c **** {
 487:Lib/Camera_Middleware/sensors/vd1943/vd1943.c ****   int ret;
 488:Lib/Camera_Middleware/sensors/vd1943/vd1943.c **** 
 489:Lib/Camera_Middleware/sensors/vd1943/vd1943.c ****   ret = ctx->write16(ctx, VD1943_DIGITAL_GAIN_R(0), gain);
 490:Lib/Camera_Middleware/sensors/vd1943/vd1943.c ****   VD1943_TraceError(ctx, ret);
 491:Lib/Camera_Middleware/sensors/vd1943/vd1943.c ****   ret = ctx->write16(ctx, VD1943_DIGITAL_GAIN_G(0), gain);
 492:Lib/Camera_Middleware/sensors/vd1943/vd1943.c ****   VD1943_TraceError(ctx, ret);
 493:Lib/Camera_Middleware/sensors/vd1943/vd1943.c ****   ret = ctx->write16(ctx, VD1943_DIGITAL_GAIN_B(0), gain);
 494:Lib/Camera_Middleware/sensors/vd1943/vd1943.c ****   VD1943_TraceError(ctx, ret);
 495:Lib/Camera_Middleware/sensors/vd1943/vd1943.c **** 
 496:Lib/Camera_Middleware/sensors/vd1943/vd1943.c ****   return 0;
 497:Lib/Camera_Middleware/sensors/vd1943/vd1943.c **** }
 498:Lib/Camera_Middleware/sensors/vd1943/vd1943.c **** 
 499:Lib/Camera_Middleware/sensors/vd1943/vd1943.c **** static int VD1943_SetDigitalGain_IR(VD1943_Ctx_t *ctx, unsigned int gain)
 500:Lib/Camera_Middleware/sensors/vd1943/vd1943.c **** {
 501:Lib/Camera_Middleware/sensors/vd1943/vd1943.c ****   int ret;
 502:Lib/Camera_Middleware/sensors/vd1943/vd1943.c **** 
 503:Lib/Camera_Middleware/sensors/vd1943/vd1943.c ****   ret = ctx->write16(ctx, VD1943_DIGITAL_GAIN_IR(0), gain);
 504:Lib/Camera_Middleware/sensors/vd1943/vd1943.c ****   VD1943_TraceError(ctx, ret);
 505:Lib/Camera_Middleware/sensors/vd1943/vd1943.c **** 
 506:Lib/Camera_Middleware/sensors/vd1943/vd1943.c ****   return 0;
 507:Lib/Camera_Middleware/sensors/vd1943/vd1943.c **** }
 508:Lib/Camera_Middleware/sensors/vd1943/vd1943.c **** 
 509:Lib/Camera_Middleware/sensors/vd1943/vd1943.c **** static int VD1943_SetDigitalGain_RGBNIR(VD1943_Ctx_t *ctx, unsigned int gain)
 510:Lib/Camera_Middleware/sensors/vd1943/vd1943.c **** {
 511:Lib/Camera_Middleware/sensors/vd1943/vd1943.c ****   int ret;
 512:Lib/Camera_Middleware/sensors/vd1943/vd1943.c **** 
 513:Lib/Camera_Middleware/sensors/vd1943/vd1943.c ****   ret = VD1943_SetDigitalGain_RGB(ctx, gain);
 514:Lib/Camera_Middleware/sensors/vd1943/vd1943.c ****   if (ret)
 515:Lib/Camera_Middleware/sensors/vd1943/vd1943.c ****     return ret;
 516:Lib/Camera_Middleware/sensors/vd1943/vd1943.c ****   ret = VD1943_SetDigitalGain_IR(ctx, gain);
 517:Lib/Camera_Middleware/sensors/vd1943/vd1943.c ****   if (ret)
 518:Lib/Camera_Middleware/sensors/vd1943/vd1943.c ****     return ret;
 519:Lib/Camera_Middleware/sensors/vd1943/vd1943.c **** 
 520:Lib/Camera_Middleware/sensors/vd1943/vd1943.c ****   return 0;
ARM GAS  C:\Users\DJESSOU\AppData\Local\Temp\cc3eovRL.s 			page 16


 521:Lib/Camera_Middleware/sensors/vd1943/vd1943.c **** }
 522:Lib/Camera_Middleware/sensors/vd1943/vd1943.c **** 
 523:Lib/Camera_Middleware/sensors/vd1943/vd1943.c **** static int VD1943_GetExpoCommon(VD1943_Ctx_t *ctx, unsigned int *expo_in_us)
 524:Lib/Camera_Middleware/sensors/vd1943/vd1943.c **** {
 525:Lib/Camera_Middleware/sensors/vd1943/vd1943.c ****   uint16_t reg16;
 526:Lib/Camera_Middleware/sensors/vd1943/vd1943.c ****   int ret;
 527:Lib/Camera_Middleware/sensors/vd1943/vd1943.c **** 
 528:Lib/Camera_Middleware/sensors/vd1943/vd1943.c ****   ret = ctx->read16(ctx, VD1943_REG_INTEGRATION_TIME_PRIMARY(0), &reg16);
 529:Lib/Camera_Middleware/sensors/vd1943/vd1943.c ****   VD1943_TraceError(ctx, ret);
 530:Lib/Camera_Middleware/sensors/vd1943/vd1943.c ****   *expo_in_us = (reg16 * VD1943_LINE_TIME_IN_NS) / 1000;
 531:Lib/Camera_Middleware/sensors/vd1943/vd1943.c **** 
 532:Lib/Camera_Middleware/sensors/vd1943/vd1943.c ****   return 0;
 533:Lib/Camera_Middleware/sensors/vd1943/vd1943.c **** }
 534:Lib/Camera_Middleware/sensors/vd1943/vd1943.c **** 
 535:Lib/Camera_Middleware/sensors/vd1943/vd1943.c **** static int VD1943_SetExpo_GS(VD1943_Ctx_t *ctx, unsigned int expo_in_us)
 536:Lib/Camera_Middleware/sensors/vd1943/vd1943.c **** {
 537:Lib/Camera_Middleware/sensors/vd1943/vd1943.c ****   unsigned int expo_in_line = (expo_in_us * 1000 + VD1943_LINE_TIME_IN_NS - 1) / VD1943_LINE_TIME_I
 538:Lib/Camera_Middleware/sensors/vd1943/vd1943.c ****   int ret;
 539:Lib/Camera_Middleware/sensors/vd1943/vd1943.c **** 
 540:Lib/Camera_Middleware/sensors/vd1943/vd1943.c ****   if (expo_in_line < 4)
 541:Lib/Camera_Middleware/sensors/vd1943/vd1943.c ****     return -1;
 542:Lib/Camera_Middleware/sensors/vd1943/vd1943.c **** 
 543:Lib/Camera_Middleware/sensors/vd1943/vd1943.c ****   ret = ctx->write16(ctx, VD1943_REG_INTEGRATION_TIME_PRIMARY(0), expo_in_line);
 544:Lib/Camera_Middleware/sensors/vd1943/vd1943.c ****   VD1943_TraceError(ctx, ret);
 545:Lib/Camera_Middleware/sensors/vd1943/vd1943.c **** 
 546:Lib/Camera_Middleware/sensors/vd1943/vd1943.c ****   return 0;
 547:Lib/Camera_Middleware/sensors/vd1943/vd1943.c **** }
 548:Lib/Camera_Middleware/sensors/vd1943/vd1943.c **** 
 549:Lib/Camera_Middleware/sensors/vd1943/vd1943.c **** static int VD1943_SetExpoSplit_GS(VD1943_Ctx_t *ctx, unsigned int expo_in_us)
 550:Lib/Camera_Middleware/sensors/vd1943/vd1943.c **** {
 551:Lib/Camera_Middleware/sensors/vd1943/vd1943.c ****   unsigned int expo_in_line = (expo_in_us * 1000 + VD1943_LINE_TIME_IN_NS - 1) / VD1943_LINE_TIME_I
 552:Lib/Camera_Middleware/sensors/vd1943/vd1943.c ****   int ret;
 553:Lib/Camera_Middleware/sensors/vd1943/vd1943.c **** 
 554:Lib/Camera_Middleware/sensors/vd1943/vd1943.c ****   if (expo_in_line < 4)
 555:Lib/Camera_Middleware/sensors/vd1943/vd1943.c ****     return -1;
 556:Lib/Camera_Middleware/sensors/vd1943/vd1943.c **** 
 557:Lib/Camera_Middleware/sensors/vd1943/vd1943.c ****   ret = ctx->write16(ctx, VD1943_REG_INTEGRATION_TIME_PRIMARY(0), expo_in_line);
 558:Lib/Camera_Middleware/sensors/vd1943/vd1943.c ****   VD1943_TraceError(ctx, ret);
 559:Lib/Camera_Middleware/sensors/vd1943/vd1943.c **** 
 560:Lib/Camera_Middleware/sensors/vd1943/vd1943.c ****   ret = ctx->write16(ctx, VD1943_REG_INTEGRATION_TIME_IR(0), expo_in_line);
 561:Lib/Camera_Middleware/sensors/vd1943/vd1943.c ****   VD1943_TraceError(ctx, ret);
 562:Lib/Camera_Middleware/sensors/vd1943/vd1943.c **** 
 563:Lib/Camera_Middleware/sensors/vd1943/vd1943.c ****   return 0;
 564:Lib/Camera_Middleware/sensors/vd1943/vd1943.c **** }
 565:Lib/Camera_Middleware/sensors/vd1943/vd1943.c **** 
 566:Lib/Camera_Middleware/sensors/vd1943/vd1943.c **** static int VD1943_GetExpo_GS(VD1943_Ctx_t *ctx, unsigned int *expo_in_us)
 567:Lib/Camera_Middleware/sensors/vd1943/vd1943.c **** {
 568:Lib/Camera_Middleware/sensors/vd1943/vd1943.c ****   return VD1943_GetExpoCommon(ctx, expo_in_us);
 569:Lib/Camera_Middleware/sensors/vd1943/vd1943.c **** }
 570:Lib/Camera_Middleware/sensors/vd1943/vd1943.c **** 
 571:Lib/Camera_Middleware/sensors/vd1943/vd1943.c **** static int VD1943_SetExpo_RS(VD1943_Ctx_t *ctx, unsigned int expo_in_us)
 572:Lib/Camera_Middleware/sensors/vd1943/vd1943.c **** {
 573:Lib/Camera_Middleware/sensors/vd1943/vd1943.c ****   unsigned int expo_in_line = (expo_in_us * 1000 + VD1943_LINE_TIME_IN_NS - 1) / VD1943_LINE_TIME_I
 574:Lib/Camera_Middleware/sensors/vd1943/vd1943.c ****   int ret;
 575:Lib/Camera_Middleware/sensors/vd1943/vd1943.c **** 
 576:Lib/Camera_Middleware/sensors/vd1943/vd1943.c ****   if (expo_in_line < 2)
 577:Lib/Camera_Middleware/sensors/vd1943/vd1943.c ****     return -1;
ARM GAS  C:\Users\DJESSOU\AppData\Local\Temp\cc3eovRL.s 			page 17


 578:Lib/Camera_Middleware/sensors/vd1943/vd1943.c **** 
 579:Lib/Camera_Middleware/sensors/vd1943/vd1943.c ****   ret = ctx->write16(ctx, VD1943_REG_INTEGRATION_TIME_PRIMARY(0), expo_in_line);
 580:Lib/Camera_Middleware/sensors/vd1943/vd1943.c ****   VD1943_TraceError(ctx, ret);
 581:Lib/Camera_Middleware/sensors/vd1943/vd1943.c **** 
 582:Lib/Camera_Middleware/sensors/vd1943/vd1943.c ****   return 0;
 583:Lib/Camera_Middleware/sensors/vd1943/vd1943.c **** }
 584:Lib/Camera_Middleware/sensors/vd1943/vd1943.c **** 
 585:Lib/Camera_Middleware/sensors/vd1943/vd1943.c **** static int VD1943_GetExpo_RS(VD1943_Ctx_t *ctx, unsigned int *expo_in_us)
 586:Lib/Camera_Middleware/sensors/vd1943/vd1943.c **** {
 587:Lib/Camera_Middleware/sensors/vd1943/vd1943.c ****   return VD1943_GetExpoCommon(ctx, expo_in_us);
 588:Lib/Camera_Middleware/sensors/vd1943/vd1943.c **** }
 589:Lib/Camera_Middleware/sensors/vd1943/vd1943.c **** 
 590:Lib/Camera_Middleware/sensors/vd1943/vd1943.c **** static int VD1943_SetExpo_RS_HDR(VD1943_Ctx_t *ctx, unsigned int expo_in_us)
 591:Lib/Camera_Middleware/sensors/vd1943/vd1943.c **** {
 592:Lib/Camera_Middleware/sensors/vd1943/vd1943.c ****   /* we use a short expo ratio of 1/20 */
 593:Lib/Camera_Middleware/sensors/vd1943/vd1943.c ****   unsigned int expo_short_in_line = (expo_in_us * 50 + VD1943_LINE_TIME_IN_NS - 1) / VD1943_LINE_TI
 594:Lib/Camera_Middleware/sensors/vd1943/vd1943.c ****   int ret;
 595:Lib/Camera_Middleware/sensors/vd1943/vd1943.c **** 
 596:Lib/Camera_Middleware/sensors/vd1943/vd1943.c ****   ret = VD1943_SetExpo_RS(ctx, expo_in_us);
 597:Lib/Camera_Middleware/sensors/vd1943/vd1943.c ****   if (ret)
 598:Lib/Camera_Middleware/sensors/vd1943/vd1943.c ****     return ret;
 599:Lib/Camera_Middleware/sensors/vd1943/vd1943.c **** 
 600:Lib/Camera_Middleware/sensors/vd1943/vd1943.c ****   expo_short_in_line = MAX(2, expo_short_in_line);
 601:Lib/Camera_Middleware/sensors/vd1943/vd1943.c ****   ret = ctx->write16(ctx, VD1943_REG_INTEGRATION_TIME_SHORT(0), expo_short_in_line);
 602:Lib/Camera_Middleware/sensors/vd1943/vd1943.c ****   VD1943_TraceError(ctx, ret);
 603:Lib/Camera_Middleware/sensors/vd1943/vd1943.c **** 
 604:Lib/Camera_Middleware/sensors/vd1943/vd1943.c ****   return 0;
 605:Lib/Camera_Middleware/sensors/vd1943/vd1943.c **** }
 606:Lib/Camera_Middleware/sensors/vd1943/vd1943.c **** 
 607:Lib/Camera_Middleware/sensors/vd1943/vd1943.c **** static int VD1943_SetBayerType_RGB(VD1943_Ctx_t *ctx)
 608:Lib/Camera_Middleware/sensors/vd1943/vd1943.c **** {
 609:Lib/Camera_Middleware/sensors/vd1943/vd1943.c ****   struct drv_vd1943_ctx *drv_vd1943_ctx = &ctx->ctx;
 610:Lib/Camera_Middleware/sensors/vd1943/vd1943.c **** 
 611:Lib/Camera_Middleware/sensors/vd1943/vd1943.c ****   switch (drv_vd1943_ctx->config_save.flip_mirror_mode) {
 612:Lib/Camera_Middleware/sensors/vd1943/vd1943.c ****   case VD1943_MIRROR_FLIP_NONE:
 613:Lib/Camera_Middleware/sensors/vd1943/vd1943.c ****     ctx->bayer = VD1943_BAYER_GBRG;
 614:Lib/Camera_Middleware/sensors/vd1943/vd1943.c ****     break;
 615:Lib/Camera_Middleware/sensors/vd1943/vd1943.c ****   case VD1943_FLIP:
 616:Lib/Camera_Middleware/sensors/vd1943/vd1943.c ****     ctx->bayer = VD1943_BAYER_RGGB;
 617:Lib/Camera_Middleware/sensors/vd1943/vd1943.c ****     break;
 618:Lib/Camera_Middleware/sensors/vd1943/vd1943.c ****   case VD1943_MIRROR:
 619:Lib/Camera_Middleware/sensors/vd1943/vd1943.c ****     ctx->bayer = VD1943_BAYER_BGGR;
 620:Lib/Camera_Middleware/sensors/vd1943/vd1943.c ****     break;
 621:Lib/Camera_Middleware/sensors/vd1943/vd1943.c ****   case VD1943_MIRROR_FLIP:
 622:Lib/Camera_Middleware/sensors/vd1943/vd1943.c ****     ctx->bayer = VD1943_BAYER_GBRG;
 623:Lib/Camera_Middleware/sensors/vd1943/vd1943.c ****     break;
 624:Lib/Camera_Middleware/sensors/vd1943/vd1943.c ****   default:
 625:Lib/Camera_Middleware/sensors/vd1943/vd1943.c ****     assert(0);
 626:Lib/Camera_Middleware/sensors/vd1943/vd1943.c ****   }
 627:Lib/Camera_Middleware/sensors/vd1943/vd1943.c **** 
 628:Lib/Camera_Middleware/sensors/vd1943/vd1943.c ****   return 0;
 629:Lib/Camera_Middleware/sensors/vd1943/vd1943.c **** }
 630:Lib/Camera_Middleware/sensors/vd1943/vd1943.c **** 
 631:Lib/Camera_Middleware/sensors/vd1943/vd1943.c **** static int VD1943_SetBayerType_RGBNIR(VD1943_Ctx_t *ctx)
 632:Lib/Camera_Middleware/sensors/vd1943/vd1943.c **** {
 633:Lib/Camera_Middleware/sensors/vd1943/vd1943.c ****   struct drv_vd1943_ctx *drv_vd1943_ctx = &ctx->ctx;
 634:Lib/Camera_Middleware/sensors/vd1943/vd1943.c **** 
ARM GAS  C:\Users\DJESSOU\AppData\Local\Temp\cc3eovRL.s 			page 18


 635:Lib/Camera_Middleware/sensors/vd1943/vd1943.c ****   switch (drv_vd1943_ctx->config_save.flip_mirror_mode) {
 636:Lib/Camera_Middleware/sensors/vd1943/vd1943.c ****   case VD1943_MIRROR_FLIP_NONE:
 637:Lib/Camera_Middleware/sensors/vd1943/vd1943.c ****     ctx->bayer = VD1943_BAYER_RGBNIR;
 638:Lib/Camera_Middleware/sensors/vd1943/vd1943.c ****     break;
 639:Lib/Camera_Middleware/sensors/vd1943/vd1943.c ****   case VD1943_FLIP:
 640:Lib/Camera_Middleware/sensors/vd1943/vd1943.c ****     ctx->bayer = VD1943_BAYER_RGBNIR_FLIP;
 641:Lib/Camera_Middleware/sensors/vd1943/vd1943.c ****     break;
 642:Lib/Camera_Middleware/sensors/vd1943/vd1943.c ****   case VD1943_MIRROR:
 643:Lib/Camera_Middleware/sensors/vd1943/vd1943.c ****     ctx->bayer = VD1943_BAYER_RGBNIR_MIRROR;
 644:Lib/Camera_Middleware/sensors/vd1943/vd1943.c ****     break;
 645:Lib/Camera_Middleware/sensors/vd1943/vd1943.c ****   case VD1943_MIRROR_FLIP:
 646:Lib/Camera_Middleware/sensors/vd1943/vd1943.c ****     ctx->bayer = VD1943_BAYER_RGBNIR_FLIP_MIRROR;
 647:Lib/Camera_Middleware/sensors/vd1943/vd1943.c ****     break;
 648:Lib/Camera_Middleware/sensors/vd1943/vd1943.c ****   default:
 649:Lib/Camera_Middleware/sensors/vd1943/vd1943.c ****     assert(0);
 650:Lib/Camera_Middleware/sensors/vd1943/vd1943.c ****   }
 651:Lib/Camera_Middleware/sensors/vd1943/vd1943.c **** 
 652:Lib/Camera_Middleware/sensors/vd1943/vd1943.c ****   return 0;
 653:Lib/Camera_Middleware/sensors/vd1943/vd1943.c **** }
 654:Lib/Camera_Middleware/sensors/vd1943/vd1943.c **** 
 655:Lib/Camera_Middleware/sensors/vd1943/vd1943.c **** static int VD1943_SetBayerType(VD1943_Ctx_t *ctx)
 656:Lib/Camera_Middleware/sensors/vd1943/vd1943.c **** {
 657:Lib/Camera_Middleware/sensors/vd1943/vd1943.c ****   struct drv_vd1943_ctx *drv_vd1943_ctx = &ctx->ctx;
 658:Lib/Camera_Middleware/sensors/vd1943/vd1943.c **** 
 659:Lib/Camera_Middleware/sensors/vd1943/vd1943.c ****   if (drv_vd1943_ctx->is_mono)
 660:Lib/Camera_Middleware/sensors/vd1943/vd1943.c ****     // Monochrom variant, force Bayer None (= Mono)  
 661:Lib/Camera_Middleware/sensors/vd1943/vd1943.c ****     return VD1943_BAYER_NONE;
 662:Lib/Camera_Middleware/sensors/vd1943/vd1943.c **** 
 663:Lib/Camera_Middleware/sensors/vd1943/vd1943.c ****   switch (drv_vd1943_ctx->config_save.image_processing_mode) {
 664:Lib/Camera_Middleware/sensors/vd1943/vd1943.c ****   case VD1943_GS_SS1_RGB_8:
 665:Lib/Camera_Middleware/sensors/vd1943/vd1943.c ****   case VD1943_GS_SS1_RGB_10:
 666:Lib/Camera_Middleware/sensors/vd1943/vd1943.c ****   case VD1943_RS_SDR_RGB_8:
 667:Lib/Camera_Middleware/sensors/vd1943/vd1943.c ****   case VD1943_RS_SDR_RGB_10:
 668:Lib/Camera_Middleware/sensors/vd1943/vd1943.c ****   case VD1943_RS_SDR_RGB_12:
 669:Lib/Camera_Middleware/sensors/vd1943/vd1943.c ****   case VD1943_RS_HDR_RGB_10:
 670:Lib/Camera_Middleware/sensors/vd1943/vd1943.c ****   case VD1943_RS_HDR_RGB_12:
 671:Lib/Camera_Middleware/sensors/vd1943/vd1943.c ****     return VD1943_SetBayerType_RGB(ctx);
 672:Lib/Camera_Middleware/sensors/vd1943/vd1943.c ****     break;
 673:Lib/Camera_Middleware/sensors/vd1943/vd1943.c ****   case VD1943_GS_SS1_NATIVE_8:
 674:Lib/Camera_Middleware/sensors/vd1943/vd1943.c ****   case VD1943_GS_SS1_NATIVE_10:
 675:Lib/Camera_Middleware/sensors/vd1943/vd1943.c ****   case VD1943_GS_SS1_SPLIT_NATIVE_8:
 676:Lib/Camera_Middleware/sensors/vd1943/vd1943.c ****   case VD1943_GS_SS1_SPLIT_NATIVE_10:
 677:Lib/Camera_Middleware/sensors/vd1943/vd1943.c ****   case VD1943_RS_SDR_NATIVE_8:
 678:Lib/Camera_Middleware/sensors/vd1943/vd1943.c ****   case VD1943_RS_SDR_NATIVE_10:
 679:Lib/Camera_Middleware/sensors/vd1943/vd1943.c ****   case VD1943_RS_SDR_NATIVE_12:
 680:Lib/Camera_Middleware/sensors/vd1943/vd1943.c ****   case VD1943_RS_HDR_NATIVE_10:
 681:Lib/Camera_Middleware/sensors/vd1943/vd1943.c ****   case VD1943_RS_HDR_NATIVE_12:
 682:Lib/Camera_Middleware/sensors/vd1943/vd1943.c ****     return VD1943_SetBayerType_RGBNIR(ctx);
 683:Lib/Camera_Middleware/sensors/vd1943/vd1943.c ****     break;
 684:Lib/Camera_Middleware/sensors/vd1943/vd1943.c ****   case VD1943_GS_SS1_IR_8:
 685:Lib/Camera_Middleware/sensors/vd1943/vd1943.c ****   case VD1943_GS_SS1_IR_10:
 686:Lib/Camera_Middleware/sensors/vd1943/vd1943.c ****   case VD1943_GS_SS1_SPLIT_IR_8:
 687:Lib/Camera_Middleware/sensors/vd1943/vd1943.c ****   case VD1943_GS_SS1_SPLIT_IR_10:
 688:Lib/Camera_Middleware/sensors/vd1943/vd1943.c ****   case VD1943_GS_SS2_MONO_8:
 689:Lib/Camera_Middleware/sensors/vd1943/vd1943.c ****   case VD1943_GS_SS2_MONO_10:
 690:Lib/Camera_Middleware/sensors/vd1943/vd1943.c ****   case VD1943_GS_SS4_MONO_8:
 691:Lib/Camera_Middleware/sensors/vd1943/vd1943.c ****   case VD1943_GS_SS4_MONO_10:
ARM GAS  C:\Users\DJESSOU\AppData\Local\Temp\cc3eovRL.s 			page 19


 692:Lib/Camera_Middleware/sensors/vd1943/vd1943.c ****   case VD1943_GS_SS32_MONO_8:
 693:Lib/Camera_Middleware/sensors/vd1943/vd1943.c ****   case VD1943_GS_SS32_MONO_10:
 694:Lib/Camera_Middleware/sensors/vd1943/vd1943.c ****     return VD1943_BAYER_NONE;
 695:Lib/Camera_Middleware/sensors/vd1943/vd1943.c ****   default:
 696:Lib/Camera_Middleware/sensors/vd1943/vd1943.c ****     assert(0);
 697:Lib/Camera_Middleware/sensors/vd1943/vd1943.c ****   }
 698:Lib/Camera_Middleware/sensors/vd1943/vd1943.c **** 
 699:Lib/Camera_Middleware/sensors/vd1943/vd1943.c ****   return 0;
 700:Lib/Camera_Middleware/sensors/vd1943/vd1943.c **** }
 701:Lib/Camera_Middleware/sensors/vd1943/vd1943.c **** 
 702:Lib/Camera_Middleware/sensors/vd1943/vd1943.c **** static int VD1943_GetSubSamplingFactor(VD1943_Ctx_t *ctx, int *ss_factor)
 703:Lib/Camera_Middleware/sensors/vd1943/vd1943.c **** {
 704:Lib/Camera_Middleware/sensors/vd1943/vd1943.c ****   struct drv_vd1943_ctx *drv_vd1943_ctx = &ctx->ctx;
 705:Lib/Camera_Middleware/sensors/vd1943/vd1943.c **** 
 706:Lib/Camera_Middleware/sensors/vd1943/vd1943.c ****   switch (drv_vd1943_ctx->config_save.image_processing_mode) {
 707:Lib/Camera_Middleware/sensors/vd1943/vd1943.c ****   case VD1943_GS_SS32_MONO_8:
 708:Lib/Camera_Middleware/sensors/vd1943/vd1943.c ****   case VD1943_GS_SS32_MONO_10:
 709:Lib/Camera_Middleware/sensors/vd1943/vd1943.c ****     *ss_factor = 32;
 710:Lib/Camera_Middleware/sensors/vd1943/vd1943.c ****     break;
 711:Lib/Camera_Middleware/sensors/vd1943/vd1943.c ****   case VD1943_GS_SS2_MONO_8:
 712:Lib/Camera_Middleware/sensors/vd1943/vd1943.c ****   case VD1943_GS_SS2_MONO_10:
 713:Lib/Camera_Middleware/sensors/vd1943/vd1943.c ****     *ss_factor = 2;
 714:Lib/Camera_Middleware/sensors/vd1943/vd1943.c ****     break;
 715:Lib/Camera_Middleware/sensors/vd1943/vd1943.c ****   case VD1943_GS_SS4_MONO_8:
 716:Lib/Camera_Middleware/sensors/vd1943/vd1943.c ****   case VD1943_GS_SS4_MONO_10:
 717:Lib/Camera_Middleware/sensors/vd1943/vd1943.c ****     *ss_factor = 4;
 718:Lib/Camera_Middleware/sensors/vd1943/vd1943.c ****     break;
 719:Lib/Camera_Middleware/sensors/vd1943/vd1943.c ****   default:
 720:Lib/Camera_Middleware/sensors/vd1943/vd1943.c ****     *ss_factor = 1;
 721:Lib/Camera_Middleware/sensors/vd1943/vd1943.c ****   }
 722:Lib/Camera_Middleware/sensors/vd1943/vd1943.c **** 
 723:Lib/Camera_Middleware/sensors/vd1943/vd1943.c ****   return 0;
 724:Lib/Camera_Middleware/sensors/vd1943/vd1943.c **** }
 725:Lib/Camera_Middleware/sensors/vd1943/vd1943.c **** 
 726:Lib/Camera_Middleware/sensors/vd1943/vd1943.c **** static int VD1943_Boot(VD1943_Ctx_t *ctx)
 727:Lib/Camera_Middleware/sensors/vd1943/vd1943.c **** {
 728:Lib/Camera_Middleware/sensors/vd1943/vd1943.c ****   int ret;
 729:Lib/Camera_Middleware/sensors/vd1943/vd1943.c **** 
 730:Lib/Camera_Middleware/sensors/vd1943/vd1943.c ****   ret = VD1943_WaitState(ctx, VD1943_SYSTEM_UP);
 731:Lib/Camera_Middleware/sensors/vd1943/vd1943.c ****   if (ret)
 732:Lib/Camera_Middleware/sensors/vd1943/vd1943.c ****     return ret;
 733:Lib/Camera_Middleware/sensors/vd1943/vd1943.c **** 
 734:Lib/Camera_Middleware/sensors/vd1943/vd1943.c ****   ret = VD1943_CheckModelId(ctx);
 735:Lib/Camera_Middleware/sensors/vd1943/vd1943.c ****   if (ret)
 736:Lib/Camera_Middleware/sensors/vd1943/vd1943.c ****     return ret;
 737:Lib/Camera_Middleware/sensors/vd1943/vd1943.c **** 
 738:Lib/Camera_Middleware/sensors/vd1943/vd1943.c ****   ret = VD1943_GoToBootState(ctx);
 739:Lib/Camera_Middleware/sensors/vd1943/vd1943.c ****   if (ret)
 740:Lib/Camera_Middleware/sensors/vd1943/vd1943.c ****     return ret;
 741:Lib/Camera_Middleware/sensors/vd1943/vd1943.c **** 
 742:Lib/Camera_Middleware/sensors/vd1943/vd1943.c ****   if (!ctx->ctx.is_fastboot) {
 743:Lib/Camera_Middleware/sensors/vd1943/vd1943.c ****     ret = VD1943_ApplyCertificate(ctx);
 744:Lib/Camera_Middleware/sensors/vd1943/vd1943.c ****     if (ret)
 745:Lib/Camera_Middleware/sensors/vd1943/vd1943.c ****       return ret;
 746:Lib/Camera_Middleware/sensors/vd1943/vd1943.c **** 
 747:Lib/Camera_Middleware/sensors/vd1943/vd1943.c ****     ret = VD1943_ApplyFwPatch(ctx);
 748:Lib/Camera_Middleware/sensors/vd1943/vd1943.c ****     if (ret)
ARM GAS  C:\Users\DJESSOU\AppData\Local\Temp\cc3eovRL.s 			page 20


 749:Lib/Camera_Middleware/sensors/vd1943/vd1943.c ****       return ret;
 750:Lib/Camera_Middleware/sensors/vd1943/vd1943.c ****   }
 751:Lib/Camera_Middleware/sensors/vd1943/vd1943.c **** 
 752:Lib/Camera_Middleware/sensors/vd1943/vd1943.c ****   ret = VD1943_GoToStandbyState(ctx);
 753:Lib/Camera_Middleware/sensors/vd1943/vd1943.c ****   if (ret)
 754:Lib/Camera_Middleware/sensors/vd1943/vd1943.c ****     return ret;
 755:Lib/Camera_Middleware/sensors/vd1943/vd1943.c **** 
 756:Lib/Camera_Middleware/sensors/vd1943/vd1943.c ****   if (!ctx->ctx.is_fastboot) {
 757:Lib/Camera_Middleware/sensors/vd1943/vd1943.c ****     ret = VD1943_ApplyVTPatch(ctx);
 758:Lib/Camera_Middleware/sensors/vd1943/vd1943.c ****     if (ret)
 759:Lib/Camera_Middleware/sensors/vd1943/vd1943.c ****       return ret;
 760:Lib/Camera_Middleware/sensors/vd1943/vd1943.c ****   }
 761:Lib/Camera_Middleware/sensors/vd1943/vd1943.c **** 
 762:Lib/Camera_Middleware/sensors/vd1943/vd1943.c ****   ret = VD1943_SetBayerType(ctx);
 763:Lib/Camera_Middleware/sensors/vd1943/vd1943.c ****   if (ret)
 764:Lib/Camera_Middleware/sensors/vd1943/vd1943.c ****     return ret;
 765:Lib/Camera_Middleware/sensors/vd1943/vd1943.c **** 
 766:Lib/Camera_Middleware/sensors/vd1943/vd1943.c ****   return 0;
 767:Lib/Camera_Middleware/sensors/vd1943/vd1943.c **** }
 768:Lib/Camera_Middleware/sensors/vd1943/vd1943.c **** 
 769:Lib/Camera_Middleware/sensors/vd1943/vd1943.c **** static uint8_t VD1943_GetLaneNb(VD1943_OutItf_Config_t *out_itf)
 770:Lib/Camera_Middleware/sensors/vd1943/vd1943.c **** {
 771:Lib/Camera_Middleware/sensors/vd1943/vd1943.c ****   switch (out_itf->datalane_nb) {
 772:Lib/Camera_Middleware/sensors/vd1943/vd1943.c ****   case 2:
 773:Lib/Camera_Middleware/sensors/vd1943/vd1943.c ****     return VD1943_LANE_NB_SEL_2;
 774:Lib/Camera_Middleware/sensors/vd1943/vd1943.c ****     break;
 775:Lib/Camera_Middleware/sensors/vd1943/vd1943.c ****   case 4:
 776:Lib/Camera_Middleware/sensors/vd1943/vd1943.c ****     return VD1943_LANE_NB_SEL_4;
 777:Lib/Camera_Middleware/sensors/vd1943/vd1943.c ****     break;
 778:Lib/Camera_Middleware/sensors/vd1943/vd1943.c ****   default:
 779:Lib/Camera_Middleware/sensors/vd1943/vd1943.c ****     assert(0);
 780:Lib/Camera_Middleware/sensors/vd1943/vd1943.c ****   }
 781:Lib/Camera_Middleware/sensors/vd1943/vd1943.c **** 
 782:Lib/Camera_Middleware/sensors/vd1943/vd1943.c ****   return VD1943_LANE_NB_SEL_2;
 783:Lib/Camera_Middleware/sensors/vd1943/vd1943.c **** }
 784:Lib/Camera_Middleware/sensors/vd1943/vd1943.c **** 
 785:Lib/Camera_Middleware/sensors/vd1943/vd1943.c **** static uint8_t VD1943_GetLogicalPhysicalMapping(VD1943_OutItf_Config_t *out_itf)
 786:Lib/Camera_Middleware/sensors/vd1943/vd1943.c **** {
 787:Lib/Camera_Middleware/sensors/vd1943/vd1943.c ****   return (out_itf->logic_lane_mapping[0] << 0) |
 788:Lib/Camera_Middleware/sensors/vd1943/vd1943.c ****          (out_itf->logic_lane_mapping[1] << 2) |
 789:Lib/Camera_Middleware/sensors/vd1943/vd1943.c ****          (out_itf->logic_lane_mapping[2] << 4) |
 790:Lib/Camera_Middleware/sensors/vd1943/vd1943.c ****          (out_itf->logic_lane_mapping[3] << 6);
 791:Lib/Camera_Middleware/sensors/vd1943/vd1943.c **** }
 792:Lib/Camera_Middleware/sensors/vd1943/vd1943.c **** 
 793:Lib/Camera_Middleware/sensors/vd1943/vd1943.c **** static uint8_t VD1943_GetLaneSwap(VD1943_OutItf_Config_t *out_itf)
 794:Lib/Camera_Middleware/sensors/vd1943/vd1943.c **** {
 795:Lib/Camera_Middleware/sensors/vd1943/vd1943.c ****   return (out_itf->physical_lane_swap_enable[0] << 0) |
 796:Lib/Camera_Middleware/sensors/vd1943/vd1943.c ****          (out_itf->physical_lane_swap_enable[1] << 1) |
 797:Lib/Camera_Middleware/sensors/vd1943/vd1943.c ****          (out_itf->physical_lane_swap_enable[2] << 2) |
 798:Lib/Camera_Middleware/sensors/vd1943/vd1943.c ****          (out_itf->physical_lane_swap_enable[3] << 3) |
 799:Lib/Camera_Middleware/sensors/vd1943/vd1943.c ****          (out_itf->clock_lane_swap_enable << 4);
 800:Lib/Camera_Middleware/sensors/vd1943/vd1943.c **** }
 801:Lib/Camera_Middleware/sensors/vd1943/vd1943.c **** 
 802:Lib/Camera_Middleware/sensors/vd1943/vd1943.c **** static int VD1943_SetupOutputDataType(VD1943_Ctx_t *ctx)
 803:Lib/Camera_Middleware/sensors/vd1943/vd1943.c **** {
 804:Lib/Camera_Middleware/sensors/vd1943/vd1943.c ****   uint8_t dt;
 805:Lib/Camera_Middleware/sensors/vd1943/vd1943.c ****   int ret;
ARM GAS  C:\Users\DJESSOU\AppData\Local\Temp\cc3eovRL.s 			page 21


 806:Lib/Camera_Middleware/sensors/vd1943/vd1943.c **** 
 807:Lib/Camera_Middleware/sensors/vd1943/vd1943.c ****   switch (ctx->ctx.config_save.image_processing_mode) {
 808:Lib/Camera_Middleware/sensors/vd1943/vd1943.c ****   case VD1943_GS_SS1_NATIVE_8:
 809:Lib/Camera_Middleware/sensors/vd1943/vd1943.c ****   case VD1943_GS_SS1_SPLIT_NATIVE_8:
 810:Lib/Camera_Middleware/sensors/vd1943/vd1943.c ****   case VD1943_GS_SS1_RGB_8:
 811:Lib/Camera_Middleware/sensors/vd1943/vd1943.c ****   case VD1943_GS_SS1_IR_8:
 812:Lib/Camera_Middleware/sensors/vd1943/vd1943.c ****   case VD1943_GS_SS1_SPLIT_IR_8:
 813:Lib/Camera_Middleware/sensors/vd1943/vd1943.c ****   case VD1943_GS_SS2_MONO_8:
 814:Lib/Camera_Middleware/sensors/vd1943/vd1943.c ****   case VD1943_GS_SS4_MONO_8:
 815:Lib/Camera_Middleware/sensors/vd1943/vd1943.c ****   case VD1943_GS_SS32_MONO_8:
 816:Lib/Camera_Middleware/sensors/vd1943/vd1943.c ****   case VD1943_RS_SDR_NATIVE_8:
 817:Lib/Camera_Middleware/sensors/vd1943/vd1943.c ****   case VD1943_RS_SDR_RGB_8:
 818:Lib/Camera_Middleware/sensors/vd1943/vd1943.c ****     dt = 0x2a;
 819:Lib/Camera_Middleware/sensors/vd1943/vd1943.c ****     break;
 820:Lib/Camera_Middleware/sensors/vd1943/vd1943.c ****   case VD1943_GS_SS1_NATIVE_10:
 821:Lib/Camera_Middleware/sensors/vd1943/vd1943.c ****   case VD1943_GS_SS1_SPLIT_NATIVE_10:
 822:Lib/Camera_Middleware/sensors/vd1943/vd1943.c ****   case VD1943_GS_SS1_RGB_10:
 823:Lib/Camera_Middleware/sensors/vd1943/vd1943.c ****   case VD1943_GS_SS1_IR_10:
 824:Lib/Camera_Middleware/sensors/vd1943/vd1943.c ****   case VD1943_GS_SS1_SPLIT_IR_10:
 825:Lib/Camera_Middleware/sensors/vd1943/vd1943.c ****   case VD1943_GS_SS2_MONO_10:
 826:Lib/Camera_Middleware/sensors/vd1943/vd1943.c ****   case VD1943_GS_SS4_MONO_10:
 827:Lib/Camera_Middleware/sensors/vd1943/vd1943.c ****   case VD1943_GS_SS32_MONO_10:
 828:Lib/Camera_Middleware/sensors/vd1943/vd1943.c ****   case VD1943_RS_SDR_NATIVE_10:
 829:Lib/Camera_Middleware/sensors/vd1943/vd1943.c ****   case VD1943_RS_SDR_RGB_10:
 830:Lib/Camera_Middleware/sensors/vd1943/vd1943.c ****   case VD1943_RS_HDR_NATIVE_10:
 831:Lib/Camera_Middleware/sensors/vd1943/vd1943.c ****   case VD1943_RS_HDR_RGB_10:
 832:Lib/Camera_Middleware/sensors/vd1943/vd1943.c ****     dt = 0x2b;
 833:Lib/Camera_Middleware/sensors/vd1943/vd1943.c ****     break;
 834:Lib/Camera_Middleware/sensors/vd1943/vd1943.c ****   case VD1943_RS_SDR_NATIVE_12:
 835:Lib/Camera_Middleware/sensors/vd1943/vd1943.c ****   case VD1943_RS_SDR_RGB_12:
 836:Lib/Camera_Middleware/sensors/vd1943/vd1943.c ****   case VD1943_RS_HDR_NATIVE_12:
 837:Lib/Camera_Middleware/sensors/vd1943/vd1943.c ****   case VD1943_RS_HDR_RGB_12:
 838:Lib/Camera_Middleware/sensors/vd1943/vd1943.c ****     dt = 0x2c;
 839:Lib/Camera_Middleware/sensors/vd1943/vd1943.c ****     break;
 840:Lib/Camera_Middleware/sensors/vd1943/vd1943.c ****   default:
 841:Lib/Camera_Middleware/sensors/vd1943/vd1943.c ****     assert(0);
 842:Lib/Camera_Middleware/sensors/vd1943/vd1943.c ****     return -1;
 843:Lib/Camera_Middleware/sensors/vd1943/vd1943.c ****   }
 844:Lib/Camera_Middleware/sensors/vd1943/vd1943.c **** 
 845:Lib/Camera_Middleware/sensors/vd1943/vd1943.c ****   ret = ctx->write8(ctx, VD1943_REG_ROI_A_DT, dt);
 846:Lib/Camera_Middleware/sensors/vd1943/vd1943.c ****   VD1943_TraceError(ctx, ret);
 847:Lib/Camera_Middleware/sensors/vd1943/vd1943.c **** 
 848:Lib/Camera_Middleware/sensors/vd1943/vd1943.c ****   return ret;
 849:Lib/Camera_Middleware/sensors/vd1943/vd1943.c **** }
 850:Lib/Camera_Middleware/sensors/vd1943/vd1943.c **** 
 851:Lib/Camera_Middleware/sensors/vd1943/vd1943.c **** static int VD1943_SetupOutput(VD1943_Ctx_t *ctx)
 852:Lib/Camera_Middleware/sensors/vd1943/vd1943.c **** {
 853:Lib/Camera_Middleware/sensors/vd1943/vd1943.c ****   VD1943_OutItf_Config_t *out_itf = &ctx->ctx.config_save.out_itf;
 854:Lib/Camera_Middleware/sensors/vd1943/vd1943.c ****   int ret;
 855:Lib/Camera_Middleware/sensors/vd1943/vd1943.c **** 
 856:Lib/Camera_Middleware/sensors/vd1943/vd1943.c ****   /* setup sensor mode */
 857:Lib/Camera_Middleware/sensors/vd1943/vd1943.c ****   ret = ctx->write32(ctx, VD1943_REG_SENSOR_CONFIGURATION(0), ctx->ctx.config_save.image_processing
 858:Lib/Camera_Middleware/sensors/vd1943/vd1943.c ****   VD1943_TraceError(ctx, ret);
 859:Lib/Camera_Middleware/sensors/vd1943/vd1943.c **** 
 860:Lib/Camera_Middleware/sensors/vd1943/vd1943.c ****   /* Disable CFA_BLENDER when used in RGB. Note that this approach consider that
 861:Lib/Camera_Middleware/sensors/vd1943/vd1943.c ****      when RGB is in use there's a pure RGB lens - which is not systematic.
 862:Lib/Camera_Middleware/sensors/vd1943/vd1943.c ****      Proper approach (TODO) would be to make it a controllable setting. */
ARM GAS  C:\Users\DJESSOU\AppData\Local\Temp\cc3eovRL.s 			page 22


 863:Lib/Camera_Middleware/sensors/vd1943/vd1943.c ****   if (ctx->bayer == VD1943_BAYER_GBRG || ctx->bayer == VD1943_BAYER_RGGB ||
 864:Lib/Camera_Middleware/sensors/vd1943/vd1943.c ****       ctx->bayer == VD1943_BAYER_BGGR || ctx->bayer == VD1943_BAYER_GBRG)
 865:Lib/Camera_Middleware/sensors/vd1943/vd1943.c ****   {
 866:Lib/Camera_Middleware/sensors/vd1943/vd1943.c ****     ret = ctx->write8(ctx, VD1943_REG_CFA_BLENDER_ALPHA_CTRL, VD1943_CFA_BLENDER_ZERO);
 867:Lib/Camera_Middleware/sensors/vd1943/vd1943.c ****   } else {
 868:Lib/Camera_Middleware/sensors/vd1943/vd1943.c ****     ret = ctx->write8(ctx, VD1943_REG_CFA_BLENDER_ALPHA_CTRL, VD1943_CFA_BLENDER_NORMAL);
 869:Lib/Camera_Middleware/sensors/vd1943/vd1943.c ****   }
 870:Lib/Camera_Middleware/sensors/vd1943/vd1943.c ****   VD1943_TraceError(ctx, ret);
 871:Lib/Camera_Middleware/sensors/vd1943/vd1943.c **** 
 872:Lib/Camera_Middleware/sensors/vd1943/vd1943.c ****   /* csi-2 output itf */
 873:Lib/Camera_Middleware/sensors/vd1943/vd1943.c ****    /* lane number */
 874:Lib/Camera_Middleware/sensors/vd1943/vd1943.c ****   ret = ctx->write8(ctx, VD1943_REG_LANE_NB_SEL, VD1943_GetLaneNb(out_itf));
 875:Lib/Camera_Middleware/sensors/vd1943/vd1943.c ****   VD1943_TraceError(ctx, ret);
 876:Lib/Camera_Middleware/sensors/vd1943/vd1943.c ****   /* logical / physical mapping */
 877:Lib/Camera_Middleware/sensors/vd1943/vd1943.c ****   ret = ctx->write8(ctx, VD1943_REG_OIF_LANE_PHY_MAP, VD1943_GetLogicalPhysicalMapping(out_itf));
 878:Lib/Camera_Middleware/sensors/vd1943/vd1943.c ****   VD1943_TraceError(ctx, ret);
 879:Lib/Camera_Middleware/sensors/vd1943/vd1943.c ****   /* lane swap */
 880:Lib/Camera_Middleware/sensors/vd1943/vd1943.c ****   ret = ctx->write8(ctx, VD1943_REG_OIF_LANE_PHY_SWAP, VD1943_GetLaneSwap(out_itf));
 881:Lib/Camera_Middleware/sensors/vd1943/vd1943.c ****   VD1943_TraceError(ctx, ret);
 882:Lib/Camera_Middleware/sensors/vd1943/vd1943.c ****    /* data rate */
 883:Lib/Camera_Middleware/sensors/vd1943/vd1943.c ****   ret = ctx->write32(ctx, VD1943_REG_MIPI_DATA_RATE, out_itf->data_rate_in_mps);
 884:Lib/Camera_Middleware/sensors/vd1943/vd1943.c ****   VD1943_TraceError(ctx, ret);
 885:Lib/Camera_Middleware/sensors/vd1943/vd1943.c ****    /* data type / RAW8*/
 886:Lib/Camera_Middleware/sensors/vd1943/vd1943.c ****   ret = VD1943_SetupOutputDataType(ctx);
 887:Lib/Camera_Middleware/sensors/vd1943/vd1943.c ****   if (ret)
 888:Lib/Camera_Middleware/sensors/vd1943/vd1943.c ****     return ret;
 889:Lib/Camera_Middleware/sensors/vd1943/vd1943.c ****    /* Force ISL Datatype to 0x12 (not the default value on Cut1.4) */
 890:Lib/Camera_Middleware/sensors/vd1943/vd1943.c ****   ret = ctx->write8(ctx, VD1943_REG_OIF_DT_ISL, 0x12);
 891:Lib/Camera_Middleware/sensors/vd1943/vd1943.c ****   VD1943_TraceError(ctx, ret);
 892:Lib/Camera_Middleware/sensors/vd1943/vd1943.c **** 
 893:Lib/Camera_Middleware/sensors/vd1943/vd1943.c ****   return 0;
 894:Lib/Camera_Middleware/sensors/vd1943/vd1943.c **** }
 895:Lib/Camera_Middleware/sensors/vd1943/vd1943.c **** 
 896:Lib/Camera_Middleware/sensors/vd1943/vd1943.c **** static int VD1943_SetupSize(VD1943_Ctx_t *ctx)
 897:Lib/Camera_Middleware/sensors/vd1943/vd1943.c **** {
 898:Lib/Camera_Middleware/sensors/vd1943/vd1943.c ****   const struct vd1943_rect *rect = &vd1943_supported_modes[ctx->ctx.config_save.resolution];
 899:Lib/Camera_Middleware/sensors/vd1943/vd1943.c ****   int ss_factor;
 900:Lib/Camera_Middleware/sensors/vd1943/vd1943.c ****   int ret;
 901:Lib/Camera_Middleware/sensors/vd1943/vd1943.c **** 
 902:Lib/Camera_Middleware/sensors/vd1943/vd1943.c ****   assert(rect->left % 4 == 0);
 903:Lib/Camera_Middleware/sensors/vd1943/vd1943.c ****   assert(rect->top % 4 == 0);
 904:Lib/Camera_Middleware/sensors/vd1943/vd1943.c ****   assert(rect->width % 4 == 0);
 905:Lib/Camera_Middleware/sensors/vd1943/vd1943.c ****   assert(rect->height % 4 == 0);
 906:Lib/Camera_Middleware/sensors/vd1943/vd1943.c **** 
 907:Lib/Camera_Middleware/sensors/vd1943/vd1943.c ****   ret = VD1943_GetSubSamplingFactor(ctx, &ss_factor);
 908:Lib/Camera_Middleware/sensors/vd1943/vd1943.c ****   if (ret)
 909:Lib/Camera_Middleware/sensors/vd1943/vd1943.c ****     return ret;
 910:Lib/Camera_Middleware/sensors/vd1943/vd1943.c **** 
 911:Lib/Camera_Middleware/sensors/vd1943/vd1943.c ****   ret = ctx->write16(ctx, VD1943_REG_ROI_A_WIDTH_OFFSET, rect->left);
 912:Lib/Camera_Middleware/sensors/vd1943/vd1943.c ****   VD1943_TraceError(ctx, ret);
 913:Lib/Camera_Middleware/sensors/vd1943/vd1943.c ****   ret = ctx->write16(ctx, VD1943_REG_ROI_A_HEIGHT_OFFSET, rect->top);
 914:Lib/Camera_Middleware/sensors/vd1943/vd1943.c ****   VD1943_TraceError(ctx, ret);
 915:Lib/Camera_Middleware/sensors/vd1943/vd1943.c ****   ret = ctx->write16(ctx, VD1943_REG_ROI_A_WIDTH, rect->width / ss_factor);
 916:Lib/Camera_Middleware/sensors/vd1943/vd1943.c ****   VD1943_TraceError(ctx, ret);
 917:Lib/Camera_Middleware/sensors/vd1943/vd1943.c ****   ret = ctx->write16(ctx, VD1943_REG_ROI_A_HEIGHT, rect->height / ss_factor);
 918:Lib/Camera_Middleware/sensors/vd1943/vd1943.c ****   VD1943_TraceError(ctx, ret);
 919:Lib/Camera_Middleware/sensors/vd1943/vd1943.c **** 
ARM GAS  C:\Users\DJESSOU\AppData\Local\Temp\cc3eovRL.s 			page 23


 920:Lib/Camera_Middleware/sensors/vd1943/vd1943.c ****   return 0;
 921:Lib/Camera_Middleware/sensors/vd1943/vd1943.c **** }
 922:Lib/Camera_Middleware/sensors/vd1943/vd1943.c **** 
 923:Lib/Camera_Middleware/sensors/vd1943/vd1943.c **** static int VD1943_SetupLineLen(VD1943_Ctx_t *ctx)
 924:Lib/Camera_Middleware/sensors/vd1943/vd1943.c **** {
 925:Lib/Camera_Middleware/sensors/vd1943/vd1943.c ****   uint8_t gs_mode;
 926:Lib/Camera_Middleware/sensors/vd1943/vd1943.c ****   uint32_t system_pll_clk;
 927:Lib/Camera_Middleware/sensors/vd1943/vd1943.c ****   uint32_t vt_pixelrate;
 928:Lib/Camera_Middleware/sensors/vd1943/vd1943.c ****   unsigned int bpp;
 929:Lib/Camera_Middleware/sensors/vd1943/vd1943.c ****   uint32_t mipi_bandwidth;
 930:Lib/Camera_Middleware/sensors/vd1943/vd1943.c ****   uint32_t mipi_pixelrate;
 931:Lib/Camera_Middleware/sensors/vd1943/vd1943.c ****   uint16_t line_length;
 932:Lib/Camera_Middleware/sensors/vd1943/vd1943.c ****   uint32_t mipi_transition_cst_in_px;
 933:Lib/Camera_Middleware/sensors/vd1943/vd1943.c ****   uint32_t mipi_interpacket_delay_in_px;
 934:Lib/Camera_Middleware/sensors/vd1943/vd1943.c ****   uint64_t mipi_virtual_linelength = 0;
 935:Lib/Camera_Middleware/sensors/vd1943/vd1943.c ****   int ret;
 936:Lib/Camera_Middleware/sensors/vd1943/vd1943.c **** 
 937:Lib/Camera_Middleware/sensors/vd1943/vd1943.c ****   /* Shutter mode directly impact linelength */
 938:Lib/Camera_Middleware/sensors/vd1943/vd1943.c ****   switch (ctx->ctx.config_save.image_processing_mode)
 939:Lib/Camera_Middleware/sensors/vd1943/vd1943.c ****   {
 940:Lib/Camera_Middleware/sensors/vd1943/vd1943.c ****   case VD1943_GS_SS1_NATIVE_8:
 941:Lib/Camera_Middleware/sensors/vd1943/vd1943.c ****   case VD1943_GS_SS1_NATIVE_10:
 942:Lib/Camera_Middleware/sensors/vd1943/vd1943.c ****   case VD1943_GS_SS1_SPLIT_NATIVE_8:
 943:Lib/Camera_Middleware/sensors/vd1943/vd1943.c ****   case VD1943_GS_SS1_SPLIT_NATIVE_10:
 944:Lib/Camera_Middleware/sensors/vd1943/vd1943.c ****   case VD1943_GS_SS1_SPLIT_IR_8:
 945:Lib/Camera_Middleware/sensors/vd1943/vd1943.c ****   case VD1943_GS_SS1_SPLIT_IR_10:
 946:Lib/Camera_Middleware/sensors/vd1943/vd1943.c ****   case VD1943_GS_SS1_RGB_8:
 947:Lib/Camera_Middleware/sensors/vd1943/vd1943.c ****   case VD1943_GS_SS1_RGB_10:
 948:Lib/Camera_Middleware/sensors/vd1943/vd1943.c ****   case VD1943_GS_SS1_IR_8:
 949:Lib/Camera_Middleware/sensors/vd1943/vd1943.c ****   case VD1943_GS_SS1_IR_10:
 950:Lib/Camera_Middleware/sensors/vd1943/vd1943.c ****   case VD1943_GS_SS2_MONO_8:
 951:Lib/Camera_Middleware/sensors/vd1943/vd1943.c ****   case VD1943_GS_SS2_MONO_10:
 952:Lib/Camera_Middleware/sensors/vd1943/vd1943.c ****   case VD1943_GS_SS4_MONO_8:
 953:Lib/Camera_Middleware/sensors/vd1943/vd1943.c ****   case VD1943_GS_SS4_MONO_10:
 954:Lib/Camera_Middleware/sensors/vd1943/vd1943.c ****   case VD1943_GS_SS32_MONO_8:
 955:Lib/Camera_Middleware/sensors/vd1943/vd1943.c ****   case VD1943_GS_SS32_MONO_10:
 956:Lib/Camera_Middleware/sensors/vd1943/vd1943.c ****     gs_mode = 1;
 957:Lib/Camera_Middleware/sensors/vd1943/vd1943.c ****     break;
 958:Lib/Camera_Middleware/sensors/vd1943/vd1943.c ****   case VD1943_RS_SDR_NATIVE_8:
 959:Lib/Camera_Middleware/sensors/vd1943/vd1943.c ****   case VD1943_RS_SDR_NATIVE_10:
 960:Lib/Camera_Middleware/sensors/vd1943/vd1943.c ****   case VD1943_RS_SDR_NATIVE_12:
 961:Lib/Camera_Middleware/sensors/vd1943/vd1943.c ****   case VD1943_RS_SDR_RGB_8:
 962:Lib/Camera_Middleware/sensors/vd1943/vd1943.c ****   case VD1943_RS_SDR_RGB_10:
 963:Lib/Camera_Middleware/sensors/vd1943/vd1943.c ****   case VD1943_RS_SDR_RGB_12:
 964:Lib/Camera_Middleware/sensors/vd1943/vd1943.c ****   case VD1943_RS_HDR_NATIVE_10:
 965:Lib/Camera_Middleware/sensors/vd1943/vd1943.c ****   case VD1943_RS_HDR_NATIVE_12:
 966:Lib/Camera_Middleware/sensors/vd1943/vd1943.c ****   case VD1943_RS_HDR_RGB_10:
 967:Lib/Camera_Middleware/sensors/vd1943/vd1943.c ****   case VD1943_RS_HDR_RGB_12:
 968:Lib/Camera_Middleware/sensors/vd1943/vd1943.c ****     gs_mode = 0;
 969:Lib/Camera_Middleware/sensors/vd1943/vd1943.c ****     break;
 970:Lib/Camera_Middleware/sensors/vd1943/vd1943.c ****   default:
 971:Lib/Camera_Middleware/sensors/vd1943/vd1943.c ****     return -1;
 972:Lib/Camera_Middleware/sensors/vd1943/vd1943.c ****   }
 973:Lib/Camera_Middleware/sensors/vd1943/vd1943.c **** 
 974:Lib/Camera_Middleware/sensors/vd1943/vd1943.c ****   ret = ctx->read32(ctx, VD1943_REG_SYSTEM_PLL_CLK, &system_pll_clk);
 975:Lib/Camera_Middleware/sensors/vd1943/vd1943.c ****   VD1943_TraceError(ctx, ret);
 976:Lib/Camera_Middleware/sensors/vd1943/vd1943.c ****   VD1943_dbg(ctx, 0, "system pll clock = %d hz\n", system_pll_clk);
ARM GAS  C:\Users\DJESSOU\AppData\Local\Temp\cc3eovRL.s 			page 24


 977:Lib/Camera_Middleware/sensors/vd1943/vd1943.c **** 
 978:Lib/Camera_Middleware/sensors/vd1943/vd1943.c ****   /* With 2 rows of ADC used in GS mode, the VT pixel rate is doubled */
 979:Lib/Camera_Middleware/sensors/vd1943/vd1943.c ****   if (gs_mode)
 980:Lib/Camera_Middleware/sensors/vd1943/vd1943.c ****   {
 981:Lib/Camera_Middleware/sensors/vd1943/vd1943.c ****     vt_pixelrate = system_pll_clk / 2;
 982:Lib/Camera_Middleware/sensors/vd1943/vd1943.c ****   }
 983:Lib/Camera_Middleware/sensors/vd1943/vd1943.c ****   else
 984:Lib/Camera_Middleware/sensors/vd1943/vd1943.c ****   {
 985:Lib/Camera_Middleware/sensors/vd1943/vd1943.c ****     vt_pixelrate = system_pll_clk / 4;
 986:Lib/Camera_Middleware/sensors/vd1943/vd1943.c ****   }
 987:Lib/Camera_Middleware/sensors/vd1943/vd1943.c **** 
 988:Lib/Camera_Middleware/sensors/vd1943/vd1943.c ****   /* Compute the max pixelrate on the mipi link based on pixel depth */
 989:Lib/Camera_Middleware/sensors/vd1943/vd1943.c ****   ret = VD1943_GetPixelDepth(ctx, &bpp);
 990:Lib/Camera_Middleware/sensors/vd1943/vd1943.c ****   if (ret)
 991:Lib/Camera_Middleware/sensors/vd1943/vd1943.c ****     return ret;
 992:Lib/Camera_Middleware/sensors/vd1943/vd1943.c **** 
 993:Lib/Camera_Middleware/sensors/vd1943/vd1943.c ****   mipi_bandwidth = ctx->ctx.config_save.out_itf.data_rate_in_mps * ctx->ctx.config_save.out_itf.dat
 994:Lib/Camera_Middleware/sensors/vd1943/vd1943.c ****   mipi_pixelrate = mipi_bandwidth / bpp;
 995:Lib/Camera_Middleware/sensors/vd1943/vd1943.c **** 
 996:Lib/Camera_Middleware/sensors/vd1943/vd1943.c ****   /* Compute the mins linelength given the mipi bandwidth */
 997:Lib/Camera_Middleware/sensors/vd1943/vd1943.c ****   if (mipi_pixelrate < vt_pixelrate)
 998:Lib/Camera_Middleware/sensors/vd1943/vd1943.c ****   {
 999:Lib/Camera_Middleware/sensors/vd1943/vd1943.c ****     /*
1000:Lib/Camera_Middleware/sensors/vd1943/vd1943.c ****      * Compute a virtual (mipi-equivalent) linelength that could fit
1001:Lib/Camera_Middleware/sensors/vd1943/vd1943.c ****      * with MIPI limitation (MIPI link being the bottleneck here).
1002:Lib/Camera_Middleware/sensors/vd1943/vd1943.c ****      */
1003:Lib/Camera_Middleware/sensors/vd1943/vd1943.c ****     mipi_transition_cst_in_px = mipi_pixelrate / 1000000 / 4;
1004:Lib/Camera_Middleware/sensors/vd1943/vd1943.c ****     mipi_interpacket_delay_in_px = 30 * 8 * ctx->ctx.config_save.out_itf.datalane_nb / bpp;
1005:Lib/Camera_Middleware/sensors/vd1943/vd1943.c ****     mipi_virtual_linelength = mipi_transition_cst_in_px +
1006:Lib/Camera_Middleware/sensors/vd1943/vd1943.c ****                               vd1943_supported_modes[ctx->ctx.config_save.resolution].width +
1007:Lib/Camera_Middleware/sensors/vd1943/vd1943.c ****                               mipi_interpacket_delay_in_px;
1008:Lib/Camera_Middleware/sensors/vd1943/vd1943.c ****     mipi_virtual_linelength = mipi_virtual_linelength * vt_pixelrate / mipi_pixelrate;
1009:Lib/Camera_Middleware/sensors/vd1943/vd1943.c ****   }
1010:Lib/Camera_Middleware/sensors/vd1943/vd1943.c ****   line_length = MAX(VD1943_LINE_LENGTH_MIN, (uint16_t)mipi_virtual_linelength);
1011:Lib/Camera_Middleware/sensors/vd1943/vd1943.c **** 
1012:Lib/Camera_Middleware/sensors/vd1943/vd1943.c ****   /* Ensure linelength is a multiple of 4 */
1013:Lib/Camera_Middleware/sensors/vd1943/vd1943.c ****   line_length = ((line_length + 3) / 4) * 4;
1014:Lib/Camera_Middleware/sensors/vd1943/vd1943.c **** 
1015:Lib/Camera_Middleware/sensors/vd1943/vd1943.c ****   VD1943_dbg(ctx, 0, "line_length = %d\n", line_length);
1016:Lib/Camera_Middleware/sensors/vd1943/vd1943.c **** 
1017:Lib/Camera_Middleware/sensors/vd1943/vd1943.c ****   ret = ctx->write16(ctx, VD1943_REG_LINE_LENGTH, line_length);
1018:Lib/Camera_Middleware/sensors/vd1943/vd1943.c ****   VD1943_TraceError(ctx, ret);
1019:Lib/Camera_Middleware/sensors/vd1943/vd1943.c **** 
1020:Lib/Camera_Middleware/sensors/vd1943/vd1943.c ****   return 0;
1021:Lib/Camera_Middleware/sensors/vd1943/vd1943.c **** }
1022:Lib/Camera_Middleware/sensors/vd1943/vd1943.c **** 
1023:Lib/Camera_Middleware/sensors/vd1943/vd1943.c **** static int VD1943_ComputeFrameLength(VD1943_Ctx_t *ctx, int fps, uint16_t *frame_length)
1024:Lib/Camera_Middleware/sensors/vd1943/vd1943.c **** {
 291              		.loc 1 1024 1 is_stmt 1 view -0
 292              		.cfi_startproc
 293              		@ args = 0, pretend = 0, frame = 8
 294              		@ frame_needed = 0, uses_anonymous_args = 0
1025:Lib/Camera_Middleware/sensors/vd1943/vd1943.c ****   uint8_t gs_mode;
 295              		.loc 1 1025 3 view .LVU60
1026:Lib/Camera_Middleware/sensors/vd1943/vd1943.c ****   struct drv_vd1943_ctx *drv_vd1943_ctx = &ctx->ctx;
 296              		.loc 1 1026 3 view .LVU61
1027:Lib/Camera_Middleware/sensors/vd1943/vd1943.c ****   int min_frame_length;
ARM GAS  C:\Users\DJESSOU\AppData\Local\Temp\cc3eovRL.s 			page 25


 297              		.loc 1 1027 3 view .LVU62
1028:Lib/Camera_Middleware/sensors/vd1943/vd1943.c ****   int req_frame_length;
 298              		.loc 1 1028 3 view .LVU63
1029:Lib/Camera_Middleware/sensors/vd1943/vd1943.c ****   uint32_t system_pll_clk;
 299              		.loc 1 1029 3 view .LVU64
1030:Lib/Camera_Middleware/sensors/vd1943/vd1943.c ****   uint16_t line_length;
 300              		.loc 1 1030 3 view .LVU65
1031:Lib/Camera_Middleware/sensors/vd1943/vd1943.c ****   uint16_t height;
 301              		.loc 1 1031 3 view .LVU66
1032:Lib/Camera_Middleware/sensors/vd1943/vd1943.c ****   int ret;
 302              		.loc 1 1032 3 view .LVU67
1033:Lib/Camera_Middleware/sensors/vd1943/vd1943.c **** 
1034:Lib/Camera_Middleware/sensors/vd1943/vd1943.c ****   /* Shutter mode directly impact linelength */
1035:Lib/Camera_Middleware/sensors/vd1943/vd1943.c ****   switch (ctx->ctx.config_save.image_processing_mode)
 303              		.loc 1 1035 3 view .LVU68
1024:Lib/Camera_Middleware/sensors/vd1943/vd1943.c ****   uint8_t gs_mode;
 304              		.loc 1 1024 1 is_stmt 0 view .LVU69
 305 0000 2DE9F041 		push	{r4, r5, r6, r7, r8, lr}
 306              		.cfi_def_cfa_offset 24
 307              		.cfi_offset 4, -24
 308              		.cfi_offset 5, -20
 309              		.cfi_offset 6, -16
 310              		.cfi_offset 7, -12
 311              		.cfi_offset 8, -8
 312              		.cfi_offset 14, -4
 313              		.loc 1 1035 31 view .LVU70
 314 0004 90F84430 		ldrb	r3, [r0, #68]	@ zero_extendqisi2
1024:Lib/Camera_Middleware/sensors/vd1943/vd1943.c ****   uint8_t gs_mode;
 315              		.loc 1 1024 1 view .LVU71
 316 0008 0546     		mov	r5, r0
 317              		.loc 1 1035 3 view .LVU72
 318 000a 122B     		cmp	r3, #18
1024:Lib/Camera_Middleware/sensors/vd1943/vd1943.c ****   uint8_t gs_mode;
 319              		.loc 1 1024 1 view .LVU73
 320 000c 0E46     		mov	r6, r1
 321 000e 1746     		mov	r7, r2
 322 0010 88B0     		sub	sp, sp, #32
 323              		.cfi_def_cfa_offset 56
 324              		.loc 1 1035 3 view .LVU74
 325 0012 07D8     		bhi	.L18
 326 0014 082B     		cmp	r3, #8
 327 0016 02D8     		bhi	.L28
 328 0018 013B     		subs	r3, r3, #1
 329 001a 052B     		cmp	r3, #5
 330 001c 5FD8     		bhi	.L30
 331              	.L28:
1036:Lib/Camera_Middleware/sensors/vd1943/vd1943.c ****   {
1037:Lib/Camera_Middleware/sensors/vd1943/vd1943.c ****   case VD1943_GS_SS1_NATIVE_8:
1038:Lib/Camera_Middleware/sensors/vd1943/vd1943.c ****   case VD1943_GS_SS1_NATIVE_10:
1039:Lib/Camera_Middleware/sensors/vd1943/vd1943.c ****   case VD1943_GS_SS1_SPLIT_NATIVE_8:
1040:Lib/Camera_Middleware/sensors/vd1943/vd1943.c ****   case VD1943_GS_SS1_SPLIT_NATIVE_10:
1041:Lib/Camera_Middleware/sensors/vd1943/vd1943.c ****   case VD1943_GS_SS1_SPLIT_IR_8:
1042:Lib/Camera_Middleware/sensors/vd1943/vd1943.c ****   case VD1943_GS_SS1_SPLIT_IR_10:
1043:Lib/Camera_Middleware/sensors/vd1943/vd1943.c ****   case VD1943_GS_SS1_RGB_8:
1044:Lib/Camera_Middleware/sensors/vd1943/vd1943.c ****   case VD1943_GS_SS1_RGB_10:
1045:Lib/Camera_Middleware/sensors/vd1943/vd1943.c ****   case VD1943_GS_SS1_IR_8:
1046:Lib/Camera_Middleware/sensors/vd1943/vd1943.c ****   case VD1943_GS_SS1_IR_10:
ARM GAS  C:\Users\DJESSOU\AppData\Local\Temp\cc3eovRL.s 			page 26


1047:Lib/Camera_Middleware/sensors/vd1943/vd1943.c ****   case VD1943_GS_SS2_MONO_8:
1048:Lib/Camera_Middleware/sensors/vd1943/vd1943.c ****   case VD1943_GS_SS2_MONO_10:
1049:Lib/Camera_Middleware/sensors/vd1943/vd1943.c ****   case VD1943_GS_SS4_MONO_8:
1050:Lib/Camera_Middleware/sensors/vd1943/vd1943.c ****   case VD1943_GS_SS4_MONO_10:
1051:Lib/Camera_Middleware/sensors/vd1943/vd1943.c ****   case VD1943_GS_SS32_MONO_8:
1052:Lib/Camera_Middleware/sensors/vd1943/vd1943.c ****   case VD1943_GS_SS32_MONO_10:
1053:Lib/Camera_Middleware/sensors/vd1943/vd1943.c ****     gs_mode = 1;
 332              		.loc 1 1053 13 view .LVU75
 333 001e 4FF00108 		mov	r8, #1
 334 0022 04E0     		b	.L19
 335              	.L18:
1035:Lib/Camera_Middleware/sensors/vd1943/vd1943.c ****   {
 336              		.loc 1 1035 3 view .LVU76
 337 0024 1A3B     		subs	r3, r3, #26
 338 0026 092B     		cmp	r3, #9
 339 0028 59D8     		bhi	.L30
 340 002a 4FF00008 		mov	r8, #0
 341              	.L19:
 342              	.LVL21:
1054:Lib/Camera_Middleware/sensors/vd1943/vd1943.c ****     break;
1055:Lib/Camera_Middleware/sensors/vd1943/vd1943.c ****   case VD1943_RS_SDR_NATIVE_8:
1056:Lib/Camera_Middleware/sensors/vd1943/vd1943.c ****   case VD1943_RS_SDR_NATIVE_10:
1057:Lib/Camera_Middleware/sensors/vd1943/vd1943.c ****   case VD1943_RS_SDR_NATIVE_12:
1058:Lib/Camera_Middleware/sensors/vd1943/vd1943.c ****   case VD1943_RS_SDR_RGB_8:
1059:Lib/Camera_Middleware/sensors/vd1943/vd1943.c ****   case VD1943_RS_SDR_RGB_10:
1060:Lib/Camera_Middleware/sensors/vd1943/vd1943.c ****   case VD1943_RS_SDR_RGB_12:
1061:Lib/Camera_Middleware/sensors/vd1943/vd1943.c ****   case VD1943_RS_HDR_NATIVE_10:
1062:Lib/Camera_Middleware/sensors/vd1943/vd1943.c ****   case VD1943_RS_HDR_NATIVE_12:
1063:Lib/Camera_Middleware/sensors/vd1943/vd1943.c ****   case VD1943_RS_HDR_RGB_10:
1064:Lib/Camera_Middleware/sensors/vd1943/vd1943.c ****   case VD1943_RS_HDR_RGB_12:
1065:Lib/Camera_Middleware/sensors/vd1943/vd1943.c ****     gs_mode = 0;
1066:Lib/Camera_Middleware/sensors/vd1943/vd1943.c ****     break;
1067:Lib/Camera_Middleware/sensors/vd1943/vd1943.c ****   default:
1068:Lib/Camera_Middleware/sensors/vd1943/vd1943.c ****     return -1;
1069:Lib/Camera_Middleware/sensors/vd1943/vd1943.c ****   }
1070:Lib/Camera_Middleware/sensors/vd1943/vd1943.c **** 
1071:Lib/Camera_Middleware/sensors/vd1943/vd1943.c ****   ret = ctx->read32(ctx, VD1943_REG_SYSTEM_PLL_CLK, &system_pll_clk);
 343              		.loc 1 1071 3 is_stmt 1 view .LVU77
 344              		.loc 1 1071 9 is_stmt 0 view .LVU78
 345 002e 4FF40A71 		mov	r1, #552
 346              	.LVL22:
 347              		.loc 1 1071 9 view .LVU79
 348 0032 2846     		mov	r0, r5
 349              	.LVL23:
 350              		.loc 1 1071 9 view .LVU80
 351 0034 EB68     		ldr	r3, [r5, #12]
 352 0036 07AA     		add	r2, sp, #28
 353              	.LVL24:
 354              		.loc 1 1071 9 view .LVU81
 355 0038 9847     		blx	r3
 356              	.LVL25:
1072:Lib/Camera_Middleware/sensors/vd1943/vd1943.c ****   VD1943_TraceError(ctx, ret);
 357              		.loc 1 1072 3 is_stmt 1 view .LVU82
 358              		.loc 1 1072 3 view .LVU83
 359 003a 0446     		mov	r4, r0
 360 003c 58B9     		cbnz	r0, .L21
 361              		.loc 1 1072 3 discriminator 6 view .LVU84
ARM GAS  C:\Users\DJESSOU\AppData\Local\Temp\cc3eovRL.s 			page 27


 362              		.loc 1 1072 3 discriminator 8 view .LVU85
1073:Lib/Camera_Middleware/sensors/vd1943/vd1943.c ****   ret = ctx->read16(ctx, VD1943_REG_LINE_LENGTH, &line_length);
 363              		.loc 1 1073 3 view .LVU86
 364              		.loc 1 1073 9 is_stmt 0 view .LVU87
 365 003e 40F63411 		movw	r1, #2356
 366 0042 2846     		mov	r0, r5
 367              	.LVL26:
 368              		.loc 1 1073 9 view .LVU88
 369 0044 AB68     		ldr	r3, [r5, #8]
 370 0046 06AA     		add	r2, sp, #24
 371 0048 9847     		blx	r3
 372              	.LVL27:
1074:Lib/Camera_Middleware/sensors/vd1943/vd1943.c ****   VD1943_TraceError(ctx, ret);
 373              		.loc 1 1074 3 is_stmt 1 view .LVU89
 374              		.loc 1 1074 3 view .LVU90
 375 004a 0446     		mov	r4, r0
 376 004c 90B1     		cbz	r0, .L31
 377              		.loc 1 1074 3 discriminator 1 view .LVU91
 378              		.loc 1 1074 3 discriminator 1 view .LVU92
 379 004e 40F23243 		movw	r3, #1074
 380 0052 0290     		str	r0, [sp, #8]
 381 0054 02E0     		b	.L33
 382              	.L21:
1072:Lib/Camera_Middleware/sensors/vd1943/vd1943.c ****   VD1943_TraceError(ctx, ret);
 383              		.loc 1 1072 3 discriminator 1 view .LVU93
1072:Lib/Camera_Middleware/sensors/vd1943/vd1943.c ****   VD1943_TraceError(ctx, ret);
 384              		.loc 1 1072 3 discriminator 1 view .LVU94
 385 0056 4FF48663 		mov	r3, #1072
 386 005a 0290     		str	r0, [sp, #8]
 387              	.L33:
1075:Lib/Camera_Middleware/sensors/vd1943/vd1943.c ****   ret = ctx->read16(ctx, VD1943_REG_ROI_A_HEIGHT, &height);
1076:Lib/Camera_Middleware/sensors/vd1943/vd1943.c ****   VD1943_TraceError(ctx, ret);
 388              		.loc 1 1076 3 is_stmt 0 discriminator 1 view .LVU95
 389 005c 214A     		ldr	r2, .L34
 390 005e 2846     		mov	r0, r5
 391              	.LVL28:
 392              		.loc 1 1076 3 discriminator 1 view .LVU96
 393 0060 0092     		str	r2, [sp]
 394 0062 0021     		movs	r1, #0
 395 0064 204A     		ldr	r2, .L34+4
 396 0066 0193     		str	r3, [sp, #4]
 397 0068 FFF7FEFF 		bl	VD1943_log_impl
 398              	.LVL29:
 399              		.loc 1 1076 3 is_stmt 1 discriminator 3 view .LVU97
 400              		.loc 1 1076 3 discriminator 3 view .LVU98
 401              		.loc 1 1076 3 discriminator 4 view .LVU99
 402 006c 2846     		mov	r0, r5
 403 006e FFF7FEFF 		bl	display_error
 404              	.LVL30:
 405              		.loc 1 1076 3 discriminator 6 view .LVU100
 406              		.loc 1 1076 3 discriminator 7 view .LVU101
 407              		.loc 1 1076 3 is_stmt 0 view .LVU102
 408 0072 30E0     		b	.L17
 409              	.LVL31:
 410              	.L31:
1074:Lib/Camera_Middleware/sensors/vd1943/vd1943.c ****   VD1943_TraceError(ctx, ret);
 411              		.loc 1 1074 3 is_stmt 1 discriminator 3 view .LVU103
ARM GAS  C:\Users\DJESSOU\AppData\Local\Temp\cc3eovRL.s 			page 28


1074:Lib/Camera_Middleware/sensors/vd1943/vd1943.c ****   VD1943_TraceError(ctx, ret);
 412              		.loc 1 1074 3 discriminator 3 view .LVU104
1074:Lib/Camera_Middleware/sensors/vd1943/vd1943.c ****   VD1943_TraceError(ctx, ret);
 413              		.loc 1 1074 3 discriminator 6 view .LVU105
1074:Lib/Camera_Middleware/sensors/vd1943/vd1943.c ****   VD1943_TraceError(ctx, ret);
 414              		.loc 1 1074 3 discriminator 8 view .LVU106
1075:Lib/Camera_Middleware/sensors/vd1943/vd1943.c ****   ret = ctx->read16(ctx, VD1943_REG_ROI_A_HEIGHT, &height);
 415              		.loc 1 1075 3 view .LVU107
1075:Lib/Camera_Middleware/sensors/vd1943/vd1943.c ****   ret = ctx->read16(ctx, VD1943_REG_ROI_A_HEIGHT, &height);
 416              		.loc 1 1075 9 is_stmt 0 view .LVU108
 417 0074 40F61211 		movw	r1, #2322
 418 0078 2846     		mov	r0, r5
 419              	.LVL32:
1075:Lib/Camera_Middleware/sensors/vd1943/vd1943.c ****   ret = ctx->read16(ctx, VD1943_REG_ROI_A_HEIGHT, &height);
 420              		.loc 1 1075 9 view .LVU109
 421 007a AB68     		ldr	r3, [r5, #8]
 422 007c 0DF11A02 		add	r2, sp, #26
 423 0080 9847     		blx	r3
 424              	.LVL33:
 425              		.loc 1 1076 3 is_stmt 1 view .LVU110
 426              		.loc 1 1076 3 view .LVU111
 427 0082 0446     		mov	r4, r0
 428 0084 18B1     		cbz	r0, .L32
 429              		.loc 1 1076 3 discriminator 1 view .LVU112
 430              		.loc 1 1076 3 discriminator 1 view .LVU113
 431 0086 40F23443 		movw	r3, #1076
 432 008a 0290     		str	r0, [sp, #8]
 433 008c E6E7     		b	.L33
 434              	.L32:
 435              		.loc 1 1076 3 discriminator 3 view .LVU114
 436              		.loc 1 1076 3 discriminator 3 view .LVU115
 437              		.loc 1 1076 3 discriminator 6 view .LVU116
 438              		.loc 1 1076 3 discriminator 8 view .LVU117
1077:Lib/Camera_Middleware/sensors/vd1943/vd1943.c **** 
1078:Lib/Camera_Middleware/sensors/vd1943/vd1943.c ****   min_frame_length = height + VD1943_MIN_VBLANK;
 439              		.loc 1 1078 3 view .LVU118
1079:Lib/Camera_Middleware/sensors/vd1943/vd1943.c ****   if (gs_mode)
1080:Lib/Camera_Middleware/sensors/vd1943/vd1943.c ****     min_frame_length = min_frame_length / 2;
1081:Lib/Camera_Middleware/sensors/vd1943/vd1943.c ****   req_frame_length =  system_pll_clk / (4 * line_length * drv_vd1943_ctx->config_save.frame_rate);
 440              		.loc 1 1081 57 is_stmt 0 view .LVU119
 441 008e 296C     		ldr	r1, [r5, #64]
 442 0090 BDF81820 		ldrh	r2, [sp, #24]
1078:Lib/Camera_Middleware/sensors/vd1943/vd1943.c ****   if (gs_mode)
 443              		.loc 1 1078 29 view .LVU120
 444 0094 BDF81A30 		ldrh	r3, [sp, #26]
 445              		.loc 1 1081 57 view .LVU121
 446 0098 4A43     		muls	r2, r1, r2
 447              		.loc 1 1081 38 view .LVU122
 448 009a 0799     		ldr	r1, [sp, #28]
 449              		.loc 1 1081 57 view .LVU123
 450 009c 9200     		lsls	r2, r2, #2
 451              		.loc 1 1081 38 view .LVU124
 452 009e B1FBF2F2 		udiv	r2, r1, r2
1078:Lib/Camera_Middleware/sensors/vd1943/vd1943.c ****   if (gs_mode)
 453              		.loc 1 1078 20 view .LVU125
 454 00a2 3C33     		adds	r3, r3, #60
 455              	.LVL34:
ARM GAS  C:\Users\DJESSOU\AppData\Local\Temp\cc3eovRL.s 			page 29


1079:Lib/Camera_Middleware/sensors/vd1943/vd1943.c ****   if (gs_mode)
 456              		.loc 1 1079 3 is_stmt 1 view .LVU126
1080:Lib/Camera_Middleware/sensors/vd1943/vd1943.c ****   req_frame_length =  system_pll_clk / (4 * line_length * drv_vd1943_ctx->config_save.frame_rate);
 457              		.loc 1 1080 22 is_stmt 0 view .LVU127
 458 00a4 23FA08F3 		lsr	r3, r3, r8
 459              	.LVL35:
 460              		.loc 1 1081 3 is_stmt 1 view .LVU128
1082:Lib/Camera_Middleware/sensors/vd1943/vd1943.c ****   *frame_length = MIN(MAX(min_frame_length, req_frame_length), 65535);
 461              		.loc 1 1082 3 view .LVU129
 462              		.loc 1 1082 19 is_stmt 0 view .LVU130
 463 00a8 9342     		cmp	r3, r2
 464 00aa 1946     		mov	r1, r3
 465 00ac 4FF6FF70 		movw	r0, #65535
 466              	.LVL36:
 467              		.loc 1 1082 19 view .LVU131
 468 00b0 B8BF     		it	lt
 469 00b2 1146     		movlt	r1, r2
 470 00b4 8142     		cmp	r1, r0
 471 00b6 A8BF     		it	ge
 472 00b8 0146     		movge	r1, r0
 473              		.loc 1 1082 17 view .LVU132
 474 00ba 3980     		strh	r1, [r7]	@ movhi
1083:Lib/Camera_Middleware/sensors/vd1943/vd1943.c **** 
1084:Lib/Camera_Middleware/sensors/vd1943/vd1943.c ****   VD1943_dbg(ctx, 0, "frame_length to MAX(%d, %d) = %d to reach %d fps\n", min_frame_length, req_fr
 475              		.loc 1 1084 3 is_stmt 1 view .LVU133
 476              		.loc 1 1084 3 view .LVU134
 477 00bc CDE90132 		strd	r3, r2, [sp, #4]
 478 00c0 40F23C43 		movw	r3, #1084
 479              	.LVL37:
 480              		.loc 1 1084 3 is_stmt 0 view .LVU135
 481 00c4 CDE90316 		strd	r1, r6, [sp, #12]
 482 00c8 0093     		str	r3, [sp]
 483 00ca 0321     		movs	r1, #3
 484 00cc 2346     		mov	r3, r4
 485 00ce 2846     		mov	r0, r5
 486 00d0 064A     		ldr	r2, .L34+8
 487              	.LVL38:
 488              		.loc 1 1084 3 view .LVU136
 489 00d2 FFF7FEFF 		bl	VD1943_log_impl
 490              	.LVL39:
 491              		.loc 1 1084 3 is_stmt 1 discriminator 1 view .LVU137
1085:Lib/Camera_Middleware/sensors/vd1943/vd1943.c ****              *frame_length, fps);
1086:Lib/Camera_Middleware/sensors/vd1943/vd1943.c **** 
1087:Lib/Camera_Middleware/sensors/vd1943/vd1943.c ****   return 0;
 492              		.loc 1 1087 3 view .LVU138
 493              	.L17:
1088:Lib/Camera_Middleware/sensors/vd1943/vd1943.c **** }
 494              		.loc 1 1088 1 is_stmt 0 view .LVU139
 495 00d6 2046     		mov	r0, r4
 496 00d8 08B0     		add	sp, sp, #32
 497              		.cfi_remember_state
 498              		.cfi_def_cfa_offset 24
 499              		@ sp needed
 500 00da BDE8F081 		pop	{r4, r5, r6, r7, r8, pc}
 501              	.LVL40:
 502              	.L30:
 503              		.cfi_restore_state
ARM GAS  C:\Users\DJESSOU\AppData\Local\Temp\cc3eovRL.s 			page 30


1035:Lib/Camera_Middleware/sensors/vd1943/vd1943.c ****   {
 504              		.loc 1 1035 3 view .LVU140
 505 00de 4FF0FF34 		mov	r4, #-1
 506 00e2 F8E7     		b	.L17
 507              	.L35:
 508              		.align	2
 509              	.L34:
 510 00e4 00000000 		.word	__func__.35
 511 00e8 00000000 		.word	.LC4
 512 00ec 25000000 		.word	.LC5
 513              		.cfi_endproc
 514              	.LFE33:
 516              		.section	.text.VD1943_GetExpoCommon,"ax",%progbits
 517              		.align	1
 518              		.syntax unified
 519              		.thumb
 520              		.thumb_func
 522              	VD1943_GetExpoCommon:
 523              	.LVL41:
 524              	.LFB14:
 524:Lib/Camera_Middleware/sensors/vd1943/vd1943.c ****   uint16_t reg16;
 525              		.loc 1 524 1 is_stmt 1 view -0
 526              		.cfi_startproc
 527              		@ args = 0, pretend = 0, frame = 8
 528              		@ frame_needed = 0, uses_anonymous_args = 0
 525:Lib/Camera_Middleware/sensors/vd1943/vd1943.c ****   int ret;
 529              		.loc 1 525 3 view .LVU142
 526:Lib/Camera_Middleware/sensors/vd1943/vd1943.c **** 
 530              		.loc 1 526 3 view .LVU143
 528:Lib/Camera_Middleware/sensors/vd1943/vd1943.c ****   VD1943_TraceError(ctx, ret);
 531              		.loc 1 528 3 view .LVU144
 524:Lib/Camera_Middleware/sensors/vd1943/vd1943.c ****   uint16_t reg16;
 532              		.loc 1 524 1 is_stmt 0 view .LVU145
 533 0000 70B5     		push	{r4, r5, r6, lr}
 534              		.cfi_def_cfa_offset 16
 535              		.cfi_offset 4, -16
 536              		.cfi_offset 5, -12
 537              		.cfi_offset 6, -8
 538              		.cfi_offset 14, -4
 539 0002 86B0     		sub	sp, sp, #24
 540              		.cfi_def_cfa_offset 40
 524:Lib/Camera_Middleware/sensors/vd1943/vd1943.c ****   uint16_t reg16;
 541              		.loc 1 524 1 view .LVU146
 542 0004 0E46     		mov	r6, r1
 528:Lib/Camera_Middleware/sensors/vd1943/vd1943.c ****   VD1943_TraceError(ctx, ret);
 543              		.loc 1 528 9 view .LVU147
 544 0006 8368     		ldr	r3, [r0, #8]
 545 0008 40F67A41 		movw	r1, #3194
 546              	.LVL42:
 528:Lib/Camera_Middleware/sensors/vd1943/vd1943.c ****   VD1943_TraceError(ctx, ret);
 547              		.loc 1 528 9 view .LVU148
 548 000c 0DF11602 		add	r2, sp, #22
 524:Lib/Camera_Middleware/sensors/vd1943/vd1943.c ****   uint16_t reg16;
 549              		.loc 1 524 1 view .LVU149
 550 0010 0546     		mov	r5, r0
 528:Lib/Camera_Middleware/sensors/vd1943/vd1943.c ****   VD1943_TraceError(ctx, ret);
 551              		.loc 1 528 9 view .LVU150
ARM GAS  C:\Users\DJESSOU\AppData\Local\Temp\cc3eovRL.s 			page 31


 552 0012 9847     		blx	r3
 553              	.LVL43:
 529:Lib/Camera_Middleware/sensors/vd1943/vd1943.c ****   *expo_in_us = (reg16 * VD1943_LINE_TIME_IN_NS) / 1000;
 554              		.loc 1 529 3 is_stmt 1 view .LVU151
 529:Lib/Camera_Middleware/sensors/vd1943/vd1943.c ****   *expo_in_us = (reg16 * VD1943_LINE_TIME_IN_NS) / 1000;
 555              		.loc 1 529 3 view .LVU152
 556 0014 0446     		mov	r4, r0
 557 0016 60B9     		cbnz	r0, .L37
 529:Lib/Camera_Middleware/sensors/vd1943/vd1943.c ****   *expo_in_us = (reg16 * VD1943_LINE_TIME_IN_NS) / 1000;
 558              		.loc 1 529 3 discriminator 6 view .LVU153
 529:Lib/Camera_Middleware/sensors/vd1943/vd1943.c ****   *expo_in_us = (reg16 * VD1943_LINE_TIME_IN_NS) / 1000;
 559              		.loc 1 529 3 discriminator 8 view .LVU154
 530:Lib/Camera_Middleware/sensors/vd1943/vd1943.c **** 
 560              		.loc 1 530 3 view .LVU155
 530:Lib/Camera_Middleware/sensors/vd1943/vd1943.c **** 
 561              		.loc 1 530 24 is_stmt 0 view .LVU156
 562 0018 43F6A402 		movw	r2, #14500
 563 001c BDF81630 		ldrh	r3, [sp, #22]
 564 0020 5343     		muls	r3, r2, r3
 530:Lib/Camera_Middleware/sensors/vd1943/vd1943.c **** 
 565              		.loc 1 530 50 view .LVU157
 566 0022 4FF47A72 		mov	r2, #1000
 567 0026 B3FBF2F3 		udiv	r3, r3, r2
 530:Lib/Camera_Middleware/sensors/vd1943/vd1943.c **** 
 568              		.loc 1 530 15 view .LVU158
 569 002a 3360     		str	r3, [r6]
 532:Lib/Camera_Middleware/sensors/vd1943/vd1943.c **** }
 570              		.loc 1 532 3 is_stmt 1 view .LVU159
 571              	.LVL44:
 572              	.L36:
 533:Lib/Camera_Middleware/sensors/vd1943/vd1943.c **** 
 573              		.loc 1 533 1 is_stmt 0 view .LVU160
 574 002c 2046     		mov	r0, r4
 575 002e 06B0     		add	sp, sp, #24
 576              		.cfi_remember_state
 577              		.cfi_def_cfa_offset 16
 578              		@ sp needed
 579 0030 70BD     		pop	{r4, r5, r6, pc}
 580              	.LVL45:
 581              	.L37:
 582              		.cfi_restore_state
 529:Lib/Camera_Middleware/sensors/vd1943/vd1943.c ****   *expo_in_us = (reg16 * VD1943_LINE_TIME_IN_NS) / 1000;
 583              		.loc 1 529 3 is_stmt 1 discriminator 1 view .LVU161
 529:Lib/Camera_Middleware/sensors/vd1943/vd1943.c ****   *expo_in_us = (reg16 * VD1943_LINE_TIME_IN_NS) / 1000;
 584              		.loc 1 529 3 discriminator 1 view .LVU162
 585 0032 40F21123 		movw	r3, #529
 586 0036 064A     		ldr	r2, .L39
 587 0038 0290     		str	r0, [sp, #8]
 588 003a 0092     		str	r2, [sp]
 589 003c 2846     		mov	r0, r5
 590              	.LVL46:
 529:Lib/Camera_Middleware/sensors/vd1943/vd1943.c ****   *expo_in_us = (reg16 * VD1943_LINE_TIME_IN_NS) / 1000;
 591              		.loc 1 529 3 is_stmt 0 discriminator 1 view .LVU163
 592 003e 0021     		movs	r1, #0
 593 0040 044A     		ldr	r2, .L39+4
 594 0042 0193     		str	r3, [sp, #4]
 595 0044 FFF7FEFF 		bl	VD1943_log_impl
ARM GAS  C:\Users\DJESSOU\AppData\Local\Temp\cc3eovRL.s 			page 32


 596              	.LVL47:
 529:Lib/Camera_Middleware/sensors/vd1943/vd1943.c ****   *expo_in_us = (reg16 * VD1943_LINE_TIME_IN_NS) / 1000;
 597              		.loc 1 529 3 is_stmt 1 discriminator 3 view .LVU164
 529:Lib/Camera_Middleware/sensors/vd1943/vd1943.c ****   *expo_in_us = (reg16 * VD1943_LINE_TIME_IN_NS) / 1000;
 598              		.loc 1 529 3 discriminator 3 view .LVU165
 529:Lib/Camera_Middleware/sensors/vd1943/vd1943.c ****   *expo_in_us = (reg16 * VD1943_LINE_TIME_IN_NS) / 1000;
 599              		.loc 1 529 3 discriminator 4 view .LVU166
 600 0048 2846     		mov	r0, r5
 601 004a FFF7FEFF 		bl	display_error
 602              	.LVL48:
 529:Lib/Camera_Middleware/sensors/vd1943/vd1943.c ****   *expo_in_us = (reg16 * VD1943_LINE_TIME_IN_NS) / 1000;
 603              		.loc 1 529 3 discriminator 6 view .LVU167
 604 004e EDE7     		b	.L36
 605              	.L40:
 606              		.align	2
 607              	.L39:
 608 0050 00000000 		.word	__func__.31
 609 0054 00000000 		.word	.LC4
 610              		.cfi_endproc
 611              	.LFE14:
 613              		.section	.text.VD1943_GetExpo_GS,"ax",%progbits
 614              		.align	1
 615              		.syntax unified
 616              		.thumb
 617              		.thumb_func
 619              	VD1943_GetExpo_GS:
 620              	.LVL49:
 621              	.LFB17:
 567:Lib/Camera_Middleware/sensors/vd1943/vd1943.c ****   return VD1943_GetExpoCommon(ctx, expo_in_us);
 622              		.loc 1 567 1 view -0
 623              		.cfi_startproc
 624              		@ args = 0, pretend = 0, frame = 0
 625              		@ frame_needed = 0, uses_anonymous_args = 0
 626              		@ link register save eliminated.
 568:Lib/Camera_Middleware/sensors/vd1943/vd1943.c **** }
 627              		.loc 1 568 3 view .LVU169
 568:Lib/Camera_Middleware/sensors/vd1943/vd1943.c **** }
 628              		.loc 1 568 10 is_stmt 0 view .LVU170
 629 0000 FFF7FEBF 		b	VD1943_GetExpoCommon
 630              	.LVL50:
 568:Lib/Camera_Middleware/sensors/vd1943/vd1943.c **** }
 631              		.loc 1 568 10 view .LVU171
 632              		.cfi_endproc
 633              	.LFE17:
 635              		.section	.text.VD1943_SetExpo_RS,"ax",%progbits
 636              		.align	1
 637              		.syntax unified
 638              		.thumb
 639              		.thumb_func
 641              	VD1943_SetExpo_RS:
 642              	.LVL51:
 643              	.LFB18:
 572:Lib/Camera_Middleware/sensors/vd1943/vd1943.c ****   unsigned int expo_in_line = (expo_in_us * 1000 + VD1943_LINE_TIME_IN_NS - 1) / VD1943_LINE_TIME_I
 644              		.loc 1 572 1 is_stmt 1 view -0
 645              		.cfi_startproc
 646              		@ args = 0, pretend = 0, frame = 0
 647              		@ frame_needed = 0, uses_anonymous_args = 0
ARM GAS  C:\Users\DJESSOU\AppData\Local\Temp\cc3eovRL.s 			page 33


 573:Lib/Camera_Middleware/sensors/vd1943/vd1943.c ****   int ret;
 648              		.loc 1 573 3 view .LVU173
 573:Lib/Camera_Middleware/sensors/vd1943/vd1943.c ****   int ret;
 649              		.loc 1 573 75 is_stmt 0 view .LVU174
 650 0000 4FF47A72 		mov	r2, #1000
 651 0004 43F6A303 		movw	r3, #14499
 652 0008 02FB0131 		mla	r1, r2, r1, r3
 653              	.LVL52:
 576:Lib/Camera_Middleware/sensors/vd1943/vd1943.c ****     return -1;
 654              		.loc 1 576 6 view .LVU175
 655 000c 47F24713 		movw	r3, #28999
 573:Lib/Camera_Middleware/sensors/vd1943/vd1943.c ****   int ret;
 656              		.loc 1 573 16 view .LVU176
 657 0010 43F6A402 		movw	r2, #14500
 572:Lib/Camera_Middleware/sensors/vd1943/vd1943.c ****   unsigned int expo_in_line = (expo_in_us * 1000 + VD1943_LINE_TIME_IN_NS - 1) / VD1943_LINE_TIME_I
 658              		.loc 1 572 1 view .LVU177
 659 0014 30B5     		push	{r4, r5, lr}
 660              		.cfi_def_cfa_offset 12
 661              		.cfi_offset 4, -12
 662              		.cfi_offset 5, -8
 663              		.cfi_offset 14, -4
 576:Lib/Camera_Middleware/sensors/vd1943/vd1943.c ****     return -1;
 664              		.loc 1 576 6 view .LVU178
 665 0016 9942     		cmp	r1, r3
 572:Lib/Camera_Middleware/sensors/vd1943/vd1943.c ****   unsigned int expo_in_line = (expo_in_us * 1000 + VD1943_LINE_TIME_IN_NS - 1) / VD1943_LINE_TIME_I
 666              		.loc 1 572 1 view .LVU179
 667 0018 0546     		mov	r5, r0
 573:Lib/Camera_Middleware/sensors/vd1943/vd1943.c ****   int ret;
 668              		.loc 1 573 16 view .LVU180
 669 001a B1FBF2F2 		udiv	r2, r1, r2
 670              	.LVL53:
 574:Lib/Camera_Middleware/sensors/vd1943/vd1943.c **** 
 671              		.loc 1 574 3 is_stmt 1 view .LVU181
 576:Lib/Camera_Middleware/sensors/vd1943/vd1943.c ****     return -1;
 672              		.loc 1 576 3 view .LVU182
 572:Lib/Camera_Middleware/sensors/vd1943/vd1943.c ****   unsigned int expo_in_line = (expo_in_us * 1000 + VD1943_LINE_TIME_IN_NS - 1) / VD1943_LINE_TIME_I
 673              		.loc 1 572 1 is_stmt 0 view .LVU183
 674 001e 85B0     		sub	sp, sp, #20
 675              		.cfi_def_cfa_offset 32
 576:Lib/Camera_Middleware/sensors/vd1943/vd1943.c ****     return -1;
 676              		.loc 1 576 6 view .LVU184
 677 0020 17D9     		bls	.L45
 579:Lib/Camera_Middleware/sensors/vd1943/vd1943.c ****   VD1943_TraceError(ctx, ret);
 678              		.loc 1 579 3 is_stmt 1 view .LVU185
 579:Lib/Camera_Middleware/sensors/vd1943/vd1943.c ****   VD1943_TraceError(ctx, ret);
 679              		.loc 1 579 9 is_stmt 0 view .LVU186
 680 0022 40F67A41 		movw	r1, #3194
 681 0026 4369     		ldr	r3, [r0, #20]
 682 0028 92B2     		uxth	r2, r2
 683              	.LVL54:
 579:Lib/Camera_Middleware/sensors/vd1943/vd1943.c ****   VD1943_TraceError(ctx, ret);
 684              		.loc 1 579 9 view .LVU187
 685 002a 9847     		blx	r3
 686              	.LVL55:
 580:Lib/Camera_Middleware/sensors/vd1943/vd1943.c **** 
 687              		.loc 1 580 3 is_stmt 1 view .LVU188
 580:Lib/Camera_Middleware/sensors/vd1943/vd1943.c **** 
ARM GAS  C:\Users\DJESSOU\AppData\Local\Temp\cc3eovRL.s 			page 34


 688              		.loc 1 580 3 view .LVU189
 689 002c 0446     		mov	r4, r0
 690 002e 68B1     		cbz	r0, .L42
 580:Lib/Camera_Middleware/sensors/vd1943/vd1943.c **** 
 691              		.loc 1 580 3 discriminator 1 view .LVU190
 580:Lib/Camera_Middleware/sensors/vd1943/vd1943.c **** 
 692              		.loc 1 580 3 discriminator 1 view .LVU191
 693 0030 4FF41173 		mov	r3, #580
 694 0034 084A     		ldr	r2, .L49
 695 0036 0290     		str	r0, [sp, #8]
 696 0038 0092     		str	r2, [sp]
 697 003a 2846     		mov	r0, r5
 698              	.LVL56:
 580:Lib/Camera_Middleware/sensors/vd1943/vd1943.c **** 
 699              		.loc 1 580 3 is_stmt 0 discriminator 1 view .LVU192
 700 003c 0021     		movs	r1, #0
 701 003e 074A     		ldr	r2, .L49+4
 702 0040 0193     		str	r3, [sp, #4]
 703 0042 FFF7FEFF 		bl	VD1943_log_impl
 704              	.LVL57:
 580:Lib/Camera_Middleware/sensors/vd1943/vd1943.c **** 
 705              		.loc 1 580 3 is_stmt 1 discriminator 3 view .LVU193
 580:Lib/Camera_Middleware/sensors/vd1943/vd1943.c **** 
 706              		.loc 1 580 3 discriminator 3 view .LVU194
 580:Lib/Camera_Middleware/sensors/vd1943/vd1943.c **** 
 707              		.loc 1 580 3 discriminator 4 view .LVU195
 708 0046 2846     		mov	r0, r5
 709 0048 FFF7FEFF 		bl	display_error
 710              	.LVL58:
 711              	.L42:
 583:Lib/Camera_Middleware/sensors/vd1943/vd1943.c **** 
 712              		.loc 1 583 1 is_stmt 0 view .LVU196
 713 004c 2046     		mov	r0, r4
 714 004e 05B0     		add	sp, sp, #20
 715              		.cfi_remember_state
 716              		.cfi_def_cfa_offset 12
 717              		@ sp needed
 718 0050 30BD     		pop	{r4, r5, pc}
 719              	.LVL59:
 720              	.L45:
 721              		.cfi_restore_state
 577:Lib/Camera_Middleware/sensors/vd1943/vd1943.c **** 
 722              		.loc 1 577 12 view .LVU197
 723 0052 4FF0FF34 		mov	r4, #-1
 724 0056 F9E7     		b	.L42
 725              	.L50:
 726              		.align	2
 727              	.L49:
 728 0058 00000000 		.word	__func__.30
 729 005c 00000000 		.word	.LC4
 730              		.cfi_endproc
 731              	.LFE18:
 733              		.section	.text.VD1943_SetExpo_RS_HDR,"ax",%progbits
 734              		.align	1
 735              		.syntax unified
 736              		.thumb
 737              		.thumb_func
ARM GAS  C:\Users\DJESSOU\AppData\Local\Temp\cc3eovRL.s 			page 35


 739              	VD1943_SetExpo_RS_HDR:
 740              	.LVL60:
 741              	.LFB20:
 591:Lib/Camera_Middleware/sensors/vd1943/vd1943.c ****   /* we use a short expo ratio of 1/20 */
 742              		.loc 1 591 1 is_stmt 1 view -0
 743              		.cfi_startproc
 744              		@ args = 0, pretend = 0, frame = 0
 745              		@ frame_needed = 0, uses_anonymous_args = 0
 593:Lib/Camera_Middleware/sensors/vd1943/vd1943.c ****   int ret;
 746              		.loc 1 593 3 view .LVU199
 591:Lib/Camera_Middleware/sensors/vd1943/vd1943.c ****   /* we use a short expo ratio of 1/20 */
 747              		.loc 1 591 1 is_stmt 0 view .LVU200
 748 0000 7FB5     		push	{r0, r1, r2, r3, r4, r5, r6, lr}
 749              		.cfi_def_cfa_offset 32
 750              		.cfi_offset 4, -16
 751              		.cfi_offset 5, -12
 752              		.cfi_offset 6, -8
 753              		.cfi_offset 14, -4
 591:Lib/Camera_Middleware/sensors/vd1943/vd1943.c ****   /* we use a short expo ratio of 1/20 */
 754              		.loc 1 591 1 view .LVU201
 755 0002 0546     		mov	r5, r0
 756 0004 0E46     		mov	r6, r1
 757              	.LVL61:
 594:Lib/Camera_Middleware/sensors/vd1943/vd1943.c **** 
 758              		.loc 1 594 3 is_stmt 1 view .LVU202
 596:Lib/Camera_Middleware/sensors/vd1943/vd1943.c ****   if (ret)
 759              		.loc 1 596 3 view .LVU203
 596:Lib/Camera_Middleware/sensors/vd1943/vd1943.c ****   if (ret)
 760              		.loc 1 596 9 is_stmt 0 view .LVU204
 761 0006 FFF7FEFF 		bl	VD1943_SetExpo_RS
 762              	.LVL62:
 597:Lib/Camera_Middleware/sensors/vd1943/vd1943.c ****     return ret;
 763              		.loc 1 597 3 is_stmt 1 view .LVU205
 597:Lib/Camera_Middleware/sensors/vd1943/vd1943.c ****     return ret;
 764              		.loc 1 597 6 is_stmt 0 view .LVU206
 765 000a 0446     		mov	r4, r0
 766 000c 08BB     		cbnz	r0, .L51
 600:Lib/Camera_Middleware/sensors/vd1943/vd1943.c ****   ret = ctx->write16(ctx, VD1943_REG_INTEGRATION_TIME_SHORT(0), expo_short_in_line);
 767              		.loc 1 600 3 is_stmt 1 view .LVU207
 593:Lib/Camera_Middleware/sensors/vd1943/vd1943.c ****   int ret;
 768              		.loc 1 593 79 is_stmt 0 view .LVU208
 769 000e 3223     		movs	r3, #50
 770 0010 43F6A302 		movw	r2, #14499
 771 0014 03FB0622 		mla	r2, r3, r6, r2
 593:Lib/Camera_Middleware/sensors/vd1943/vd1943.c ****   int ret;
 772              		.loc 1 593 16 view .LVU209
 773 0018 43F6A403 		movw	r3, #14500
 774 001c B2FBF3F2 		udiv	r2, r2, r3
 775              	.LVL63:
 601:Lib/Camera_Middleware/sensors/vd1943/vd1943.c ****   VD1943_TraceError(ctx, ret);
 776              		.loc 1 601 3 is_stmt 1 view .LVU210
 600:Lib/Camera_Middleware/sensors/vd1943/vd1943.c ****   ret = ctx->write16(ctx, VD1943_REG_INTEGRATION_TIME_SHORT(0), expo_short_in_line);
 777              		.loc 1 600 22 is_stmt 0 view .LVU211
 778 0020 022A     		cmp	r2, #2
 779 0022 38BF     		it	cc
 780 0024 0222     		movcc	r2, #2
 781              	.LVL64:
ARM GAS  C:\Users\DJESSOU\AppData\Local\Temp\cc3eovRL.s 			page 36


 601:Lib/Camera_Middleware/sensors/vd1943/vd1943.c ****   VD1943_TraceError(ctx, ret);
 782              		.loc 1 601 9 view .LVU212
 783 0026 40F67E41 		movw	r1, #3198
 784 002a 2846     		mov	r0, r5
 785              	.LVL65:
 601:Lib/Camera_Middleware/sensors/vd1943/vd1943.c ****   VD1943_TraceError(ctx, ret);
 786              		.loc 1 601 9 view .LVU213
 787 002c 6B69     		ldr	r3, [r5, #20]
 788              	.LVL66:
 601:Lib/Camera_Middleware/sensors/vd1943/vd1943.c ****   VD1943_TraceError(ctx, ret);
 789              		.loc 1 601 9 view .LVU214
 790 002e 92B2     		uxth	r2, r2
 791 0030 9847     		blx	r3
 792              	.LVL67:
 602:Lib/Camera_Middleware/sensors/vd1943/vd1943.c **** 
 793              		.loc 1 602 3 is_stmt 1 view .LVU215
 602:Lib/Camera_Middleware/sensors/vd1943/vd1943.c **** 
 794              		.loc 1 602 3 view .LVU216
 795 0032 0446     		mov	r4, r0
 796 0034 68B1     		cbz	r0, .L51
 602:Lib/Camera_Middleware/sensors/vd1943/vd1943.c **** 
 797              		.loc 1 602 3 discriminator 1 view .LVU217
 602:Lib/Camera_Middleware/sensors/vd1943/vd1943.c **** 
 798              		.loc 1 602 3 discriminator 1 view .LVU218
 799 0036 40F25A23 		movw	r3, #602
 800 003a 074A     		ldr	r2, .L57
 801 003c 0290     		str	r0, [sp, #8]
 802 003e 0092     		str	r2, [sp]
 803 0040 2846     		mov	r0, r5
 804              	.LVL68:
 602:Lib/Camera_Middleware/sensors/vd1943/vd1943.c **** 
 805              		.loc 1 602 3 is_stmt 0 discriminator 1 view .LVU219
 806 0042 0021     		movs	r1, #0
 807 0044 054A     		ldr	r2, .L57+4
 808 0046 0193     		str	r3, [sp, #4]
 809 0048 FFF7FEFF 		bl	VD1943_log_impl
 810              	.LVL69:
 602:Lib/Camera_Middleware/sensors/vd1943/vd1943.c **** 
 811              		.loc 1 602 3 is_stmt 1 discriminator 3 view .LVU220
 602:Lib/Camera_Middleware/sensors/vd1943/vd1943.c **** 
 812              		.loc 1 602 3 discriminator 3 view .LVU221
 602:Lib/Camera_Middleware/sensors/vd1943/vd1943.c **** 
 813              		.loc 1 602 3 discriminator 4 view .LVU222
 814 004c 2846     		mov	r0, r5
 815 004e FFF7FEFF 		bl	display_error
 816              	.LVL70:
 817              	.L51:
 605:Lib/Camera_Middleware/sensors/vd1943/vd1943.c **** 
 818              		.loc 1 605 1 is_stmt 0 view .LVU223
 819 0052 2046     		mov	r0, r4
 820 0054 04B0     		add	sp, sp, #16
 821              		.cfi_def_cfa_offset 16
 822              		@ sp needed
 823 0056 70BD     		pop	{r4, r5, r6, pc}
 824              	.LVL71:
 825              	.L58:
 605:Lib/Camera_Middleware/sensors/vd1943/vd1943.c **** 
ARM GAS  C:\Users\DJESSOU\AppData\Local\Temp\cc3eovRL.s 			page 37


 826              		.loc 1 605 1 view .LVU224
 827              		.align	2
 828              	.L57:
 829 0058 00000000 		.word	__func__.32
 830 005c 00000000 		.word	.LC4
 831              		.cfi_endproc
 832              	.LFE20:
 834              		.section	.text.VD1943_SetDigitalGain_IR,"ax",%progbits
 835              		.align	1
 836              		.syntax unified
 837              		.thumb
 838              		.thumb_func
 840              	VD1943_SetDigitalGain_IR:
 841              	.LVL72:
 842              	.LFB12:
 500:Lib/Camera_Middleware/sensors/vd1943/vd1943.c ****   int ret;
 843              		.loc 1 500 1 is_stmt 1 view -0
 844              		.cfi_startproc
 845              		@ args = 0, pretend = 0, frame = 0
 846              		@ frame_needed = 0, uses_anonymous_args = 0
 501:Lib/Camera_Middleware/sensors/vd1943/vd1943.c **** 
 847              		.loc 1 501 3 view .LVU226
 503:Lib/Camera_Middleware/sensors/vd1943/vd1943.c ****   VD1943_TraceError(ctx, ret);
 848              		.loc 1 503 3 view .LVU227
 500:Lib/Camera_Middleware/sensors/vd1943/vd1943.c ****   int ret;
 849              		.loc 1 500 1 is_stmt 0 view .LVU228
 850 0000 30B5     		push	{r4, r5, lr}
 851              		.cfi_def_cfa_offset 12
 852              		.cfi_offset 4, -12
 853              		.cfi_offset 5, -8
 854              		.cfi_offset 14, -4
 503:Lib/Camera_Middleware/sensors/vd1943/vd1943.c ****   VD1943_TraceError(ctx, ret);
 855              		.loc 1 503 9 view .LVU229
 856 0002 8AB2     		uxth	r2, r1
 857 0004 4369     		ldr	r3, [r0, #20]
 858 0006 40F68641 		movw	r1, #3206
 859              	.LVL73:
 500:Lib/Camera_Middleware/sensors/vd1943/vd1943.c ****   int ret;
 860              		.loc 1 500 1 view .LVU230
 861 000a 85B0     		sub	sp, sp, #20
 862              		.cfi_def_cfa_offset 32
 500:Lib/Camera_Middleware/sensors/vd1943/vd1943.c ****   int ret;
 863              		.loc 1 500 1 view .LVU231
 864 000c 0546     		mov	r5, r0
 503:Lib/Camera_Middleware/sensors/vd1943/vd1943.c ****   VD1943_TraceError(ctx, ret);
 865              		.loc 1 503 9 view .LVU232
 866 000e 9847     		blx	r3
 867              	.LVL74:
 504:Lib/Camera_Middleware/sensors/vd1943/vd1943.c **** 
 868              		.loc 1 504 3 is_stmt 1 view .LVU233
 504:Lib/Camera_Middleware/sensors/vd1943/vd1943.c **** 
 869              		.loc 1 504 3 view .LVU234
 870 0010 0446     		mov	r4, r0
 871 0012 68B1     		cbz	r0, .L59
 504:Lib/Camera_Middleware/sensors/vd1943/vd1943.c **** 
 872              		.loc 1 504 3 discriminator 1 view .LVU235
 504:Lib/Camera_Middleware/sensors/vd1943/vd1943.c **** 
ARM GAS  C:\Users\DJESSOU\AppData\Local\Temp\cc3eovRL.s 			page 38


 873              		.loc 1 504 3 discriminator 1 view .LVU236
 874 0014 4FF4FC73 		mov	r3, #504
 875 0018 074A     		ldr	r2, .L64
 876 001a 0290     		str	r0, [sp, #8]
 877 001c 0092     		str	r2, [sp]
 878 001e 2846     		mov	r0, r5
 879              	.LVL75:
 504:Lib/Camera_Middleware/sensors/vd1943/vd1943.c **** 
 880              		.loc 1 504 3 is_stmt 0 discriminator 1 view .LVU237
 881 0020 0021     		movs	r1, #0
 882 0022 064A     		ldr	r2, .L64+4
 883 0024 0193     		str	r3, [sp, #4]
 884 0026 FFF7FEFF 		bl	VD1943_log_impl
 885              	.LVL76:
 504:Lib/Camera_Middleware/sensors/vd1943/vd1943.c **** 
 886              		.loc 1 504 3 is_stmt 1 discriminator 3 view .LVU238
 504:Lib/Camera_Middleware/sensors/vd1943/vd1943.c **** 
 887              		.loc 1 504 3 discriminator 3 view .LVU239
 504:Lib/Camera_Middleware/sensors/vd1943/vd1943.c **** 
 888              		.loc 1 504 3 discriminator 4 view .LVU240
 889 002a 2846     		mov	r0, r5
 890 002c FFF7FEFF 		bl	display_error
 891              	.LVL77:
 504:Lib/Camera_Middleware/sensors/vd1943/vd1943.c **** 
 892              		.loc 1 504 3 discriminator 6 view .LVU241
 893              	.L59:
 507:Lib/Camera_Middleware/sensors/vd1943/vd1943.c **** 
 894              		.loc 1 507 1 is_stmt 0 view .LVU242
 895 0030 2046     		mov	r0, r4
 896 0032 05B0     		add	sp, sp, #20
 897              		.cfi_def_cfa_offset 12
 898              		@ sp needed
 899 0034 30BD     		pop	{r4, r5, pc}
 900              	.LVL78:
 901              	.L65:
 507:Lib/Camera_Middleware/sensors/vd1943/vd1943.c **** 
 902              		.loc 1 507 1 view .LVU243
 903 0036 00BF     		.align	2
 904              	.L64:
 905 0038 00000000 		.word	__func__.29
 906 003c 00000000 		.word	.LC4
 907              		.cfi_endproc
 908              	.LFE12:
 910              		.section	.text.VD1943_SetDigitalGain_RGB,"ax",%progbits
 911              		.align	1
 912              		.syntax unified
 913              		.thumb
 914              		.thumb_func
 916              	VD1943_SetDigitalGain_RGB:
 917              	.LVL79:
 918              	.LFB11:
 486:Lib/Camera_Middleware/sensors/vd1943/vd1943.c ****   int ret;
 919              		.loc 1 486 1 is_stmt 1 view -0
 920              		.cfi_startproc
 921              		@ args = 0, pretend = 0, frame = 0
 922              		@ frame_needed = 0, uses_anonymous_args = 0
 487:Lib/Camera_Middleware/sensors/vd1943/vd1943.c **** 
ARM GAS  C:\Users\DJESSOU\AppData\Local\Temp\cc3eovRL.s 			page 39


 923              		.loc 1 487 3 view .LVU245
 489:Lib/Camera_Middleware/sensors/vd1943/vd1943.c ****   VD1943_TraceError(ctx, ret);
 924              		.loc 1 489 3 view .LVU246
 486:Lib/Camera_Middleware/sensors/vd1943/vd1943.c ****   int ret;
 925              		.loc 1 486 1 is_stmt 0 view .LVU247
 926 0000 7FB5     		push	{r0, r1, r2, r3, r4, r5, r6, lr}
 927              		.cfi_def_cfa_offset 32
 928              		.cfi_offset 4, -16
 929              		.cfi_offset 5, -12
 930              		.cfi_offset 6, -8
 931              		.cfi_offset 14, -4
 489:Lib/Camera_Middleware/sensors/vd1943/vd1943.c ****   VD1943_TraceError(ctx, ret);
 932              		.loc 1 489 9 view .LVU248
 933 0002 8EB2     		uxth	r6, r1
 934 0004 3246     		mov	r2, r6
 935 0006 4FF44861 		mov	r1, #3200
 936              	.LVL80:
 489:Lib/Camera_Middleware/sensors/vd1943/vd1943.c ****   VD1943_TraceError(ctx, ret);
 937              		.loc 1 489 9 view .LVU249
 938 000a 4369     		ldr	r3, [r0, #20]
 486:Lib/Camera_Middleware/sensors/vd1943/vd1943.c ****   int ret;
 939              		.loc 1 486 1 view .LVU250
 940 000c 0546     		mov	r5, r0
 489:Lib/Camera_Middleware/sensors/vd1943/vd1943.c ****   VD1943_TraceError(ctx, ret);
 941              		.loc 1 489 9 view .LVU251
 942 000e 9847     		blx	r3
 943              	.LVL81:
 490:Lib/Camera_Middleware/sensors/vd1943/vd1943.c ****   ret = ctx->write16(ctx, VD1943_DIGITAL_GAIN_G(0), gain);
 944              		.loc 1 490 3 is_stmt 1 view .LVU252
 490:Lib/Camera_Middleware/sensors/vd1943/vd1943.c ****   ret = ctx->write16(ctx, VD1943_DIGITAL_GAIN_G(0), gain);
 945              		.loc 1 490 3 view .LVU253
 946 0010 0446     		mov	r4, r0
 947 0012 58B9     		cbnz	r0, .L67
 490:Lib/Camera_Middleware/sensors/vd1943/vd1943.c ****   ret = ctx->write16(ctx, VD1943_DIGITAL_GAIN_G(0), gain);
 948              		.loc 1 490 3 discriminator 6 view .LVU254
 490:Lib/Camera_Middleware/sensors/vd1943/vd1943.c ****   ret = ctx->write16(ctx, VD1943_DIGITAL_GAIN_G(0), gain);
 949              		.loc 1 490 3 discriminator 8 view .LVU255
 491:Lib/Camera_Middleware/sensors/vd1943/vd1943.c ****   VD1943_TraceError(ctx, ret);
 950              		.loc 1 491 3 view .LVU256
 491:Lib/Camera_Middleware/sensors/vd1943/vd1943.c ****   VD1943_TraceError(ctx, ret);
 951              		.loc 1 491 9 is_stmt 0 view .LVU257
 952 0014 3246     		mov	r2, r6
 953 0016 40F68241 		movw	r1, #3202
 954 001a 2846     		mov	r0, r5
 955              	.LVL82:
 491:Lib/Camera_Middleware/sensors/vd1943/vd1943.c ****   VD1943_TraceError(ctx, ret);
 956              		.loc 1 491 9 view .LVU258
 957 001c 6B69     		ldr	r3, [r5, #20]
 958 001e 9847     		blx	r3
 959              	.LVL83:
 492:Lib/Camera_Middleware/sensors/vd1943/vd1943.c ****   ret = ctx->write16(ctx, VD1943_DIGITAL_GAIN_B(0), gain);
 960              		.loc 1 492 3 is_stmt 1 view .LVU259
 492:Lib/Camera_Middleware/sensors/vd1943/vd1943.c ****   ret = ctx->write16(ctx, VD1943_DIGITAL_GAIN_B(0), gain);
 961              		.loc 1 492 3 view .LVU260
 962 0020 0446     		mov	r4, r0
 963 0022 A0B1     		cbz	r0, .L73
 492:Lib/Camera_Middleware/sensors/vd1943/vd1943.c ****   ret = ctx->write16(ctx, VD1943_DIGITAL_GAIN_B(0), gain);
ARM GAS  C:\Users\DJESSOU\AppData\Local\Temp\cc3eovRL.s 			page 40


 964              		.loc 1 492 3 discriminator 1 view .LVU261
 492:Lib/Camera_Middleware/sensors/vd1943/vd1943.c ****   ret = ctx->write16(ctx, VD1943_DIGITAL_GAIN_B(0), gain);
 965              		.loc 1 492 3 discriminator 1 view .LVU262
 966 0024 4FF4F673 		mov	r3, #492
 967 0028 0290     		str	r0, [sp, #8]
 968 002a 02E0     		b	.L74
 969              	.L67:
 490:Lib/Camera_Middleware/sensors/vd1943/vd1943.c ****   ret = ctx->write16(ctx, VD1943_DIGITAL_GAIN_G(0), gain);
 970              		.loc 1 490 3 discriminator 1 view .LVU263
 490:Lib/Camera_Middleware/sensors/vd1943/vd1943.c ****   ret = ctx->write16(ctx, VD1943_DIGITAL_GAIN_G(0), gain);
 971              		.loc 1 490 3 discriminator 1 view .LVU264
 972 002c 4FF4F573 		mov	r3, #490
 973 0030 0290     		str	r0, [sp, #8]
 974              	.L74:
 494:Lib/Camera_Middleware/sensors/vd1943/vd1943.c **** 
 975              		.loc 1 494 3 is_stmt 0 discriminator 1 view .LVU265
 976 0032 0D4A     		ldr	r2, .L75
 977 0034 2846     		mov	r0, r5
 978              	.LVL84:
 494:Lib/Camera_Middleware/sensors/vd1943/vd1943.c **** 
 979              		.loc 1 494 3 discriminator 1 view .LVU266
 980 0036 0092     		str	r2, [sp]
 981 0038 0021     		movs	r1, #0
 982 003a 0C4A     		ldr	r2, .L75+4
 983 003c 0193     		str	r3, [sp, #4]
 984 003e FFF7FEFF 		bl	VD1943_log_impl
 985              	.LVL85:
 494:Lib/Camera_Middleware/sensors/vd1943/vd1943.c **** 
 986              		.loc 1 494 3 is_stmt 1 discriminator 3 view .LVU267
 494:Lib/Camera_Middleware/sensors/vd1943/vd1943.c **** 
 987              		.loc 1 494 3 discriminator 3 view .LVU268
 494:Lib/Camera_Middleware/sensors/vd1943/vd1943.c **** 
 988              		.loc 1 494 3 discriminator 4 view .LVU269
 989 0042 2846     		mov	r0, r5
 990 0044 FFF7FEFF 		bl	display_error
 991              	.LVL86:
 494:Lib/Camera_Middleware/sensors/vd1943/vd1943.c **** 
 992              		.loc 1 494 3 discriminator 6 view .LVU270
 494:Lib/Camera_Middleware/sensors/vd1943/vd1943.c **** 
 993              		.loc 1 494 3 discriminator 7 view .LVU271
 994              	.L66:
 497:Lib/Camera_Middleware/sensors/vd1943/vd1943.c **** 
 995              		.loc 1 497 1 is_stmt 0 view .LVU272
 996 0048 2046     		mov	r0, r4
 997 004a 04B0     		add	sp, sp, #16
 998              		.cfi_remember_state
 999              		.cfi_def_cfa_offset 16
 1000              		@ sp needed
 1001 004c 70BD     		pop	{r4, r5, r6, pc}
 1002              	.LVL87:
 1003              	.L73:
 1004              		.cfi_restore_state
 492:Lib/Camera_Middleware/sensors/vd1943/vd1943.c ****   ret = ctx->write16(ctx, VD1943_DIGITAL_GAIN_B(0), gain);
 1005              		.loc 1 492 3 is_stmt 1 discriminator 3 view .LVU273
 492:Lib/Camera_Middleware/sensors/vd1943/vd1943.c ****   ret = ctx->write16(ctx, VD1943_DIGITAL_GAIN_B(0), gain);
 1006              		.loc 1 492 3 discriminator 3 view .LVU274
 492:Lib/Camera_Middleware/sensors/vd1943/vd1943.c ****   ret = ctx->write16(ctx, VD1943_DIGITAL_GAIN_B(0), gain);
ARM GAS  C:\Users\DJESSOU\AppData\Local\Temp\cc3eovRL.s 			page 41


 1007              		.loc 1 492 3 discriminator 6 view .LVU275
 492:Lib/Camera_Middleware/sensors/vd1943/vd1943.c ****   ret = ctx->write16(ctx, VD1943_DIGITAL_GAIN_B(0), gain);
 1008              		.loc 1 492 3 discriminator 8 view .LVU276
 493:Lib/Camera_Middleware/sensors/vd1943/vd1943.c ****   VD1943_TraceError(ctx, ret);
 1009              		.loc 1 493 3 view .LVU277
 493:Lib/Camera_Middleware/sensors/vd1943/vd1943.c ****   VD1943_TraceError(ctx, ret);
 1010              		.loc 1 493 9 is_stmt 0 view .LVU278
 1011 004e 3246     		mov	r2, r6
 1012 0050 40F68441 		movw	r1, #3204
 1013 0054 2846     		mov	r0, r5
 1014              	.LVL88:
 493:Lib/Camera_Middleware/sensors/vd1943/vd1943.c ****   VD1943_TraceError(ctx, ret);
 1015              		.loc 1 493 9 view .LVU279
 1016 0056 6B69     		ldr	r3, [r5, #20]
 1017 0058 9847     		blx	r3
 1018              	.LVL89:
 494:Lib/Camera_Middleware/sensors/vd1943/vd1943.c **** 
 1019              		.loc 1 494 3 is_stmt 1 view .LVU280
 494:Lib/Camera_Middleware/sensors/vd1943/vd1943.c **** 
 1020              		.loc 1 494 3 view .LVU281
 1021 005a 0446     		mov	r4, r0
 1022 005c 0028     		cmp	r0, #0
 1023 005e F3D0     		beq	.L66
 494:Lib/Camera_Middleware/sensors/vd1943/vd1943.c **** 
 1024              		.loc 1 494 3 discriminator 1 view .LVU282
 494:Lib/Camera_Middleware/sensors/vd1943/vd1943.c **** 
 1025              		.loc 1 494 3 discriminator 1 view .LVU283
 1026 0060 4FF4F773 		mov	r3, #494
 1027 0064 0290     		str	r0, [sp, #8]
 1028 0066 E4E7     		b	.L74
 1029              	.L76:
 1030              		.align	2
 1031              	.L75:
 1032 0068 00000000 		.word	__func__.28
 1033 006c 00000000 		.word	.LC4
 1034              		.cfi_endproc
 1035              	.LFE11:
 1037              		.section	.text.VD1943_SetDigitalGain_RGBNIR,"ax",%progbits
 1038              		.align	1
 1039              		.syntax unified
 1040              		.thumb
 1041              		.thumb_func
 1043              	VD1943_SetDigitalGain_RGBNIR:
 1044              	.LVL90:
 1045              	.LFB13:
 510:Lib/Camera_Middleware/sensors/vd1943/vd1943.c ****   int ret;
 1046              		.loc 1 510 1 view -0
 1047              		.cfi_startproc
 1048              		@ args = 0, pretend = 0, frame = 0
 1049              		@ frame_needed = 0, uses_anonymous_args = 0
 511:Lib/Camera_Middleware/sensors/vd1943/vd1943.c **** 
 1050              		.loc 1 511 3 view .LVU285
 513:Lib/Camera_Middleware/sensors/vd1943/vd1943.c ****   if (ret)
 1051              		.loc 1 513 3 view .LVU286
 510:Lib/Camera_Middleware/sensors/vd1943/vd1943.c ****   int ret;
 1052              		.loc 1 510 1 is_stmt 0 view .LVU287
 1053 0000 38B5     		push	{r3, r4, r5, lr}
ARM GAS  C:\Users\DJESSOU\AppData\Local\Temp\cc3eovRL.s 			page 42


 1054              		.cfi_def_cfa_offset 16
 1055              		.cfi_offset 3, -16
 1056              		.cfi_offset 4, -12
 1057              		.cfi_offset 5, -8
 1058              		.cfi_offset 14, -4
 510:Lib/Camera_Middleware/sensors/vd1943/vd1943.c ****   int ret;
 1059              		.loc 1 510 1 view .LVU288
 1060 0002 0446     		mov	r4, r0
 1061 0004 0D46     		mov	r5, r1
 513:Lib/Camera_Middleware/sensors/vd1943/vd1943.c ****   if (ret)
 1062              		.loc 1 513 9 view .LVU289
 1063 0006 FFF7FEFF 		bl	VD1943_SetDigitalGain_RGB
 1064              	.LVL91:
 514:Lib/Camera_Middleware/sensors/vd1943/vd1943.c ****     return ret;
 1065              		.loc 1 514 3 is_stmt 1 view .LVU290
 514:Lib/Camera_Middleware/sensors/vd1943/vd1943.c ****     return ret;
 1066              		.loc 1 514 6 is_stmt 0 view .LVU291
 1067 000a 28B9     		cbnz	r0, .L77
 516:Lib/Camera_Middleware/sensors/vd1943/vd1943.c ****   if (ret)
 1068              		.loc 1 516 3 is_stmt 1 view .LVU292
 516:Lib/Camera_Middleware/sensors/vd1943/vd1943.c ****   if (ret)
 1069              		.loc 1 516 9 is_stmt 0 view .LVU293
 1070 000c 2946     		mov	r1, r5
 1071 000e 2046     		mov	r0, r4
 1072              	.LVL92:
 521:Lib/Camera_Middleware/sensors/vd1943/vd1943.c **** 
 1073              		.loc 1 521 1 view .LVU294
 1074 0010 BDE83840 		pop	{r3, r4, r5, lr}
 1075              		.cfi_remember_state
 1076              		.cfi_restore 14
 1077              		.cfi_restore 5
 1078              		.cfi_restore 4
 1079              		.cfi_restore 3
 1080              		.cfi_def_cfa_offset 0
 1081              	.LVL93:
 516:Lib/Camera_Middleware/sensors/vd1943/vd1943.c ****   if (ret)
 1082              		.loc 1 516 9 view .LVU295
 1083 0014 FFF7FEBF 		b	VD1943_SetDigitalGain_IR
 1084              	.LVL94:
 1085              	.L77:
 1086              		.cfi_restore_state
 521:Lib/Camera_Middleware/sensors/vd1943/vd1943.c **** 
 1087              		.loc 1 521 1 view .LVU296
 1088 0018 38BD     		pop	{r3, r4, r5, pc}
 521:Lib/Camera_Middleware/sensors/vd1943/vd1943.c **** 
 1089              		.loc 1 521 1 view .LVU297
 1090              		.cfi_endproc
 1091              	.LFE13:
 1093              		.section	.text.VD1943_SetExpoSplit_GS,"ax",%progbits
 1094              		.align	1
 1095              		.syntax unified
 1096              		.thumb
 1097              		.thumb_func
 1099              	VD1943_SetExpoSplit_GS:
 1100              	.LVL95:
 1101              	.LFB16:
 550:Lib/Camera_Middleware/sensors/vd1943/vd1943.c ****   unsigned int expo_in_line = (expo_in_us * 1000 + VD1943_LINE_TIME_IN_NS - 1) / VD1943_LINE_TIME_I
ARM GAS  C:\Users\DJESSOU\AppData\Local\Temp\cc3eovRL.s 			page 43


 1102              		.loc 1 550 1 is_stmt 1 view -0
 1103              		.cfi_startproc
 1104              		@ args = 0, pretend = 0, frame = 0
 1105              		@ frame_needed = 0, uses_anonymous_args = 0
 551:Lib/Camera_Middleware/sensors/vd1943/vd1943.c ****   int ret;
 1106              		.loc 1 551 3 view .LVU299
 550:Lib/Camera_Middleware/sensors/vd1943/vd1943.c ****   unsigned int expo_in_line = (expo_in_us * 1000 + VD1943_LINE_TIME_IN_NS - 1) / VD1943_LINE_TIME_I
 1107              		.loc 1 550 1 is_stmt 0 view .LVU300
 1108 0000 7FB5     		push	{r0, r1, r2, r3, r4, r5, r6, lr}
 1109              		.cfi_def_cfa_offset 32
 1110              		.cfi_offset 4, -16
 1111              		.cfi_offset 5, -12
 1112              		.cfi_offset 6, -8
 1113              		.cfi_offset 14, -4
 551:Lib/Camera_Middleware/sensors/vd1943/vd1943.c ****   int ret;
 1114              		.loc 1 551 75 view .LVU301
 1115 0002 43F6A303 		movw	r3, #14499
 1116 0006 4FF47A72 		mov	r2, #1000
 1117 000a 02FB0131 		mla	r1, r2, r1, r3
 1118              	.LVL96:
 554:Lib/Camera_Middleware/sensors/vd1943/vd1943.c ****     return -1;
 1119              		.loc 1 554 6 view .LVU302
 1120 000e 4EF28F23 		movw	r3, #57999
 551:Lib/Camera_Middleware/sensors/vd1943/vd1943.c ****   int ret;
 1121              		.loc 1 551 16 view .LVU303
 1122 0012 43F6A406 		movw	r6, #14500
 554:Lib/Camera_Middleware/sensors/vd1943/vd1943.c ****     return -1;
 1123              		.loc 1 554 6 view .LVU304
 1124 0016 9942     		cmp	r1, r3
 550:Lib/Camera_Middleware/sensors/vd1943/vd1943.c ****   unsigned int expo_in_line = (expo_in_us * 1000 + VD1943_LINE_TIME_IN_NS - 1) / VD1943_LINE_TIME_I
 1125              		.loc 1 550 1 view .LVU305
 1126 0018 0546     		mov	r5, r0
 551:Lib/Camera_Middleware/sensors/vd1943/vd1943.c ****   int ret;
 1127              		.loc 1 551 16 view .LVU306
 1128 001a B1FBF6F6 		udiv	r6, r1, r6
 1129              	.LVL97:
 552:Lib/Camera_Middleware/sensors/vd1943/vd1943.c **** 
 1130              		.loc 1 552 3 is_stmt 1 view .LVU307
 554:Lib/Camera_Middleware/sensors/vd1943/vd1943.c ****     return -1;
 1131              		.loc 1 554 3 view .LVU308
 554:Lib/Camera_Middleware/sensors/vd1943/vd1943.c ****     return -1;
 1132              		.loc 1 554 6 is_stmt 0 view .LVU309
 1133 001e 24D9     		bls	.L84
 557:Lib/Camera_Middleware/sensors/vd1943/vd1943.c ****   VD1943_TraceError(ctx, ret);
 1134              		.loc 1 557 3 is_stmt 1 view .LVU310
 557:Lib/Camera_Middleware/sensors/vd1943/vd1943.c ****   VD1943_TraceError(ctx, ret);
 1135              		.loc 1 557 9 is_stmt 0 view .LVU311
 1136 0020 B6B2     		uxth	r6, r6
 1137              	.LVL98:
 557:Lib/Camera_Middleware/sensors/vd1943/vd1943.c ****   VD1943_TraceError(ctx, ret);
 1138              		.loc 1 557 9 view .LVU312
 1139 0022 3246     		mov	r2, r6
 1140 0024 40F67A41 		movw	r1, #3194
 1141              	.LVL99:
 557:Lib/Camera_Middleware/sensors/vd1943/vd1943.c ****   VD1943_TraceError(ctx, ret);
 1142              		.loc 1 557 9 view .LVU313
 1143 0028 4369     		ldr	r3, [r0, #20]
ARM GAS  C:\Users\DJESSOU\AppData\Local\Temp\cc3eovRL.s 			page 44


 1144 002a 9847     		blx	r3
 1145              	.LVL100:
 558:Lib/Camera_Middleware/sensors/vd1943/vd1943.c **** 
 1146              		.loc 1 558 3 is_stmt 1 view .LVU314
 558:Lib/Camera_Middleware/sensors/vd1943/vd1943.c **** 
 1147              		.loc 1 558 3 view .LVU315
 1148 002c 0446     		mov	r4, r0
 1149 002e 58B9     		cbnz	r0, .L81
 558:Lib/Camera_Middleware/sensors/vd1943/vd1943.c **** 
 1150              		.loc 1 558 3 discriminator 6 view .LVU316
 558:Lib/Camera_Middleware/sensors/vd1943/vd1943.c **** 
 1151              		.loc 1 558 3 discriminator 8 view .LVU317
 560:Lib/Camera_Middleware/sensors/vd1943/vd1943.c ****   VD1943_TraceError(ctx, ret);
 1152              		.loc 1 560 3 view .LVU318
 560:Lib/Camera_Middleware/sensors/vd1943/vd1943.c ****   VD1943_TraceError(ctx, ret);
 1153              		.loc 1 560 9 is_stmt 0 view .LVU319
 1154 0030 3246     		mov	r2, r6
 1155 0032 40F67C41 		movw	r1, #3196
 1156 0036 2846     		mov	r0, r5
 1157              	.LVL101:
 560:Lib/Camera_Middleware/sensors/vd1943/vd1943.c ****   VD1943_TraceError(ctx, ret);
 1158              		.loc 1 560 9 view .LVU320
 1159 0038 6B69     		ldr	r3, [r5, #20]
 1160 003a 9847     		blx	r3
 1161              	.LVL102:
 561:Lib/Camera_Middleware/sensors/vd1943/vd1943.c **** 
 1162              		.loc 1 561 3 is_stmt 1 view .LVU321
 561:Lib/Camera_Middleware/sensors/vd1943/vd1943.c **** 
 1163              		.loc 1 561 3 view .LVU322
 1164 003c 0446     		mov	r4, r0
 1165 003e 88B1     		cbz	r0, .L79
 561:Lib/Camera_Middleware/sensors/vd1943/vd1943.c **** 
 1166              		.loc 1 561 3 discriminator 1 view .LVU323
 561:Lib/Camera_Middleware/sensors/vd1943/vd1943.c **** 
 1167              		.loc 1 561 3 discriminator 1 view .LVU324
 1168 0040 40F23123 		movw	r3, #561
 1169 0044 0290     		str	r0, [sp, #8]
 1170 0046 02E0     		b	.L85
 1171              	.L81:
 558:Lib/Camera_Middleware/sensors/vd1943/vd1943.c **** 
 1172              		.loc 1 558 3 discriminator 1 view .LVU325
 558:Lib/Camera_Middleware/sensors/vd1943/vd1943.c **** 
 1173              		.loc 1 558 3 discriminator 1 view .LVU326
 1174 0048 40F22E23 		movw	r3, #558
 1175 004c 0290     		str	r0, [sp, #8]
 1176              	.L85:
 561:Lib/Camera_Middleware/sensors/vd1943/vd1943.c **** 
 1177              		.loc 1 561 3 is_stmt 0 discriminator 1 view .LVU327
 1178 004e 084A     		ldr	r2, .L86
 1179 0050 2846     		mov	r0, r5
 1180              	.LVL103:
 561:Lib/Camera_Middleware/sensors/vd1943/vd1943.c **** 
 1181              		.loc 1 561 3 discriminator 1 view .LVU328
 1182 0052 0092     		str	r2, [sp]
 1183 0054 0021     		movs	r1, #0
 1184 0056 074A     		ldr	r2, .L86+4
 1185 0058 0193     		str	r3, [sp, #4]
ARM GAS  C:\Users\DJESSOU\AppData\Local\Temp\cc3eovRL.s 			page 45


 1186 005a FFF7FEFF 		bl	VD1943_log_impl
 1187              	.LVL104:
 561:Lib/Camera_Middleware/sensors/vd1943/vd1943.c **** 
 1188              		.loc 1 561 3 is_stmt 1 discriminator 3 view .LVU329
 561:Lib/Camera_Middleware/sensors/vd1943/vd1943.c **** 
 1189              		.loc 1 561 3 discriminator 3 view .LVU330
 561:Lib/Camera_Middleware/sensors/vd1943/vd1943.c **** 
 1190              		.loc 1 561 3 discriminator 4 view .LVU331
 1191 005e 2846     		mov	r0, r5
 1192 0060 FFF7FEFF 		bl	display_error
 1193              	.LVL105:
 561:Lib/Camera_Middleware/sensors/vd1943/vd1943.c **** 
 1194              		.loc 1 561 3 discriminator 6 view .LVU332
 561:Lib/Camera_Middleware/sensors/vd1943/vd1943.c **** 
 1195              		.loc 1 561 3 discriminator 7 view .LVU333
 1196              	.L79:
 564:Lib/Camera_Middleware/sensors/vd1943/vd1943.c **** 
 1197              		.loc 1 564 1 is_stmt 0 view .LVU334
 1198 0064 2046     		mov	r0, r4
 1199 0066 04B0     		add	sp, sp, #16
 1200              		.cfi_remember_state
 1201              		.cfi_def_cfa_offset 16
 1202              		@ sp needed
 1203 0068 70BD     		pop	{r4, r5, r6, pc}
 1204              	.LVL106:
 1205              	.L84:
 1206              		.cfi_restore_state
 555:Lib/Camera_Middleware/sensors/vd1943/vd1943.c **** 
 1207              		.loc 1 555 12 view .LVU335
 1208 006a 4FF0FF34 		mov	r4, #-1
 1209 006e F9E7     		b	.L79
 1210              	.L87:
 1211              		.align	2
 1212              	.L86:
 1213 0070 00000000 		.word	__func__.27
 1214 0074 00000000 		.word	.LC4
 1215              		.cfi_endproc
 1216              	.LFE16:
 1218              		.section	.text.VD1943_SetExpo_GS,"ax",%progbits
 1219              		.align	1
 1220              		.syntax unified
 1221              		.thumb
 1222              		.thumb_func
 1224              	VD1943_SetExpo_GS:
 1225              	.LVL107:
 1226              	.LFB15:
 536:Lib/Camera_Middleware/sensors/vd1943/vd1943.c ****   unsigned int expo_in_line = (expo_in_us * 1000 + VD1943_LINE_TIME_IN_NS - 1) / VD1943_LINE_TIME_I
 1227              		.loc 1 536 1 is_stmt 1 view -0
 1228              		.cfi_startproc
 1229              		@ args = 0, pretend = 0, frame = 0
 1230              		@ frame_needed = 0, uses_anonymous_args = 0
 537:Lib/Camera_Middleware/sensors/vd1943/vd1943.c ****   int ret;
 1231              		.loc 1 537 3 view .LVU337
 537:Lib/Camera_Middleware/sensors/vd1943/vd1943.c ****   int ret;
 1232              		.loc 1 537 75 is_stmt 0 view .LVU338
 1233 0000 4FF47A72 		mov	r2, #1000
 1234 0004 43F6A303 		movw	r3, #14499
ARM GAS  C:\Users\DJESSOU\AppData\Local\Temp\cc3eovRL.s 			page 46


 1235 0008 02FB0131 		mla	r1, r2, r1, r3
 1236              	.LVL108:
 540:Lib/Camera_Middleware/sensors/vd1943/vd1943.c ****     return -1;
 1237              		.loc 1 540 6 view .LVU339
 1238 000c 4EF28F23 		movw	r3, #57999
 537:Lib/Camera_Middleware/sensors/vd1943/vd1943.c ****   int ret;
 1239              		.loc 1 537 16 view .LVU340
 1240 0010 43F6A402 		movw	r2, #14500
 536:Lib/Camera_Middleware/sensors/vd1943/vd1943.c ****   unsigned int expo_in_line = (expo_in_us * 1000 + VD1943_LINE_TIME_IN_NS - 1) / VD1943_LINE_TIME_I
 1241              		.loc 1 536 1 view .LVU341
 1242 0014 30B5     		push	{r4, r5, lr}
 1243              		.cfi_def_cfa_offset 12
 1244              		.cfi_offset 4, -12
 1245              		.cfi_offset 5, -8
 1246              		.cfi_offset 14, -4
 540:Lib/Camera_Middleware/sensors/vd1943/vd1943.c ****     return -1;
 1247              		.loc 1 540 6 view .LVU342
 1248 0016 9942     		cmp	r1, r3
 536:Lib/Camera_Middleware/sensors/vd1943/vd1943.c ****   unsigned int expo_in_line = (expo_in_us * 1000 + VD1943_LINE_TIME_IN_NS - 1) / VD1943_LINE_TIME_I
 1249              		.loc 1 536 1 view .LVU343
 1250 0018 0546     		mov	r5, r0
 537:Lib/Camera_Middleware/sensors/vd1943/vd1943.c ****   int ret;
 1251              		.loc 1 537 16 view .LVU344
 1252 001a B1FBF2F2 		udiv	r2, r1, r2
 1253              	.LVL109:
 538:Lib/Camera_Middleware/sensors/vd1943/vd1943.c **** 
 1254              		.loc 1 538 3 is_stmt 1 view .LVU345
 540:Lib/Camera_Middleware/sensors/vd1943/vd1943.c ****     return -1;
 1255              		.loc 1 540 3 view .LVU346
 536:Lib/Camera_Middleware/sensors/vd1943/vd1943.c ****   unsigned int expo_in_line = (expo_in_us * 1000 + VD1943_LINE_TIME_IN_NS - 1) / VD1943_LINE_TIME_I
 1256              		.loc 1 536 1 is_stmt 0 view .LVU347
 1257 001e 85B0     		sub	sp, sp, #20
 1258              		.cfi_def_cfa_offset 32
 540:Lib/Camera_Middleware/sensors/vd1943/vd1943.c ****     return -1;
 1259              		.loc 1 540 6 view .LVU348
 1260 0020 17D9     		bls	.L91
 543:Lib/Camera_Middleware/sensors/vd1943/vd1943.c ****   VD1943_TraceError(ctx, ret);
 1261              		.loc 1 543 3 is_stmt 1 view .LVU349
 543:Lib/Camera_Middleware/sensors/vd1943/vd1943.c ****   VD1943_TraceError(ctx, ret);
 1262              		.loc 1 543 9 is_stmt 0 view .LVU350
 1263 0022 40F67A41 		movw	r1, #3194
 1264 0026 4369     		ldr	r3, [r0, #20]
 1265 0028 92B2     		uxth	r2, r2
 1266              	.LVL110:
 543:Lib/Camera_Middleware/sensors/vd1943/vd1943.c ****   VD1943_TraceError(ctx, ret);
 1267              		.loc 1 543 9 view .LVU351
 1268 002a 9847     		blx	r3
 1269              	.LVL111:
 544:Lib/Camera_Middleware/sensors/vd1943/vd1943.c **** 
 1270              		.loc 1 544 3 is_stmt 1 view .LVU352
 544:Lib/Camera_Middleware/sensors/vd1943/vd1943.c **** 
 1271              		.loc 1 544 3 view .LVU353
 1272 002c 0446     		mov	r4, r0
 1273 002e 68B1     		cbz	r0, .L88
 544:Lib/Camera_Middleware/sensors/vd1943/vd1943.c **** 
 1274              		.loc 1 544 3 discriminator 1 view .LVU354
 544:Lib/Camera_Middleware/sensors/vd1943/vd1943.c **** 
ARM GAS  C:\Users\DJESSOU\AppData\Local\Temp\cc3eovRL.s 			page 47


 1275              		.loc 1 544 3 discriminator 1 view .LVU355
 1276 0030 4FF40873 		mov	r3, #544
 1277 0034 084A     		ldr	r2, .L95
 1278 0036 0290     		str	r0, [sp, #8]
 1279 0038 0092     		str	r2, [sp]
 1280 003a 2846     		mov	r0, r5
 1281              	.LVL112:
 544:Lib/Camera_Middleware/sensors/vd1943/vd1943.c **** 
 1282              		.loc 1 544 3 is_stmt 0 discriminator 1 view .LVU356
 1283 003c 0021     		movs	r1, #0
 1284 003e 074A     		ldr	r2, .L95+4
 1285 0040 0193     		str	r3, [sp, #4]
 1286 0042 FFF7FEFF 		bl	VD1943_log_impl
 1287              	.LVL113:
 544:Lib/Camera_Middleware/sensors/vd1943/vd1943.c **** 
 1288              		.loc 1 544 3 is_stmt 1 discriminator 3 view .LVU357
 544:Lib/Camera_Middleware/sensors/vd1943/vd1943.c **** 
 1289              		.loc 1 544 3 discriminator 3 view .LVU358
 544:Lib/Camera_Middleware/sensors/vd1943/vd1943.c **** 
 1290              		.loc 1 544 3 discriminator 4 view .LVU359
 1291 0046 2846     		mov	r0, r5
 1292 0048 FFF7FEFF 		bl	display_error
 1293              	.LVL114:
 1294              	.L88:
 547:Lib/Camera_Middleware/sensors/vd1943/vd1943.c **** 
 1295              		.loc 1 547 1 is_stmt 0 view .LVU360
 1296 004c 2046     		mov	r0, r4
 1297 004e 05B0     		add	sp, sp, #20
 1298              		.cfi_remember_state
 1299              		.cfi_def_cfa_offset 12
 1300              		@ sp needed
 1301 0050 30BD     		pop	{r4, r5, pc}
 1302              	.LVL115:
 1303              	.L91:
 1304              		.cfi_restore_state
 541:Lib/Camera_Middleware/sensors/vd1943/vd1943.c **** 
 1305              		.loc 1 541 12 view .LVU361
 1306 0052 4FF0FF34 		mov	r4, #-1
 1307 0056 F9E7     		b	.L88
 1308              	.L96:
 1309              		.align	2
 1310              	.L95:
 1311 0058 00000000 		.word	__func__.26
 1312 005c 00000000 		.word	.LC4
 1313              		.cfi_endproc
 1314              	.LFE15:
 1316              		.section	.rodata.VD1943_ApplyCmdAndWait.str1.1,"aMS",%progbits,1
 1317              	.LC6:
 1318 0000 56443139 		.ascii	"VD1943_DG%d-%d : Apply cmd %d to 0x%04x\012\000"
 1318      34335F44 
 1318      4725642D 
 1318      2564203A 
 1318      20417070 
 1319              		.section	.text.VD1943_ApplyCmdAndWait,"ax",%progbits
 1320              		.align	1
 1321              		.syntax unified
 1322              		.thumb
ARM GAS  C:\Users\DJESSOU\AppData\Local\Temp\cc3eovRL.s 			page 48


 1323              		.thumb_func
 1325              	VD1943_ApplyCmdAndWait:
 1326              	.LVL116:
 1327              	.LFB4:
 311:Lib/Camera_Middleware/sensors/vd1943/vd1943.c ****   int ret;
 1328              		.loc 1 311 1 is_stmt 1 view -0
 1329              		.cfi_startproc
 1330              		@ args = 0, pretend = 0, frame = 0
 1331              		@ frame_needed = 0, uses_anonymous_args = 0
 312:Lib/Camera_Middleware/sensors/vd1943/vd1943.c **** 
 1332              		.loc 1 312 3 view .LVU363
 314:Lib/Camera_Middleware/sensors/vd1943/vd1943.c ****   ret = ctx->write8(ctx, addr, cmd);
 1333              		.loc 1 314 3 view .LVU364
 314:Lib/Camera_Middleware/sensors/vd1943/vd1943.c ****   ret = ctx->write8(ctx, addr, cmd);
 1334              		.loc 1 314 3 view .LVU365
 311:Lib/Camera_Middleware/sensors/vd1943/vd1943.c ****   int ret;
 1335              		.loc 1 311 1 is_stmt 0 view .LVU366
 1336 0000 7FB5     		push	{r0, r1, r2, r3, r4, r5, r6, lr}
 1337              		.cfi_def_cfa_offset 32
 1338              		.cfi_offset 4, -16
 1339              		.cfi_offset 5, -12
 1340              		.cfi_offset 6, -8
 1341              		.cfi_offset 14, -4
 314:Lib/Camera_Middleware/sensors/vd1943/vd1943.c ****   ret = ctx->write8(ctx, addr, cmd);
 1342              		.loc 1 314 3 view .LVU367
 1343 0002 4FF49D73 		mov	r3, #314
 311:Lib/Camera_Middleware/sensors/vd1943/vd1943.c ****   int ret;
 1344              		.loc 1 311 1 view .LVU368
 1345 0006 0546     		mov	r5, r0
 1346 0008 1446     		mov	r4, r2
 1347 000a 0E46     		mov	r6, r1
 314:Lib/Camera_Middleware/sensors/vd1943/vd1943.c ****   ret = ctx->write8(ctx, addr, cmd);
 1348              		.loc 1 314 3 view .LVU369
 1349 000c CDE90121 		strd	r2, r1, [sp, #4]
 1350 0010 0093     		str	r3, [sp]
 1351 0012 0321     		movs	r1, #3
 1352              	.LVL117:
 314:Lib/Camera_Middleware/sensors/vd1943/vd1943.c ****   ret = ctx->write8(ctx, addr, cmd);
 1353              		.loc 1 314 3 view .LVU370
 1354 0014 0023     		movs	r3, #0
 1355 0016 134A     		ldr	r2, .L103
 1356              	.LVL118:
 314:Lib/Camera_Middleware/sensors/vd1943/vd1943.c ****   ret = ctx->write8(ctx, addr, cmd);
 1357              		.loc 1 314 3 view .LVU371
 1358 0018 FFF7FEFF 		bl	VD1943_log_impl
 1359              	.LVL119:
 314:Lib/Camera_Middleware/sensors/vd1943/vd1943.c ****   ret = ctx->write8(ctx, addr, cmd);
 1360              		.loc 1 314 3 is_stmt 1 discriminator 1 view .LVU372
 315:Lib/Camera_Middleware/sensors/vd1943/vd1943.c ****   VD1943_TraceError(ctx, ret);
 1361              		.loc 1 315 3 view .LVU373
 315:Lib/Camera_Middleware/sensors/vd1943/vd1943.c ****   VD1943_TraceError(ctx, ret);
 1362              		.loc 1 315 9 is_stmt 0 view .LVU374
 1363 001c 2246     		mov	r2, r4
 1364 001e 3146     		mov	r1, r6
 1365 0020 2846     		mov	r0, r5
 1366 0022 2B69     		ldr	r3, [r5, #16]
 1367 0024 9847     		blx	r3
ARM GAS  C:\Users\DJESSOU\AppData\Local\Temp\cc3eovRL.s 			page 49


 1368              	.LVL120:
 316:Lib/Camera_Middleware/sensors/vd1943/vd1943.c **** 
 1369              		.loc 1 316 3 is_stmt 1 view .LVU375
 316:Lib/Camera_Middleware/sensors/vd1943/vd1943.c **** 
 1370              		.loc 1 316 3 view .LVU376
 1371 0026 0446     		mov	r4, r0
 1372              	.LVL121:
 316:Lib/Camera_Middleware/sensors/vd1943/vd1943.c **** 
 1373              		.loc 1 316 3 is_stmt 0 view .LVU377
 1374 0028 50B9     		cbnz	r0, .L98
 316:Lib/Camera_Middleware/sensors/vd1943/vd1943.c **** 
 1375              		.loc 1 316 3 is_stmt 1 discriminator 6 view .LVU378
 316:Lib/Camera_Middleware/sensors/vd1943/vd1943.c **** 
 1376              		.loc 1 316 3 discriminator 8 view .LVU379
 318:Lib/Camera_Middleware/sensors/vd1943/vd1943.c ****   VD1943_TraceError(ctx, ret);
 1377              		.loc 1 318 3 view .LVU380
 318:Lib/Camera_Middleware/sensors/vd1943/vd1943.c ****   VD1943_TraceError(ctx, ret);
 1378              		.loc 1 318 9 is_stmt 0 view .LVU381
 1379 002a 0246     		mov	r2, r0
 1380 002c 3146     		mov	r1, r6
 1381 002e 2846     		mov	r0, r5
 1382              	.LVL122:
 318:Lib/Camera_Middleware/sensors/vd1943/vd1943.c ****   VD1943_TraceError(ctx, ret);
 1383              		.loc 1 318 9 view .LVU382
 1384 0030 FFF7FEFF 		bl	VD1943_PollReg8
 1385              	.LVL123:
 319:Lib/Camera_Middleware/sensors/vd1943/vd1943.c **** 
 1386              		.loc 1 319 3 is_stmt 1 view .LVU383
 319:Lib/Camera_Middleware/sensors/vd1943/vd1943.c **** 
 1387              		.loc 1 319 3 view .LVU384
 1388 0034 0446     		mov	r4, r0
 1389 0036 88B1     		cbz	r0, .L97
 319:Lib/Camera_Middleware/sensors/vd1943/vd1943.c **** 
 1390              		.loc 1 319 3 discriminator 1 view .LVU385
 319:Lib/Camera_Middleware/sensors/vd1943/vd1943.c **** 
 1391              		.loc 1 319 3 discriminator 1 view .LVU386
 1392 0038 40F23F13 		movw	r3, #319
 1393 003c 0290     		str	r0, [sp, #8]
 1394 003e 02E0     		b	.L102
 1395              	.L98:
 316:Lib/Camera_Middleware/sensors/vd1943/vd1943.c **** 
 1396              		.loc 1 316 3 discriminator 1 view .LVU387
 316:Lib/Camera_Middleware/sensors/vd1943/vd1943.c **** 
 1397              		.loc 1 316 3 discriminator 1 view .LVU388
 1398 0040 4FF49E73 		mov	r3, #316
 1399 0044 0290     		str	r0, [sp, #8]
 1400              	.L102:
 319:Lib/Camera_Middleware/sensors/vd1943/vd1943.c **** 
 1401              		.loc 1 319 3 is_stmt 0 discriminator 1 view .LVU389
 1402 0046 084A     		ldr	r2, .L103+4
 1403 0048 2846     		mov	r0, r5
 1404              	.LVL124:
 319:Lib/Camera_Middleware/sensors/vd1943/vd1943.c **** 
 1405              		.loc 1 319 3 discriminator 1 view .LVU390
 1406 004a 0092     		str	r2, [sp]
 1407 004c 0021     		movs	r1, #0
 1408 004e 074A     		ldr	r2, .L103+8
ARM GAS  C:\Users\DJESSOU\AppData\Local\Temp\cc3eovRL.s 			page 50


 1409 0050 0193     		str	r3, [sp, #4]
 1410 0052 FFF7FEFF 		bl	VD1943_log_impl
 1411              	.LVL125:
 319:Lib/Camera_Middleware/sensors/vd1943/vd1943.c **** 
 1412              		.loc 1 319 3 is_stmt 1 discriminator 3 view .LVU391
 319:Lib/Camera_Middleware/sensors/vd1943/vd1943.c **** 
 1413              		.loc 1 319 3 discriminator 3 view .LVU392
 319:Lib/Camera_Middleware/sensors/vd1943/vd1943.c **** 
 1414              		.loc 1 319 3 discriminator 4 view .LVU393
 1415 0056 2846     		mov	r0, r5
 1416 0058 FFF7FEFF 		bl	display_error
 1417              	.LVL126:
 319:Lib/Camera_Middleware/sensors/vd1943/vd1943.c **** 
 1418              		.loc 1 319 3 discriminator 6 view .LVU394
 319:Lib/Camera_Middleware/sensors/vd1943/vd1943.c **** 
 1419              		.loc 1 319 3 discriminator 7 view .LVU395
 1420              	.L97:
 322:Lib/Camera_Middleware/sensors/vd1943/vd1943.c **** 
 1421              		.loc 1 322 1 is_stmt 0 view .LVU396
 1422 005c 2046     		mov	r0, r4
 1423 005e 04B0     		add	sp, sp, #16
 1424              		.cfi_def_cfa_offset 16
 1425              		@ sp needed
 1426 0060 70BD     		pop	{r4, r5, r6, pc}
 1427              	.LVL127:
 1428              	.L104:
 322:Lib/Camera_Middleware/sensors/vd1943/vd1943.c **** 
 1429              		.loc 1 322 1 view .LVU397
 1430 0062 00BF     		.align	2
 1431              	.L103:
 1432 0064 00000000 		.word	.LC6
 1433 0068 00000000 		.word	__func__.24
 1434 006c 00000000 		.word	.LC4
 1435              		.cfi_endproc
 1436              	.LFE4:
 1438              		.section	.rodata.VD1943_WaitState.str1.1,"aMS",%progbits,1
 1439              	.LC7:
 1440 0000 56443139 		.ascii	"VD1943_WRN-%d : Unable to reach state %d\012\000"
 1440      34335F57 
 1440      524E2D25 
 1440      64203A20 
 1440      556E6162 
 1441              	.LC8:
 1442 002a 56443139 		.ascii	"VD1943_DG%d-%d : reach state %d\012\000"
 1442      34335F44 
 1442      4725642D 
 1442      2564203A 
 1442      20726561 
 1443              		.section	.text.VD1943_WaitState,"ax",%progbits
 1444              		.align	1
 1445              		.syntax unified
 1446              		.thumb
 1447              		.thumb_func
 1449              	VD1943_WaitState:
 1450              	.LVL128:
 1451              	.LFB3:
 299:Lib/Camera_Middleware/sensors/vd1943/vd1943.c ****   int ret = VD1943_PollReg8(ctx, VD1943_REG_SYSTEM_FSM_STATE, state);
ARM GAS  C:\Users\DJESSOU\AppData\Local\Temp\cc3eovRL.s 			page 51


 1452              		.loc 1 299 1 is_stmt 1 view -0
 1453              		.cfi_startproc
 1454              		@ args = 0, pretend = 0, frame = 0
 1455              		@ frame_needed = 0, uses_anonymous_args = 0
 300:Lib/Camera_Middleware/sensors/vd1943/vd1943.c **** 
 1456              		.loc 1 300 3 view .LVU399
 299:Lib/Camera_Middleware/sensors/vd1943/vd1943.c ****   int ret = VD1943_PollReg8(ctx, VD1943_REG_SYSTEM_FSM_STATE, state);
 1457              		.loc 1 299 1 is_stmt 0 view .LVU400
 1458 0000 73B5     		push	{r0, r1, r4, r5, r6, lr}
 1459              		.cfi_def_cfa_offset 24
 1460              		.cfi_offset 4, -16
 1461              		.cfi_offset 5, -12
 1462              		.cfi_offset 6, -8
 1463              		.cfi_offset 14, -4
 300:Lib/Camera_Middleware/sensors/vd1943/vd1943.c **** 
 1464              		.loc 1 300 13 view .LVU401
 1465 0002 CAB2     		uxtb	r2, r1
 299:Lib/Camera_Middleware/sensors/vd1943/vd1943.c ****   int ret = VD1943_PollReg8(ctx, VD1943_REG_SYSTEM_FSM_STATE, state);
 1466              		.loc 1 299 1 view .LVU402
 1467 0004 0D46     		mov	r5, r1
 300:Lib/Camera_Middleware/sensors/vd1943/vd1943.c **** 
 1468              		.loc 1 300 13 view .LVU403
 1469 0006 4421     		movs	r1, #68
 1470              	.LVL129:
 299:Lib/Camera_Middleware/sensors/vd1943/vd1943.c ****   int ret = VD1943_PollReg8(ctx, VD1943_REG_SYSTEM_FSM_STATE, state);
 1471              		.loc 1 299 1 view .LVU404
 1472 0008 0646     		mov	r6, r0
 300:Lib/Camera_Middleware/sensors/vd1943/vd1943.c **** 
 1473              		.loc 1 300 13 view .LVU405
 1474 000a FFF7FEFF 		bl	VD1943_PollReg8
 1475              	.LVL130:
 302:Lib/Camera_Middleware/sensors/vd1943/vd1943.c ****     VD1943_warn(ctx, "Unable to reach state %d\n", state);
 1476              		.loc 1 302 3 is_stmt 1 view .LVU406
 302:Lib/Camera_Middleware/sensors/vd1943/vd1943.c ****     VD1943_warn(ctx, "Unable to reach state %d\n", state);
 1477              		.loc 1 302 6 is_stmt 0 view .LVU407
 1478 000e 0446     		mov	r4, r0
 1479 0010 50B1     		cbz	r0, .L106
 303:Lib/Camera_Middleware/sensors/vd1943/vd1943.c ****   else
 1480              		.loc 1 303 5 is_stmt 1 view .LVU408
 303:Lib/Camera_Middleware/sensors/vd1943/vd1943.c ****   else
 1481              		.loc 1 303 5 view .LVU409
 1482 0012 40F22F13 		movw	r3, #303
 1483 0016 0121     		movs	r1, #1
 1484 0018 3046     		mov	r0, r6
 1485              	.LVL131:
 303:Lib/Camera_Middleware/sensors/vd1943/vd1943.c ****   else
 1486              		.loc 1 303 5 is_stmt 0 view .LVU410
 1487 001a 094A     		ldr	r2, .L108
 1488 001c 0095     		str	r5, [sp]
 1489 001e FFF7FEFF 		bl	VD1943_log_impl
 1490              	.LVL132:
 303:Lib/Camera_Middleware/sensors/vd1943/vd1943.c ****   else
 1491              		.loc 1 303 5 is_stmt 1 discriminator 1 view .LVU411
 1492              	.L105:
 308:Lib/Camera_Middleware/sensors/vd1943/vd1943.c **** 
 1493              		.loc 1 308 1 is_stmt 0 view .LVU412
 1494 0022 2046     		mov	r0, r4
ARM GAS  C:\Users\DJESSOU\AppData\Local\Temp\cc3eovRL.s 			page 52


 1495 0024 02B0     		add	sp, sp, #8
 1496              		.cfi_remember_state
 1497              		.cfi_def_cfa_offset 16
 1498              		@ sp needed
 1499 0026 70BD     		pop	{r4, r5, r6, pc}
 1500              	.LVL133:
 1501              	.L106:
 1502              		.cfi_restore_state
 1503              	.LBB8:
 1504              	.LBI8:
 298:Lib/Camera_Middleware/sensors/vd1943/vd1943.c **** {
 1505              		.loc 1 298 12 is_stmt 1 view .LVU413
 1506              	.LBB9:
 305:Lib/Camera_Middleware/sensors/vd1943/vd1943.c **** 
 1507              		.loc 1 305 5 view .LVU414
 305:Lib/Camera_Middleware/sensors/vd1943/vd1943.c **** 
 1508              		.loc 1 305 5 view .LVU415
 1509 0028 40F23113 		movw	r3, #305
 1510 002c 0321     		movs	r1, #3
 1511 002e 0093     		str	r3, [sp]
 1512 0030 044A     		ldr	r2, .L108+4
 1513 0032 0346     		mov	r3, r0
 1514 0034 0195     		str	r5, [sp, #4]
 1515 0036 3046     		mov	r0, r6
 1516              	.LVL134:
 305:Lib/Camera_Middleware/sensors/vd1943/vd1943.c **** 
 1517              		.loc 1 305 5 is_stmt 0 view .LVU416
 1518 0038 FFF7FEFF 		bl	VD1943_log_impl
 1519              	.LVL135:
 305:Lib/Camera_Middleware/sensors/vd1943/vd1943.c **** 
 1520              		.loc 1 305 5 view .LVU417
 1521              	.LBE9:
 1522              	.LBE8:
 305:Lib/Camera_Middleware/sensors/vd1943/vd1943.c **** 
 1523              		.loc 1 305 5 is_stmt 1 discriminator 1 view .LVU418
 307:Lib/Camera_Middleware/sensors/vd1943/vd1943.c **** }
 1524              		.loc 1 307 3 view .LVU419
 307:Lib/Camera_Middleware/sensors/vd1943/vd1943.c **** }
 1525              		.loc 1 307 10 is_stmt 0 view .LVU420
 1526 003c F1E7     		b	.L105
 1527              	.L109:
 1528 003e 00BF     		.align	2
 1529              	.L108:
 1530 0040 00000000 		.word	.LC7
 1531 0044 2A000000 		.word	.LC8
 1532              		.cfi_endproc
 1533              	.LFE3:
 1535              		.section	.text.VD1943_GetExpo_RS,"ax",%progbits
 1536              		.align	1
 1537              		.syntax unified
 1538              		.thumb
 1539              		.thumb_func
 1541              	VD1943_GetExpo_RS:
 1542              	.LFB61:
 1543              		.cfi_startproc
 585:Lib/Camera_Middleware/sensors/vd1943/vd1943.c **** {
 1544              		.loc 1 585 12 is_stmt 1 view -0
ARM GAS  C:\Users\DJESSOU\AppData\Local\Temp\cc3eovRL.s 			page 53


 1545              		@ args = 0, pretend = 0, frame = 0
 1546              		@ frame_needed = 0, uses_anonymous_args = 0
 1547              		@ link register save eliminated.
 1548 0000 FFF7FEBF 		b	VD1943_GetExpoCommon
 1549              		.cfi_endproc
 1550              	.LFE61:
 1552              		.section	.text.VD1943_GetExposureRange,"ax",%progbits
 1553              		.align	1
 1554              		.global	VD1943_GetExposureRange
 1555              		.syntax unified
 1556              		.thumb
 1557              		.thumb_func
 1559              	VD1943_GetExposureRange:
 1560              	.LVL136:
 1561              	.LFB35:
1089:Lib/Camera_Middleware/sensors/vd1943/vd1943.c **** 
1090:Lib/Camera_Middleware/sensors/vd1943/vd1943.c **** static int VD1943_SetupFrameRate(VD1943_Ctx_t *ctx)
1091:Lib/Camera_Middleware/sensors/vd1943/vd1943.c **** {
1092:Lib/Camera_Middleware/sensors/vd1943/vd1943.c ****   struct drv_vd1943_ctx *drv_vd1943_ctx = &ctx->ctx;
1093:Lib/Camera_Middleware/sensors/vd1943/vd1943.c ****   uint16_t frame_length;
1094:Lib/Camera_Middleware/sensors/vd1943/vd1943.c ****   int ret;
1095:Lib/Camera_Middleware/sensors/vd1943/vd1943.c **** 
1096:Lib/Camera_Middleware/sensors/vd1943/vd1943.c ****   ret = VD1943_SetupLineLen(ctx);
1097:Lib/Camera_Middleware/sensors/vd1943/vd1943.c ****   if (ret)
1098:Lib/Camera_Middleware/sensors/vd1943/vd1943.c ****     return ret;
1099:Lib/Camera_Middleware/sensors/vd1943/vd1943.c **** 
1100:Lib/Camera_Middleware/sensors/vd1943/vd1943.c ****   ret = VD1943_ComputeFrameLength(ctx, drv_vd1943_ctx->config_save.frame_rate, &frame_length);
1101:Lib/Camera_Middleware/sensors/vd1943/vd1943.c ****   if (ret)
1102:Lib/Camera_Middleware/sensors/vd1943/vd1943.c ****     return ret;
1103:Lib/Camera_Middleware/sensors/vd1943/vd1943.c **** 
1104:Lib/Camera_Middleware/sensors/vd1943/vd1943.c ****   VD1943_dbg(ctx, 0, "Set frame_length to %d to reach %d fps\n", frame_length, drv_vd1943_ctx->conf
1105:Lib/Camera_Middleware/sensors/vd1943/vd1943.c ****   ret = ctx->write16(ctx, VD1943_REG_FRAME_LENGTH(0), frame_length);
1106:Lib/Camera_Middleware/sensors/vd1943/vd1943.c ****   VD1943_TraceError(ctx, ret);
1107:Lib/Camera_Middleware/sensors/vd1943/vd1943.c **** 
1108:Lib/Camera_Middleware/sensors/vd1943/vd1943.c ****  return 0;
1109:Lib/Camera_Middleware/sensors/vd1943/vd1943.c **** }
1110:Lib/Camera_Middleware/sensors/vd1943/vd1943.c **** 
1111:Lib/Camera_Middleware/sensors/vd1943/vd1943.c **** 
1112:Lib/Camera_Middleware/sensors/vd1943/vd1943.c **** int VD1943_GetExposureRange(VD1943_Ctx_t *ctx, unsigned int *min_us, unsigned int *max_us)
1113:Lib/Camera_Middleware/sensors/vd1943/vd1943.c **** {
 1562              		.loc 1 1113 1 view -0
 1563              		.cfi_startproc
 1564              		@ args = 0, pretend = 0, frame = 8
 1565              		@ frame_needed = 0, uses_anonymous_args = 0
1114:Lib/Camera_Middleware/sensors/vd1943/vd1943.c ****   uint16_t frame_length;
 1566              		.loc 1 1114 3 view .LVU423
1115:Lib/Camera_Middleware/sensors/vd1943/vd1943.c ****   int ret;
 1567              		.loc 1 1115 3 view .LVU424
1116:Lib/Camera_Middleware/sensors/vd1943/vd1943.c **** 
1117:Lib/Camera_Middleware/sensors/vd1943/vd1943.c ****   /* Min Exposure is dependant of shutter mode */
1118:Lib/Camera_Middleware/sensors/vd1943/vd1943.c ****   switch (ctx->ctx.config_save.image_processing_mode) {
 1568              		.loc 1 1118 3 view .LVU425
1113:Lib/Camera_Middleware/sensors/vd1943/vd1943.c ****   uint16_t frame_length;
 1569              		.loc 1 1113 1 is_stmt 0 view .LVU426
 1570 0000 13B5     		push	{r0, r1, r4, lr}
 1571              		.cfi_def_cfa_offset 16
 1572              		.cfi_offset 4, -8
ARM GAS  C:\Users\DJESSOU\AppData\Local\Temp\cc3eovRL.s 			page 54


 1573              		.cfi_offset 14, -4
 1574              		.loc 1 1118 31 view .LVU427
 1575 0002 90F84430 		ldrb	r3, [r0, #68]	@ zero_extendqisi2
1113:Lib/Camera_Middleware/sensors/vd1943/vd1943.c ****   uint16_t frame_length;
 1576              		.loc 1 1113 1 view .LVU428
 1577 0006 1446     		mov	r4, r2
 1578              		.loc 1 1118 3 view .LVU429
 1579 0008 122B     		cmp	r3, #18
 1580 000a 06D8     		bhi	.L112
 1581 000c 082B     		cmp	r3, #8
 1582 000e 02D8     		bhi	.L117
 1583 0010 013B     		subs	r3, r3, #1
 1584 0012 052B     		cmp	r3, #5
 1585 0014 19D8     		bhi	.L119
 1586              	.L117:
 1587 0016 3A23     		movs	r3, #58
 1588 0018 03E0     		b	.L113
 1589              	.L112:
 1590 001a 1A3B     		subs	r3, r3, #26
 1591 001c 092B     		cmp	r3, #9
 1592 001e 14D8     		bhi	.L119
 1593 0020 1D23     		movs	r3, #29
 1594              	.L113:
1119:Lib/Camera_Middleware/sensors/vd1943/vd1943.c ****   case VD1943_GS_SS1_NATIVE_8:
1120:Lib/Camera_Middleware/sensors/vd1943/vd1943.c ****   case VD1943_GS_SS1_NATIVE_10:
1121:Lib/Camera_Middleware/sensors/vd1943/vd1943.c ****   case VD1943_GS_SS1_SPLIT_NATIVE_8:
1122:Lib/Camera_Middleware/sensors/vd1943/vd1943.c ****   case VD1943_GS_SS1_SPLIT_NATIVE_10:
1123:Lib/Camera_Middleware/sensors/vd1943/vd1943.c ****   case VD1943_GS_SS1_SPLIT_IR_8:
1124:Lib/Camera_Middleware/sensors/vd1943/vd1943.c ****   case VD1943_GS_SS1_SPLIT_IR_10:
1125:Lib/Camera_Middleware/sensors/vd1943/vd1943.c ****   case VD1943_GS_SS1_RGB_8:
1126:Lib/Camera_Middleware/sensors/vd1943/vd1943.c ****   case VD1943_GS_SS1_RGB_10:
1127:Lib/Camera_Middleware/sensors/vd1943/vd1943.c ****   case VD1943_GS_SS1_IR_8:
1128:Lib/Camera_Middleware/sensors/vd1943/vd1943.c ****   case VD1943_GS_SS1_IR_10:
1129:Lib/Camera_Middleware/sensors/vd1943/vd1943.c ****   case VD1943_GS_SS2_MONO_8:
1130:Lib/Camera_Middleware/sensors/vd1943/vd1943.c ****   case VD1943_GS_SS2_MONO_10:
1131:Lib/Camera_Middleware/sensors/vd1943/vd1943.c ****   case VD1943_GS_SS4_MONO_8:
1132:Lib/Camera_Middleware/sensors/vd1943/vd1943.c ****   case VD1943_GS_SS4_MONO_10:
1133:Lib/Camera_Middleware/sensors/vd1943/vd1943.c ****   case VD1943_GS_SS32_MONO_8:
1134:Lib/Camera_Middleware/sensors/vd1943/vd1943.c ****   case VD1943_GS_SS32_MONO_10:
1135:Lib/Camera_Middleware/sensors/vd1943/vd1943.c ****     *min_us = (4 * VD1943_LINE_TIME_IN_NS) / 1000;
 1595              		.loc 1 1135 13 view .LVU430
 1596 0022 0B60     		str	r3, [r1]
1136:Lib/Camera_Middleware/sensors/vd1943/vd1943.c ****     break;
1137:Lib/Camera_Middleware/sensors/vd1943/vd1943.c ****   case VD1943_RS_SDR_NATIVE_8:
1138:Lib/Camera_Middleware/sensors/vd1943/vd1943.c ****   case VD1943_RS_SDR_NATIVE_10:
1139:Lib/Camera_Middleware/sensors/vd1943/vd1943.c ****   case VD1943_RS_SDR_NATIVE_12:
1140:Lib/Camera_Middleware/sensors/vd1943/vd1943.c ****   case VD1943_RS_SDR_RGB_8:
1141:Lib/Camera_Middleware/sensors/vd1943/vd1943.c ****   case VD1943_RS_SDR_RGB_10:
1142:Lib/Camera_Middleware/sensors/vd1943/vd1943.c ****   case VD1943_RS_SDR_RGB_12:
1143:Lib/Camera_Middleware/sensors/vd1943/vd1943.c ****   case VD1943_RS_HDR_NATIVE_10:
1144:Lib/Camera_Middleware/sensors/vd1943/vd1943.c ****   case VD1943_RS_HDR_NATIVE_12:
1145:Lib/Camera_Middleware/sensors/vd1943/vd1943.c ****   case VD1943_RS_HDR_RGB_10:
1146:Lib/Camera_Middleware/sensors/vd1943/vd1943.c ****   case VD1943_RS_HDR_RGB_12:
1147:Lib/Camera_Middleware/sensors/vd1943/vd1943.c ****     *min_us = (2 * VD1943_LINE_TIME_IN_NS) / 1000;
1148:Lib/Camera_Middleware/sensors/vd1943/vd1943.c ****     break;
1149:Lib/Camera_Middleware/sensors/vd1943/vd1943.c ****   default:
1150:Lib/Camera_Middleware/sensors/vd1943/vd1943.c ****     return -1;
ARM GAS  C:\Users\DJESSOU\AppData\Local\Temp\cc3eovRL.s 			page 55


1151:Lib/Camera_Middleware/sensors/vd1943/vd1943.c ****   }
1152:Lib/Camera_Middleware/sensors/vd1943/vd1943.c **** 
1153:Lib/Camera_Middleware/sensors/vd1943/vd1943.c ****   /* Max Exposure is dependant of framelength */
1154:Lib/Camera_Middleware/sensors/vd1943/vd1943.c ****   ret = VD1943_ComputeFrameLength(ctx, ctx->ctx.config_save.frame_rate, &frame_length);
 1597              		.loc 1 1154 3 is_stmt 1 view .LVU431
 1598              		.loc 1 1154 9 is_stmt 0 view .LVU432
 1599 0024 016C     		ldr	r1, [r0, #64]
 1600              	.LVL137:
 1601              		.loc 1 1154 9 view .LVU433
 1602 0026 0DF10602 		add	r2, sp, #6
 1603              	.LVL138:
 1604              		.loc 1 1154 9 view .LVU434
 1605 002a FFF7FEFF 		bl	VD1943_ComputeFrameLength
 1606              	.LVL139:
1155:Lib/Camera_Middleware/sensors/vd1943/vd1943.c ****   if (ret)
 1607              		.loc 1 1155 3 is_stmt 1 view .LVU435
 1608              		.loc 1 1155 6 is_stmt 0 view .LVU436
 1609 002e 50B9     		cbnz	r0, .L111
1156:Lib/Camera_Middleware/sensors/vd1943/vd1943.c ****     return ret;
1157:Lib/Camera_Middleware/sensors/vd1943/vd1943.c ****   *max_us = (frame_length - VD1943_EXPOSURE_MARGIN) * VD1943_LINE_TIME_IN_NS / 1000;
 1610              		.loc 1 1157 3 is_stmt 1 view .LVU437
 1611              		.loc 1 1157 53 is_stmt 0 view .LVU438
 1612 0030 43F6A402 		movw	r2, #14500
 1613              		.loc 1 1157 27 view .LVU439
 1614 0034 BDF80630 		ldrh	r3, [sp, #6]
 1615 0038 643B     		subs	r3, r3, #100
 1616              		.loc 1 1157 53 view .LVU440
 1617 003a 5343     		muls	r3, r2, r3
 1618              		.loc 1 1157 78 view .LVU441
 1619 003c 4FF47A72 		mov	r2, #1000
 1620 0040 93FBF2F3 		sdiv	r3, r3, r2
 1621              		.loc 1 1157 11 view .LVU442
 1622 0044 2360     		str	r3, [r4]
1158:Lib/Camera_Middleware/sensors/vd1943/vd1943.c **** 
1159:Lib/Camera_Middleware/sensors/vd1943/vd1943.c ****   return 0;
 1623              		.loc 1 1159 3 is_stmt 1 view .LVU443
 1624              	.LVL140:
 1625              	.L111:
1160:Lib/Camera_Middleware/sensors/vd1943/vd1943.c **** }
 1626              		.loc 1 1160 1 is_stmt 0 view .LVU444
 1627 0046 02B0     		add	sp, sp, #8
 1628              		.cfi_remember_state
 1629              		.cfi_def_cfa_offset 8
 1630              		@ sp needed
 1631 0048 10BD     		pop	{r4, pc}
 1632              	.LVL141:
 1633              	.L119:
 1634              		.cfi_restore_state
1118:Lib/Camera_Middleware/sensors/vd1943/vd1943.c ****   case VD1943_GS_SS1_NATIVE_8:
 1635              		.loc 1 1118 3 view .LVU445
 1636 004a 4FF0FF30 		mov	r0, #-1
 1637              	.LVL142:
1118:Lib/Camera_Middleware/sensors/vd1943/vd1943.c ****   case VD1943_GS_SS1_NATIVE_8:
 1638              		.loc 1 1118 3 view .LVU446
 1639 004e FAE7     		b	.L111
 1640              		.cfi_endproc
 1641              	.LFE35:
ARM GAS  C:\Users\DJESSOU\AppData\Local\Temp\cc3eovRL.s 			page 56


 1643              		.section	.rodata.VD1943_Init.str1.1,"aMS",%progbits,1
 1644              	.LC9:
 1645 0000 56443139 		.ascii	"VD1943_ERR-%d : ext_clock_freq_in_hz out of range\000"
 1645      34335F45 
 1645      52522D25 
 1645      64203A20 
 1645      6578745F 
 1646              	.LC10:
 1647 0032 56443139 		.ascii	"VD1943_ERR-%d : data_rate_in_mps out of range\000"
 1647      34335F45 
 1647      52522D25 
 1647      64203A20 
 1647      64617461 
 1648              	.LC11:
 1649 0060 56443139 		.ascii	"VD1943_ERR-%d : datalane_nb out of range\000"
 1649      34335F45 
 1649      52522D25 
 1649      64203A20 
 1649      64617461 
 1650              	.LC12:
 1651 0089 56443139 		.ascii	"VD1943_ERR-%d : resolution out of range\000"
 1651      34335F45 
 1651      52522D25 
 1651      64203A20 
 1651      7265736F 
 1652              	.LC13:
 1653 00b1 3000     		.ascii	"0\000"
 1654              	.LC14:
 1655 00b3 56443139 		.ascii	"VD1943_DG%d-%d : model_id = 0x%08x\012\000"
 1655      34335F44 
 1655      4725642D 
 1655      2564203A 
 1655      206D6F64 
 1656              	.LC15:
 1657 00d7 56443139 		.ascii	"VD1943_ERR-%d : Unsupported model id: 0x%08x\012\000"
 1657      34335F45 
 1657      52522D25 
 1657      64203A20 
 1657      556E7375 
 1658              	.LC16:
 1659 0105 56443139 		.ascii	"VD1943_DG%d-%d : rom revision = 0x%08x\012\000"
 1659      34335F44 
 1659      4725642D 
 1659      2564203A 
 1659      20726F6D 
 1660              	.LC17:
 1661 012d 56443139 		.ascii	"VD1943_ERR-%d : Unsupported rom revision: 0x%08x\012"
 1661      34335F45 
 1661      52522D25 
 1661      64203A20 
 1661      556E7375 
 1662 015e 00       		.ascii	"\000"
 1663              	.LC18:
 1664 015f 56443139 		.ascii	"VD1943_DG%d-%d : optical revision = 0x%04x\012\000"
 1664      34335F44 
 1664      4725642D 
 1664      2564203A 
ARM GAS  C:\Users\DJESSOU\AppData\Local\Temp\cc3eovRL.s 			page 57


 1664      206F7074 
 1665              	.LC19:
 1666 018b 56443139 		.ascii	"VD1943_NOT-%d : patch = %d.%d\012\000"
 1666      34335F4E 
 1666      4F542D25 
 1666      64203A20 
 1666      70617463 
 1667              		.section	.text.VD1943_Init,"ax",%progbits
 1668              		.align	1
 1669              		.global	VD1943_Init
 1670              		.syntax unified
 1671              		.thumb
 1672              		.thumb_func
 1674              	VD1943_Init:
 1675              	.LVL143:
 1676              	.LFB46:
1161:Lib/Camera_Middleware/sensors/vd1943/vd1943.c **** 
1162:Lib/Camera_Middleware/sensors/vd1943/vd1943.c **** static int VD1943_SetupMirrorFlip(VD1943_Ctx_t *ctx)
1163:Lib/Camera_Middleware/sensors/vd1943/vd1943.c **** {
1164:Lib/Camera_Middleware/sensors/vd1943/vd1943.c ****   struct drv_vd1943_ctx *drv_vd1943_ctx = &ctx->ctx;
1165:Lib/Camera_Middleware/sensors/vd1943/vd1943.c ****   uint8_t mode;
1166:Lib/Camera_Middleware/sensors/vd1943/vd1943.c ****   int ret;
1167:Lib/Camera_Middleware/sensors/vd1943/vd1943.c **** 
1168:Lib/Camera_Middleware/sensors/vd1943/vd1943.c ****   switch (drv_vd1943_ctx->config_save.flip_mirror_mode) {
1169:Lib/Camera_Middleware/sensors/vd1943/vd1943.c ****   case VD1943_MIRROR_FLIP_NONE:
1170:Lib/Camera_Middleware/sensors/vd1943/vd1943.c ****     mode = 0;
1171:Lib/Camera_Middleware/sensors/vd1943/vd1943.c ****     break;
1172:Lib/Camera_Middleware/sensors/vd1943/vd1943.c ****   case VD1943_FLIP:
1173:Lib/Camera_Middleware/sensors/vd1943/vd1943.c ****     mode = 2;
1174:Lib/Camera_Middleware/sensors/vd1943/vd1943.c ****     break;
1175:Lib/Camera_Middleware/sensors/vd1943/vd1943.c ****   case VD1943_MIRROR:
1176:Lib/Camera_Middleware/sensors/vd1943/vd1943.c ****     mode = 1;
1177:Lib/Camera_Middleware/sensors/vd1943/vd1943.c ****     break;
1178:Lib/Camera_Middleware/sensors/vd1943/vd1943.c ****   case VD1943_MIRROR_FLIP:
1179:Lib/Camera_Middleware/sensors/vd1943/vd1943.c ****     mode = 3;
1180:Lib/Camera_Middleware/sensors/vd1943/vd1943.c ****     break;
1181:Lib/Camera_Middleware/sensors/vd1943/vd1943.c ****   default:
1182:Lib/Camera_Middleware/sensors/vd1943/vd1943.c ****     return -1;
1183:Lib/Camera_Middleware/sensors/vd1943/vd1943.c ****   }
1184:Lib/Camera_Middleware/sensors/vd1943/vd1943.c **** 
1185:Lib/Camera_Middleware/sensors/vd1943/vd1943.c ****   ret = ctx->write8(ctx, VD1943_REG_ORIENTATION, mode);
1186:Lib/Camera_Middleware/sensors/vd1943/vd1943.c ****   VD1943_TraceError(ctx, ret);
1187:Lib/Camera_Middleware/sensors/vd1943/vd1943.c **** 
1188:Lib/Camera_Middleware/sensors/vd1943/vd1943.c ****   return 0;
1189:Lib/Camera_Middleware/sensors/vd1943/vd1943.c **** }
1190:Lib/Camera_Middleware/sensors/vd1943/vd1943.c **** 
1191:Lib/Camera_Middleware/sensors/vd1943/vd1943.c **** static int VD1943_SetupPatGen(VD1943_Ctx_t *ctx)
1192:Lib/Camera_Middleware/sensors/vd1943/vd1943.c **** {
1193:Lib/Camera_Middleware/sensors/vd1943/vd1943.c ****   struct drv_vd1943_ctx *drv_vd1943_ctx = &ctx->ctx;
1194:Lib/Camera_Middleware/sensors/vd1943/vd1943.c ****   uint16_t reg16;
1195:Lib/Camera_Middleware/sensors/vd1943/vd1943.c ****   int ret;
1196:Lib/Camera_Middleware/sensors/vd1943/vd1943.c **** 
1197:Lib/Camera_Middleware/sensors/vd1943/vd1943.c ****   switch (drv_vd1943_ctx->config_save.patgen) {
1198:Lib/Camera_Middleware/sensors/vd1943/vd1943.c ****   case VD1943_PATGEN_DISABLE:
1199:Lib/Camera_Middleware/sensors/vd1943/vd1943.c ****     reg16 = VD1943_PATGEN_CTRL_DISABLE;
1200:Lib/Camera_Middleware/sensors/vd1943/vd1943.c ****     break;
1201:Lib/Camera_Middleware/sensors/vd1943/vd1943.c ****   case VD1943_PATGEN_DIAGONAL_GRAYSCALE:
ARM GAS  C:\Users\DJESSOU\AppData\Local\Temp\cc3eovRL.s 			page 58


1202:Lib/Camera_Middleware/sensors/vd1943/vd1943.c ****     reg16 = VD1943_PATGEN_CTRL_DGREY;
1203:Lib/Camera_Middleware/sensors/vd1943/vd1943.c ****     break;
1204:Lib/Camera_Middleware/sensors/vd1943/vd1943.c ****   case VD1943_PATGEN_PSEUDO_RANDOM:
1205:Lib/Camera_Middleware/sensors/vd1943/vd1943.c ****     reg16 = VD1943_PATGEN_CTRL_PN28;
1206:Lib/Camera_Middleware/sensors/vd1943/vd1943.c ****     break;
1207:Lib/Camera_Middleware/sensors/vd1943/vd1943.c ****   default:
1208:Lib/Camera_Middleware/sensors/vd1943/vd1943.c ****     return -1;
1209:Lib/Camera_Middleware/sensors/vd1943/vd1943.c ****   }
1210:Lib/Camera_Middleware/sensors/vd1943/vd1943.c **** 
1211:Lib/Camera_Middleware/sensors/vd1943/vd1943.c ****   ret = ctx->write16(ctx, VD1943_REG_PATGEN_CTRL, reg16);
1212:Lib/Camera_Middleware/sensors/vd1943/vd1943.c ****   VD1943_TraceError(ctx, ret);
1213:Lib/Camera_Middleware/sensors/vd1943/vd1943.c **** 
1214:Lib/Camera_Middleware/sensors/vd1943/vd1943.c ****   return 0;
1215:Lib/Camera_Middleware/sensors/vd1943/vd1943.c **** }
1216:Lib/Camera_Middleware/sensors/vd1943/vd1943.c **** 
1217:Lib/Camera_Middleware/sensors/vd1943/vd1943.c **** static int VD1943_Gpios(VD1943_Ctx_t *ctx)
1218:Lib/Camera_Middleware/sensors/vd1943/vd1943.c **** {
1219:Lib/Camera_Middleware/sensors/vd1943/vd1943.c ****   struct drv_vd1943_ctx *drv_vd1943_ctx = &ctx->ctx;
1220:Lib/Camera_Middleware/sensors/vd1943/vd1943.c ****   int ret;
1221:Lib/Camera_Middleware/sensors/vd1943/vd1943.c ****   int i;
1222:Lib/Camera_Middleware/sensors/vd1943/vd1943.c **** 
1223:Lib/Camera_Middleware/sensors/vd1943/vd1943.c ****   for (i = 0; i < VD1943_GPIO_NB; i++) {
1224:Lib/Camera_Middleware/sensors/vd1943/vd1943.c ****     ret = ctx->write8(ctx, VD1943_REG_GPIO_x_CTRL(i), drv_vd1943_ctx->config_save.gpios[i].gpio_ctr
1225:Lib/Camera_Middleware/sensors/vd1943/vd1943.c ****     VD1943_TraceError(ctx, ret);
1226:Lib/Camera_Middleware/sensors/vd1943/vd1943.c ****     ret = ctx->write8(ctx, VD1943_REG_GPIO_CTRL(0), drv_vd1943_ctx->config_save.gpios[i].enable);
1227:Lib/Camera_Middleware/sensors/vd1943/vd1943.c ****     VD1943_TraceError(ctx, ret);
1228:Lib/Camera_Middleware/sensors/vd1943/vd1943.c ****   }
1229:Lib/Camera_Middleware/sensors/vd1943/vd1943.c **** 
1230:Lib/Camera_Middleware/sensors/vd1943/vd1943.c ****   return 0;
1231:Lib/Camera_Middleware/sensors/vd1943/vd1943.c **** }
1232:Lib/Camera_Middleware/sensors/vd1943/vd1943.c **** 
1233:Lib/Camera_Middleware/sensors/vd1943/vd1943.c **** static int VD1943_VT_Sync(VD1943_Ctx_t *ctx)
1234:Lib/Camera_Middleware/sensors/vd1943/vd1943.c **** {
1235:Lib/Camera_Middleware/sensors/vd1943/vd1943.c ****   struct drv_vd1943_ctx *drv_vd1943_ctx = &ctx->ctx;
1236:Lib/Camera_Middleware/sensors/vd1943/vd1943.c ****   int i;
1237:Lib/Camera_Middleware/sensors/vd1943/vd1943.c ****   int ret;
1238:Lib/Camera_Middleware/sensors/vd1943/vd1943.c **** 
1239:Lib/Camera_Middleware/sensors/vd1943/vd1943.c ****   /* If Slave mode is enabled, ensure at lease one GPIO is configured accordingly */
1240:Lib/Camera_Middleware/sensors/vd1943/vd1943.c ****   if (drv_vd1943_ctx->config_save.sync_mode == VD1943_SLAVE) {
1241:Lib/Camera_Middleware/sensors/vd1943/vd1943.c ****     for (i = 0; i < VD1943_GPIO_NB; i++) {
1242:Lib/Camera_Middleware/sensors/vd1943/vd1943.c ****       if (((drv_vd1943_ctx->config_save.gpios[i].gpio_ctrl & VD1943_GPIO_FSYNC_IN) == VD1943_GPIO_F
1243:Lib/Camera_Middleware/sensors/vd1943/vd1943.c ****         (drv_vd1943_ctx->config_save.gpios[i].enable == VD1943_GPIO_ENABLE)) {
1244:Lib/Camera_Middleware/sensors/vd1943/vd1943.c ****         break;
1245:Lib/Camera_Middleware/sensors/vd1943/vd1943.c ****       }
1246:Lib/Camera_Middleware/sensors/vd1943/vd1943.c ****     }
1247:Lib/Camera_Middleware/sensors/vd1943/vd1943.c **** 
1248:Lib/Camera_Middleware/sensors/vd1943/vd1943.c ****     if (i == VD1943_GPIO_NB) {
1249:Lib/Camera_Middleware/sensors/vd1943/vd1943.c ****       // Slave mode is selected but no GPIO is configured
1250:Lib/Camera_Middleware/sensors/vd1943/vd1943.c ****       return -1;
1251:Lib/Camera_Middleware/sensors/vd1943/vd1943.c ****     }
1252:Lib/Camera_Middleware/sensors/vd1943/vd1943.c ****   }
1253:Lib/Camera_Middleware/sensors/vd1943/vd1943.c **** 
1254:Lib/Camera_Middleware/sensors/vd1943/vd1943.c ****   ret = ctx->write8(ctx, VD1943_REG_VT_CTRL, drv_vd1943_ctx->config_save.sync_mode);
1255:Lib/Camera_Middleware/sensors/vd1943/vd1943.c ****   VD1943_TraceError(ctx, ret);
1256:Lib/Camera_Middleware/sensors/vd1943/vd1943.c **** 
1257:Lib/Camera_Middleware/sensors/vd1943/vd1943.c ****   return 0;
1258:Lib/Camera_Middleware/sensors/vd1943/vd1943.c **** }
ARM GAS  C:\Users\DJESSOU\AppData\Local\Temp\cc3eovRL.s 			page 59


1259:Lib/Camera_Middleware/sensors/vd1943/vd1943.c **** 
1260:Lib/Camera_Middleware/sensors/vd1943/vd1943.c **** static int VD1943_SafetyDisable(VD1943_Ctx_t *ctx)
1261:Lib/Camera_Middleware/sensors/vd1943/vd1943.c **** {
1262:Lib/Camera_Middleware/sensors/vd1943/vd1943.c ****   int ret;
1263:Lib/Camera_Middleware/sensors/vd1943/vd1943.c **** 
1264:Lib/Camera_Middleware/sensors/vd1943/vd1943.c ****   ret = ctx->write8(ctx, VD1943_REG_DIAG_DISABLE_FW_0_ERR, VD1943_DIAG_DISABLE_FW_0_ERR_UI_CRC);
1265:Lib/Camera_Middleware/sensors/vd1943/vd1943.c ****   VD1943_TraceError(ctx, ret);
1266:Lib/Camera_Middleware/sensors/vd1943/vd1943.c ****   ret = ctx->write8(ctx, VD1943_REG_DIAG_DISABLE_FW_1_ERR, VD1943_DIAG_DISABLE_FW_1_ERR_TASK_MONITO
1267:Lib/Camera_Middleware/sensors/vd1943/vd1943.c ****   VD1943_TraceError(ctx, ret);
1268:Lib/Camera_Middleware/sensors/vd1943/vd1943.c ****   ret = ctx->write8(ctx, VD1943_REG_DIAG_DISABLE_STREAMING_ERR, VD1943_DIAG_DISABLE_STREAMING_ERR_A
1269:Lib/Camera_Middleware/sensors/vd1943/vd1943.c ****   VD1943_TraceError(ctx, ret);
1270:Lib/Camera_Middleware/sensors/vd1943/vd1943.c **** 
1271:Lib/Camera_Middleware/sensors/vd1943/vd1943.c ****   return 0;
1272:Lib/Camera_Middleware/sensors/vd1943/vd1943.c **** }
1273:Lib/Camera_Middleware/sensors/vd1943/vd1943.c **** 
1274:Lib/Camera_Middleware/sensors/vd1943/vd1943.c **** static int VD1943_Setup(VD1943_Ctx_t *ctx)
1275:Lib/Camera_Middleware/sensors/vd1943/vd1943.c **** {
1276:Lib/Camera_Middleware/sensors/vd1943/vd1943.c ****   int ret;
1277:Lib/Camera_Middleware/sensors/vd1943/vd1943.c **** 
1278:Lib/Camera_Middleware/sensors/vd1943/vd1943.c ****   ret = VD1943_SetupOutput(ctx);
1279:Lib/Camera_Middleware/sensors/vd1943/vd1943.c ****   if (ret)
1280:Lib/Camera_Middleware/sensors/vd1943/vd1943.c ****     return ret;
1281:Lib/Camera_Middleware/sensors/vd1943/vd1943.c **** 
1282:Lib/Camera_Middleware/sensors/vd1943/vd1943.c ****   ret = VD1943_SetupSize(ctx);
1283:Lib/Camera_Middleware/sensors/vd1943/vd1943.c ****   if (ret)
1284:Lib/Camera_Middleware/sensors/vd1943/vd1943.c ****     return ret;
1285:Lib/Camera_Middleware/sensors/vd1943/vd1943.c **** 
1286:Lib/Camera_Middleware/sensors/vd1943/vd1943.c ****   ret = VD1943_SetupFrameRate(ctx);
1287:Lib/Camera_Middleware/sensors/vd1943/vd1943.c ****   if (ret)
1288:Lib/Camera_Middleware/sensors/vd1943/vd1943.c ****     return ret;
1289:Lib/Camera_Middleware/sensors/vd1943/vd1943.c **** 
1290:Lib/Camera_Middleware/sensors/vd1943/vd1943.c ****   ret = VD1943_SetupMirrorFlip(ctx);
1291:Lib/Camera_Middleware/sensors/vd1943/vd1943.c ****   if (ret)
1292:Lib/Camera_Middleware/sensors/vd1943/vd1943.c ****     return ret;
1293:Lib/Camera_Middleware/sensors/vd1943/vd1943.c **** 
1294:Lib/Camera_Middleware/sensors/vd1943/vd1943.c ****   ret = VD1943_SetupPatGen(ctx);
1295:Lib/Camera_Middleware/sensors/vd1943/vd1943.c ****   if (ret)
1296:Lib/Camera_Middleware/sensors/vd1943/vd1943.c ****     return ret;
1297:Lib/Camera_Middleware/sensors/vd1943/vd1943.c **** 
1298:Lib/Camera_Middleware/sensors/vd1943/vd1943.c ****   ret = VD1943_Gpios(ctx);
1299:Lib/Camera_Middleware/sensors/vd1943/vd1943.c ****   if (ret)
1300:Lib/Camera_Middleware/sensors/vd1943/vd1943.c ****     return ret;
1301:Lib/Camera_Middleware/sensors/vd1943/vd1943.c **** 
1302:Lib/Camera_Middleware/sensors/vd1943/vd1943.c ****   ret = VD1943_VT_Sync(ctx);
1303:Lib/Camera_Middleware/sensors/vd1943/vd1943.c ****   if (ret)
1304:Lib/Camera_Middleware/sensors/vd1943/vd1943.c ****     return ret;
1305:Lib/Camera_Middleware/sensors/vd1943/vd1943.c **** 
1306:Lib/Camera_Middleware/sensors/vd1943/vd1943.c ****   ret = VD1943_SafetyDisable(ctx);
1307:Lib/Camera_Middleware/sensors/vd1943/vd1943.c ****   if (ret)
1308:Lib/Camera_Middleware/sensors/vd1943/vd1943.c ****     return ret;
1309:Lib/Camera_Middleware/sensors/vd1943/vd1943.c **** 
1310:Lib/Camera_Middleware/sensors/vd1943/vd1943.c ****   return 0;
1311:Lib/Camera_Middleware/sensors/vd1943/vd1943.c **** }
1312:Lib/Camera_Middleware/sensors/vd1943/vd1943.c **** 
1313:Lib/Camera_Middleware/sensors/vd1943/vd1943.c **** static int VD1943_StartStreaming(VD1943_Ctx_t *ctx)
1314:Lib/Camera_Middleware/sensors/vd1943/vd1943.c **** {
1315:Lib/Camera_Middleware/sensors/vd1943/vd1943.c ****   int ret;
ARM GAS  C:\Users\DJESSOU\AppData\Local\Temp\cc3eovRL.s 			page 60


1316:Lib/Camera_Middleware/sensors/vd1943/vd1943.c **** 
1317:Lib/Camera_Middleware/sensors/vd1943/vd1943.c ****   ret = VD1943_ApplyCmdAndWait(ctx, VD1943_REG_SW_STBY, VD1943_CMD_START_STREAMING);
1318:Lib/Camera_Middleware/sensors/vd1943/vd1943.c ****   if (ret)
1319:Lib/Camera_Middleware/sensors/vd1943/vd1943.c ****     return ret;
1320:Lib/Camera_Middleware/sensors/vd1943/vd1943.c **** 
1321:Lib/Camera_Middleware/sensors/vd1943/vd1943.c ****   ret = VD1943_WaitState(ctx, VD1943_STREAMING);
1322:Lib/Camera_Middleware/sensors/vd1943/vd1943.c ****   if (ret)
1323:Lib/Camera_Middleware/sensors/vd1943/vd1943.c ****     return ret;
1324:Lib/Camera_Middleware/sensors/vd1943/vd1943.c **** 
1325:Lib/Camera_Middleware/sensors/vd1943/vd1943.c ****   VD1943_notice(ctx, "Streaming is on\n");
1326:Lib/Camera_Middleware/sensors/vd1943/vd1943.c **** 
1327:Lib/Camera_Middleware/sensors/vd1943/vd1943.c ****   return 0;
1328:Lib/Camera_Middleware/sensors/vd1943/vd1943.c **** }
1329:Lib/Camera_Middleware/sensors/vd1943/vd1943.c **** 
1330:Lib/Camera_Middleware/sensors/vd1943/vd1943.c **** static int VD1943_StopStreaming(VD1943_Ctx_t *ctx)
1331:Lib/Camera_Middleware/sensors/vd1943/vd1943.c **** {
1332:Lib/Camera_Middleware/sensors/vd1943/vd1943.c ****   int ret;
1333:Lib/Camera_Middleware/sensors/vd1943/vd1943.c **** 
1334:Lib/Camera_Middleware/sensors/vd1943/vd1943.c ****   ret = VD1943_ApplyCmdAndWait(ctx, VD1943_REG_STREAMING, VD1943_CMD_STOP_STREAMING);
1335:Lib/Camera_Middleware/sensors/vd1943/vd1943.c ****   if (ret)
1336:Lib/Camera_Middleware/sensors/vd1943/vd1943.c ****     return ret;
1337:Lib/Camera_Middleware/sensors/vd1943/vd1943.c **** 
1338:Lib/Camera_Middleware/sensors/vd1943/vd1943.c ****   ret = VD1943_WaitState(ctx, VD1943_SW_STBY);
1339:Lib/Camera_Middleware/sensors/vd1943/vd1943.c ****   if (ret)
1340:Lib/Camera_Middleware/sensors/vd1943/vd1943.c ****     return ret;
1341:Lib/Camera_Middleware/sensors/vd1943/vd1943.c **** 
1342:Lib/Camera_Middleware/sensors/vd1943/vd1943.c ****   VD1943_notice(ctx, "Streaming is on\n");
1343:Lib/Camera_Middleware/sensors/vd1943/vd1943.c **** 
1344:Lib/Camera_Middleware/sensors/vd1943/vd1943.c ****   return 0;
1345:Lib/Camera_Middleware/sensors/vd1943/vd1943.c **** }
1346:Lib/Camera_Middleware/sensors/vd1943/vd1943.c **** 
1347:Lib/Camera_Middleware/sensors/vd1943/vd1943.c **** static int VD1943_CheckConfig(VD1943_Ctx_t *ctx, VD1943_Config_t *config)
1348:Lib/Camera_Middleware/sensors/vd1943/vd1943.c **** {
1349:Lib/Camera_Middleware/sensors/vd1943/vd1943.c ****   struct drv_vd1943_ctx *drv_vd1943_ctx = &ctx->ctx;
1350:Lib/Camera_Middleware/sensors/vd1943/vd1943.c **** 
1351:Lib/Camera_Middleware/sensors/vd1943/vd1943.c ****   if (config->ext_clock_freq_in_hz < VD1943_MIN_CLOCK_FREQ || config->ext_clock_freq_in_hz > VD1943
1352:Lib/Camera_Middleware/sensors/vd1943/vd1943.c ****     VD1943_error(ctx, "ext_clock_freq_in_hz out of range");
1353:Lib/Camera_Middleware/sensors/vd1943/vd1943.c ****     return -1;
1354:Lib/Camera_Middleware/sensors/vd1943/vd1943.c ****   }
1355:Lib/Camera_Middleware/sensors/vd1943/vd1943.c **** 
1356:Lib/Camera_Middleware/sensors/vd1943/vd1943.c ****   if (config->out_itf.data_rate_in_mps < VD1943_MIN_DATARATE || config->out_itf.data_rate_in_mps > 
1357:Lib/Camera_Middleware/sensors/vd1943/vd1943.c ****     VD1943_error(ctx, "data_rate_in_mps out of range");
1358:Lib/Camera_Middleware/sensors/vd1943/vd1943.c ****     return -1;
1359:Lib/Camera_Middleware/sensors/vd1943/vd1943.c ****   }
1360:Lib/Camera_Middleware/sensors/vd1943/vd1943.c **** 
1361:Lib/Camera_Middleware/sensors/vd1943/vd1943.c ****   if (config->out_itf.datalane_nb != 2 && config->out_itf.datalane_nb != 4) {
1362:Lib/Camera_Middleware/sensors/vd1943/vd1943.c ****     VD1943_error(ctx, "datalane_nb out of range");
1363:Lib/Camera_Middleware/sensors/vd1943/vd1943.c ****     return -1;
1364:Lib/Camera_Middleware/sensors/vd1943/vd1943.c ****   }
1365:Lib/Camera_Middleware/sensors/vd1943/vd1943.c **** 
1366:Lib/Camera_Middleware/sensors/vd1943/vd1943.c ****   if (config->resolution < VD1943_RES_QVGA_320_240 ||
1367:Lib/Camera_Middleware/sensors/vd1943/vd1943.c ****       config->resolution > VD1943_RES_FULL_2560_1984) {
1368:Lib/Camera_Middleware/sensors/vd1943/vd1943.c ****     VD1943_error(ctx, "resolution out of range");
1369:Lib/Camera_Middleware/sensors/vd1943/vd1943.c ****     return -1;
1370:Lib/Camera_Middleware/sensors/vd1943/vd1943.c ****   }
1371:Lib/Camera_Middleware/sensors/vd1943/vd1943.c **** 
1372:Lib/Camera_Middleware/sensors/vd1943/vd1943.c ****   switch (config->image_processing_mode) {
ARM GAS  C:\Users\DJESSOU\AppData\Local\Temp\cc3eovRL.s 			page 61


1373:Lib/Camera_Middleware/sensors/vd1943/vd1943.c ****   case VD1943_GS_SS1_NATIVE_8:
1374:Lib/Camera_Middleware/sensors/vd1943/vd1943.c ****   case VD1943_GS_SS1_NATIVE_10:
1375:Lib/Camera_Middleware/sensors/vd1943/vd1943.c ****   case VD1943_GS_SS1_SPLIT_NATIVE_8:
1376:Lib/Camera_Middleware/sensors/vd1943/vd1943.c ****   case VD1943_GS_SS1_SPLIT_NATIVE_10:
1377:Lib/Camera_Middleware/sensors/vd1943/vd1943.c ****   case VD1943_GS_SS2_MONO_8:
1378:Lib/Camera_Middleware/sensors/vd1943/vd1943.c ****   case VD1943_GS_SS2_MONO_10:
1379:Lib/Camera_Middleware/sensors/vd1943/vd1943.c ****   case VD1943_GS_SS4_MONO_8:
1380:Lib/Camera_Middleware/sensors/vd1943/vd1943.c ****   case VD1943_GS_SS4_MONO_10:
1381:Lib/Camera_Middleware/sensors/vd1943/vd1943.c ****   case VD1943_GS_SS32_MONO_8:
1382:Lib/Camera_Middleware/sensors/vd1943/vd1943.c ****   case VD1943_GS_SS32_MONO_10:
1383:Lib/Camera_Middleware/sensors/vd1943/vd1943.c ****   case VD1943_RS_SDR_NATIVE_8:
1384:Lib/Camera_Middleware/sensors/vd1943/vd1943.c ****   case VD1943_RS_SDR_NATIVE_10:
1385:Lib/Camera_Middleware/sensors/vd1943/vd1943.c ****   case VD1943_RS_SDR_NATIVE_12:
1386:Lib/Camera_Middleware/sensors/vd1943/vd1943.c ****   case VD1943_RS_HDR_NATIVE_10:
1387:Lib/Camera_Middleware/sensors/vd1943/vd1943.c ****   case VD1943_RS_HDR_NATIVE_12:
1388:Lib/Camera_Middleware/sensors/vd1943/vd1943.c ****     break;
1389:Lib/Camera_Middleware/sensors/vd1943/vd1943.c ****   case VD1943_GS_SS1_RGB_8:
1390:Lib/Camera_Middleware/sensors/vd1943/vd1943.c ****   case VD1943_GS_SS1_RGB_10:
1391:Lib/Camera_Middleware/sensors/vd1943/vd1943.c ****   case VD1943_GS_SS1_IR_8:
1392:Lib/Camera_Middleware/sensors/vd1943/vd1943.c ****   case VD1943_GS_SS1_IR_10:
1393:Lib/Camera_Middleware/sensors/vd1943/vd1943.c ****   case VD1943_GS_SS1_SPLIT_IR_8:
1394:Lib/Camera_Middleware/sensors/vd1943/vd1943.c ****   case VD1943_GS_SS1_SPLIT_IR_10:
1395:Lib/Camera_Middleware/sensors/vd1943/vd1943.c ****   case VD1943_RS_SDR_RGB_8:
1396:Lib/Camera_Middleware/sensors/vd1943/vd1943.c ****   case VD1943_RS_SDR_RGB_10:
1397:Lib/Camera_Middleware/sensors/vd1943/vd1943.c ****   case VD1943_RS_SDR_RGB_12:
1398:Lib/Camera_Middleware/sensors/vd1943/vd1943.c ****   case VD1943_RS_HDR_RGB_10:
1399:Lib/Camera_Middleware/sensors/vd1943/vd1943.c ****   case VD1943_RS_HDR_RGB_12:
1400:Lib/Camera_Middleware/sensors/vd1943/vd1943.c ****     // Unsupported modes for VD5943 (Mono) variant
1401:Lib/Camera_Middleware/sensors/vd1943/vd1943.c ****     if (drv_vd1943_ctx->is_mono)
1402:Lib/Camera_Middleware/sensors/vd1943/vd1943.c ****       return -1;
1403:Lib/Camera_Middleware/sensors/vd1943/vd1943.c ****     else
1404:Lib/Camera_Middleware/sensors/vd1943/vd1943.c ****       break;
1405:Lib/Camera_Middleware/sensors/vd1943/vd1943.c ****   default:
1406:Lib/Camera_Middleware/sensors/vd1943/vd1943.c ****     return -1;
1407:Lib/Camera_Middleware/sensors/vd1943/vd1943.c ****   }
1408:Lib/Camera_Middleware/sensors/vd1943/vd1943.c **** 
1409:Lib/Camera_Middleware/sensors/vd1943/vd1943.c ****   return 0;
1410:Lib/Camera_Middleware/sensors/vd1943/vd1943.c **** }
1411:Lib/Camera_Middleware/sensors/vd1943/vd1943.c **** 
1412:Lib/Camera_Middleware/sensors/vd1943/vd1943.c **** static int VD1943_SetFctPtr(VD1943_Ctx_t *ctx)
1413:Lib/Camera_Middleware/sensors/vd1943/vd1943.c **** {
1414:Lib/Camera_Middleware/sensors/vd1943/vd1943.c ****   switch (ctx->ctx.config_save.image_processing_mode) {
1415:Lib/Camera_Middleware/sensors/vd1943/vd1943.c ****   case VD1943_GS_SS1_NATIVE_8:
1416:Lib/Camera_Middleware/sensors/vd1943/vd1943.c ****   case VD1943_GS_SS1_NATIVE_10:
1417:Lib/Camera_Middleware/sensors/vd1943/vd1943.c ****     ctx->ctx.set_digital_gain = VD1943_SetDigitalGain_RGBNIR;
1418:Lib/Camera_Middleware/sensors/vd1943/vd1943.c ****     ctx->ctx.set_expo = VD1943_SetExpo_GS;
1419:Lib/Camera_Middleware/sensors/vd1943/vd1943.c ****     ctx->ctx.get_expo = VD1943_GetExpo_GS;
1420:Lib/Camera_Middleware/sensors/vd1943/vd1943.c ****     break;
1421:Lib/Camera_Middleware/sensors/vd1943/vd1943.c ****   case VD1943_GS_SS1_SPLIT_NATIVE_8:
1422:Lib/Camera_Middleware/sensors/vd1943/vd1943.c ****   case VD1943_GS_SS1_SPLIT_NATIVE_10:
1423:Lib/Camera_Middleware/sensors/vd1943/vd1943.c ****   case VD1943_GS_SS1_SPLIT_IR_8:
1424:Lib/Camera_Middleware/sensors/vd1943/vd1943.c ****   case VD1943_GS_SS1_SPLIT_IR_10:
1425:Lib/Camera_Middleware/sensors/vd1943/vd1943.c ****     ctx->ctx.set_digital_gain = VD1943_SetDigitalGain_RGBNIR;
1426:Lib/Camera_Middleware/sensors/vd1943/vd1943.c ****     ctx->ctx.set_expo = VD1943_SetExpoSplit_GS;
1427:Lib/Camera_Middleware/sensors/vd1943/vd1943.c ****     ctx->ctx.get_expo = VD1943_GetExpo_GS;
1428:Lib/Camera_Middleware/sensors/vd1943/vd1943.c ****     break;
1429:Lib/Camera_Middleware/sensors/vd1943/vd1943.c ****   case VD1943_GS_SS1_RGB_8:
ARM GAS  C:\Users\DJESSOU\AppData\Local\Temp\cc3eovRL.s 			page 62


1430:Lib/Camera_Middleware/sensors/vd1943/vd1943.c ****   case VD1943_GS_SS1_RGB_10:
1431:Lib/Camera_Middleware/sensors/vd1943/vd1943.c ****     ctx->ctx.set_digital_gain = VD1943_SetDigitalGain_RGB;
1432:Lib/Camera_Middleware/sensors/vd1943/vd1943.c ****     ctx->ctx.set_expo = VD1943_SetExpo_GS;
1433:Lib/Camera_Middleware/sensors/vd1943/vd1943.c ****     ctx->ctx.get_expo = VD1943_GetExpo_GS;
1434:Lib/Camera_Middleware/sensors/vd1943/vd1943.c ****     break;
1435:Lib/Camera_Middleware/sensors/vd1943/vd1943.c ****   case VD1943_GS_SS1_IR_8:
1436:Lib/Camera_Middleware/sensors/vd1943/vd1943.c ****   case VD1943_GS_SS1_IR_10:
1437:Lib/Camera_Middleware/sensors/vd1943/vd1943.c ****   case VD1943_GS_SS2_MONO_8:
1438:Lib/Camera_Middleware/sensors/vd1943/vd1943.c ****   case VD1943_GS_SS2_MONO_10:
1439:Lib/Camera_Middleware/sensors/vd1943/vd1943.c ****   case VD1943_GS_SS4_MONO_8:
1440:Lib/Camera_Middleware/sensors/vd1943/vd1943.c ****   case VD1943_GS_SS4_MONO_10:
1441:Lib/Camera_Middleware/sensors/vd1943/vd1943.c ****   case VD1943_GS_SS32_MONO_8:
1442:Lib/Camera_Middleware/sensors/vd1943/vd1943.c ****   case VD1943_GS_SS32_MONO_10:
1443:Lib/Camera_Middleware/sensors/vd1943/vd1943.c ****     ctx->ctx.set_digital_gain = VD1943_SetDigitalGain_IR;
1444:Lib/Camera_Middleware/sensors/vd1943/vd1943.c ****     ctx->ctx.set_expo = VD1943_SetExpo_GS;
1445:Lib/Camera_Middleware/sensors/vd1943/vd1943.c ****     ctx->ctx.get_expo = VD1943_GetExpo_GS;
1446:Lib/Camera_Middleware/sensors/vd1943/vd1943.c ****     break;
1447:Lib/Camera_Middleware/sensors/vd1943/vd1943.c ****   case VD1943_RS_SDR_NATIVE_8:
1448:Lib/Camera_Middleware/sensors/vd1943/vd1943.c ****   case VD1943_RS_SDR_NATIVE_10:
1449:Lib/Camera_Middleware/sensors/vd1943/vd1943.c ****   case VD1943_RS_SDR_NATIVE_12:
1450:Lib/Camera_Middleware/sensors/vd1943/vd1943.c ****     ctx->ctx.set_digital_gain = VD1943_SetDigitalGain_RGBNIR;
1451:Lib/Camera_Middleware/sensors/vd1943/vd1943.c ****     ctx->ctx.set_expo = VD1943_SetExpo_RS;
1452:Lib/Camera_Middleware/sensors/vd1943/vd1943.c ****     ctx->ctx.get_expo = VD1943_GetExpo_RS;
1453:Lib/Camera_Middleware/sensors/vd1943/vd1943.c ****     break;
1454:Lib/Camera_Middleware/sensors/vd1943/vd1943.c ****   case VD1943_RS_SDR_RGB_8:
1455:Lib/Camera_Middleware/sensors/vd1943/vd1943.c ****   case VD1943_RS_SDR_RGB_10:
1456:Lib/Camera_Middleware/sensors/vd1943/vd1943.c ****   case VD1943_RS_SDR_RGB_12:
1457:Lib/Camera_Middleware/sensors/vd1943/vd1943.c ****     ctx->ctx.set_digital_gain = VD1943_SetDigitalGain_RGB;
1458:Lib/Camera_Middleware/sensors/vd1943/vd1943.c ****     ctx->ctx.set_expo = VD1943_SetExpo_RS;
1459:Lib/Camera_Middleware/sensors/vd1943/vd1943.c ****     ctx->ctx.get_expo = VD1943_GetExpo_RS;
1460:Lib/Camera_Middleware/sensors/vd1943/vd1943.c ****     break;
1461:Lib/Camera_Middleware/sensors/vd1943/vd1943.c ****   case VD1943_RS_HDR_NATIVE_10:
1462:Lib/Camera_Middleware/sensors/vd1943/vd1943.c ****   case VD1943_RS_HDR_NATIVE_12:
1463:Lib/Camera_Middleware/sensors/vd1943/vd1943.c ****   case VD1943_RS_HDR_RGB_10:
1464:Lib/Camera_Middleware/sensors/vd1943/vd1943.c ****   case VD1943_RS_HDR_RGB_12:
1465:Lib/Camera_Middleware/sensors/vd1943/vd1943.c ****     ctx->ctx.set_digital_gain = VD1943_SetDigitalGain_RGB;
1466:Lib/Camera_Middleware/sensors/vd1943/vd1943.c ****     ctx->ctx.set_expo = VD1943_SetExpo_RS_HDR;
1467:Lib/Camera_Middleware/sensors/vd1943/vd1943.c ****     ctx->ctx.get_expo = VD1943_GetExpo_RS;
1468:Lib/Camera_Middleware/sensors/vd1943/vd1943.c ****     break;
1469:Lib/Camera_Middleware/sensors/vd1943/vd1943.c ****   default:
1470:Lib/Camera_Middleware/sensors/vd1943/vd1943.c ****     assert(0);
1471:Lib/Camera_Middleware/sensors/vd1943/vd1943.c ****     return -1;
1472:Lib/Camera_Middleware/sensors/vd1943/vd1943.c ****   }
1473:Lib/Camera_Middleware/sensors/vd1943/vd1943.c **** 
1474:Lib/Camera_Middleware/sensors/vd1943/vd1943.c ****   return 0;
1475:Lib/Camera_Middleware/sensors/vd1943/vd1943.c **** }
1476:Lib/Camera_Middleware/sensors/vd1943/vd1943.c **** 
1477:Lib/Camera_Middleware/sensors/vd1943/vd1943.c **** int VD1943_Init(VD1943_Ctx_t *ctx, VD1943_Config_t *config)
1478:Lib/Camera_Middleware/sensors/vd1943/vd1943.c **** {
 1677              		.loc 1 1478 1 is_stmt 1 view -0
 1678              		.cfi_startproc
 1679              		@ args = 0, pretend = 0, frame = 8
 1680              		@ frame_needed = 0, uses_anonymous_args = 0
1479:Lib/Camera_Middleware/sensors/vd1943/vd1943.c ****   struct drv_vd1943_ctx *drv_vd1943_ctx = &ctx->ctx;
 1681              		.loc 1 1479 3 view .LVU448
1480:Lib/Camera_Middleware/sensors/vd1943/vd1943.c ****   int ret;
 1682              		.loc 1 1480 3 view .LVU449
ARM GAS  C:\Users\DJESSOU\AppData\Local\Temp\cc3eovRL.s 			page 63


1481:Lib/Camera_Middleware/sensors/vd1943/vd1943.c **** 
1482:Lib/Camera_Middleware/sensors/vd1943/vd1943.c ****   drv_vd1943_ctx->config_save = *config;
 1683              		.loc 1 1482 3 view .LVU450
1478:Lib/Camera_Middleware/sensors/vd1943/vd1943.c ****   struct drv_vd1943_ctx *drv_vd1943_ctx = &ctx->ctx;
 1684              		.loc 1 1478 1 is_stmt 0 view .LVU451
 1685 0000 F0B5     		push	{r4, r5, r6, r7, lr}
 1686              		.cfi_def_cfa_offset 20
 1687              		.cfi_offset 4, -20
 1688              		.cfi_offset 5, -16
 1689              		.cfi_offset 6, -12
 1690              		.cfi_offset 7, -8
 1691              		.cfi_offset 14, -4
 1692              		.loc 1 1482 31 view .LVU452
 1693 0002 4822     		movs	r2, #72
1478:Lib/Camera_Middleware/sensors/vd1943/vd1943.c ****   struct drv_vd1943_ctx *drv_vd1943_ctx = &ctx->ctx;
 1694              		.loc 1 1478 1 view .LVU453
 1695 0004 0446     		mov	r4, r0
 1696 0006 87B0     		sub	sp, sp, #28
 1697              		.cfi_def_cfa_offset 48
 1698              		.loc 1 1482 31 view .LVU454
 1699 0008 3830     		adds	r0, r0, #56
 1700              	.LVL144:
1478:Lib/Camera_Middleware/sensors/vd1943/vd1943.c ****   struct drv_vd1943_ctx *drv_vd1943_ctx = &ctx->ctx;
 1701              		.loc 1 1478 1 view .LVU455
 1702 000a 0D46     		mov	r5, r1
 1703              		.loc 1 1482 31 view .LVU456
 1704 000c FFF7FEFF 		bl	memcpy
 1705              	.LVL145:
1483:Lib/Camera_Middleware/sensors/vd1943/vd1943.c ****   drv_vd1943_ctx->digital_gain = 0x100;
 1706              		.loc 1 1483 3 is_stmt 1 view .LVU457
 1707              		.loc 1 1483 32 is_stmt 0 view .LVU458
 1708 0010 4FF48073 		mov	r3, #256
1484:Lib/Camera_Middleware/sensors/vd1943/vd1943.c **** 
1485:Lib/Camera_Middleware/sensors/vd1943/vd1943.c ****   ctx->shutdown_pin(ctx, 0);
 1709              		.loc 1 1485 3 view .LVU459
 1710 0014 0021     		movs	r1, #0
 1711 0016 2046     		mov	r0, r4
1483:Lib/Camera_Middleware/sensors/vd1943/vd1943.c ****   drv_vd1943_ctx->digital_gain = 0x100;
 1712              		.loc 1 1483 32 view .LVU460
 1713 0018 6363     		str	r3, [r4, #52]
 1714              		.loc 1 1485 3 is_stmt 1 view .LVU461
 1715 001a 2368     		ldr	r3, [r4]
 1716 001c 9847     		blx	r3
 1717              	.LVL146:
1486:Lib/Camera_Middleware/sensors/vd1943/vd1943.c ****   ctx->delay(ctx, 10);
 1718              		.loc 1 1486 3 view .LVU462
 1719 001e 0A21     		movs	r1, #10
 1720 0020 2046     		mov	r0, r4
 1721 0022 236A     		ldr	r3, [r4, #32]
 1722 0024 9847     		blx	r3
 1723              	.LVL147:
1487:Lib/Camera_Middleware/sensors/vd1943/vd1943.c ****   ctx->shutdown_pin(ctx, 1);
 1724              		.loc 1 1487 3 view .LVU463
 1725 0026 0121     		movs	r1, #1
 1726 0028 2046     		mov	r0, r4
 1727 002a 2368     		ldr	r3, [r4]
 1728 002c 9847     		blx	r3
ARM GAS  C:\Users\DJESSOU\AppData\Local\Temp\cc3eovRL.s 			page 64


 1729              	.LVL148:
1488:Lib/Camera_Middleware/sensors/vd1943/vd1943.c ****   ctx->delay(ctx, 10);
 1730              		.loc 1 1488 3 view .LVU464
 1731 002e 236A     		ldr	r3, [r4, #32]
 1732 0030 0A21     		movs	r1, #10
 1733 0032 2046     		mov	r0, r4
 1734 0034 9847     		blx	r3
 1735              	.LVL149:
1489:Lib/Camera_Middleware/sensors/vd1943/vd1943.c **** 
1490:Lib/Camera_Middleware/sensors/vd1943/vd1943.c ****   ret = VD1943_CheckConfig(ctx, config);
 1736              		.loc 1 1490 3 view .LVU465
 1737              	.LBB34:
 1738              	.LBI34:
1347:Lib/Camera_Middleware/sensors/vd1943/vd1943.c **** {
 1739              		.loc 1 1347 12 view .LVU466
 1740              	.LBB35:
1349:Lib/Camera_Middleware/sensors/vd1943/vd1943.c **** 
 1741              		.loc 1 1349 3 view .LVU467
1351:Lib/Camera_Middleware/sensors/vd1943/vd1943.c ****     VD1943_error(ctx, "ext_clock_freq_in_hz out of range");
 1742              		.loc 1 1351 3 view .LVU468
1351:Lib/Camera_Middleware/sensors/vd1943/vd1943.c ****     VD1943_error(ctx, "ext_clock_freq_in_hz out of range");
 1743              		.loc 1 1351 60 is_stmt 0 view .LVU469
 1744 0036 2B68     		ldr	r3, [r5]
1351:Lib/Camera_Middleware/sensors/vd1943/vd1943.c ****     VD1943_error(ctx, "ext_clock_freq_in_hz out of range");
 1745              		.loc 1 1351 6 view .LVU470
 1746 0038 964A     		ldr	r2, .L222
1351:Lib/Camera_Middleware/sensors/vd1943/vd1943.c ****     VD1943_error(ctx, "ext_clock_freq_in_hz out of range");
 1747              		.loc 1 1351 60 view .LVU471
 1748 003a A3F53703 		sub	r3, r3, #11993088
 1749 003e A3F5D853 		sub	r3, r3, #6912
1351:Lib/Camera_Middleware/sensors/vd1943/vd1943.c ****     VD1943_error(ctx, "ext_clock_freq_in_hz out of range");
 1750              		.loc 1 1351 6 view .LVU472
 1751 0042 9342     		cmp	r3, r2
 1752 0044 0BD9     		bls	.L121
1352:Lib/Camera_Middleware/sensors/vd1943/vd1943.c ****     return -1;
 1753              		.loc 1 1352 5 is_stmt 1 view .LVU473
1352:Lib/Camera_Middleware/sensors/vd1943/vd1943.c ****     return -1;
 1754              		.loc 1 1352 5 view .LVU474
 1755 0046 4FF4A963 		mov	r3, #1352
 1756 004a 934A     		ldr	r2, .L222+4
 1757              	.L207:
 1758 004c 0021     		movs	r1, #0
 1759 004e 2046     		mov	r0, r4
 1760 0050 FFF7FEFF 		bl	VD1943_log_impl
 1761              	.LVL150:
1352:Lib/Camera_Middleware/sensors/vd1943/vd1943.c ****     return -1;
 1762              		.loc 1 1352 5 discriminator 1 view .LVU475
1353:Lib/Camera_Middleware/sensors/vd1943/vd1943.c ****   }
 1763              		.loc 1 1353 5 view .LVU476
1353:Lib/Camera_Middleware/sensors/vd1943/vd1943.c ****   }
 1764              		.loc 1 1353 5 is_stmt 0 view .LVU477
 1765              	.LBE35:
 1766              	.LBE34:
1491:Lib/Camera_Middleware/sensors/vd1943/vd1943.c ****   if (ret)
 1767              		.loc 1 1491 3 is_stmt 1 view .LVU478
 1768              	.L124:
1492:Lib/Camera_Middleware/sensors/vd1943/vd1943.c ****     return ret;
ARM GAS  C:\Users\DJESSOU\AppData\Local\Temp\cc3eovRL.s 			page 65


 1769              		.loc 1 1492 12 is_stmt 0 view .LVU479
 1770 0054 4FF0FF35 		mov	r5, #-1
 1771              	.L120:
1493:Lib/Camera_Middleware/sensors/vd1943/vd1943.c **** 
1494:Lib/Camera_Middleware/sensors/vd1943/vd1943.c ****   ret = VD1943_SetFctPtr(ctx);
1495:Lib/Camera_Middleware/sensors/vd1943/vd1943.c ****   if (ret)
1496:Lib/Camera_Middleware/sensors/vd1943/vd1943.c ****     return ret;
1497:Lib/Camera_Middleware/sensors/vd1943/vd1943.c **** 
1498:Lib/Camera_Middleware/sensors/vd1943/vd1943.c ****   ret = VD1943_Boot(ctx);
1499:Lib/Camera_Middleware/sensors/vd1943/vd1943.c ****   if (ret)
1500:Lib/Camera_Middleware/sensors/vd1943/vd1943.c ****     return ret;
1501:Lib/Camera_Middleware/sensors/vd1943/vd1943.c **** 
1502:Lib/Camera_Middleware/sensors/vd1943/vd1943.c ****   drv_vd1943_ctx->state = VD1943_ST_IDLE;
1503:Lib/Camera_Middleware/sensors/vd1943/vd1943.c **** 
1504:Lib/Camera_Middleware/sensors/vd1943/vd1943.c ****   return 0;
1505:Lib/Camera_Middleware/sensors/vd1943/vd1943.c **** }
 1772              		.loc 1 1505 1 view .LVU480
 1773 0058 2846     		mov	r0, r5
 1774 005a 07B0     		add	sp, sp, #28
 1775              		.cfi_remember_state
 1776              		.cfi_def_cfa_offset 20
 1777              		@ sp needed
 1778 005c F0BD     		pop	{r4, r5, r6, r7, pc}
 1779              	.LVL151:
 1780              	.L121:
 1781              		.cfi_restore_state
 1782              	.LBB38:
 1783              	.LBB36:
1356:Lib/Camera_Middleware/sensors/vd1943/vd1943.c ****     VD1943_error(ctx, "data_rate_in_mps out of range");
 1784              		.loc 1 1356 3 is_stmt 1 view .LVU481
1356:Lib/Camera_Middleware/sensors/vd1943/vd1943.c ****     VD1943_error(ctx, "data_rate_in_mps out of range");
 1785              		.loc 1 1356 62 is_stmt 0 view .LVU482
 1786 005e 2A69     		ldr	r2, [r5, #16]
 1787 0060 8E4B     		ldr	r3, .L222+8
 1788 0062 1344     		add	r3, r3, r2
1356:Lib/Camera_Middleware/sensors/vd1943/vd1943.c ****     VD1943_error(ctx, "data_rate_in_mps out of range");
 1789              		.loc 1 1356 6 view .LVU483
 1790 0064 8E4A     		ldr	r2, .L222+12
 1791 0066 9342     		cmp	r3, r2
 1792 0068 03D9     		bls	.L123
1357:Lib/Camera_Middleware/sensors/vd1943/vd1943.c ****     return -1;
 1793              		.loc 1 1357 5 is_stmt 1 view .LVU484
1357:Lib/Camera_Middleware/sensors/vd1943/vd1943.c ****     return -1;
 1794              		.loc 1 1357 5 view .LVU485
 1795 006a 40F24D53 		movw	r3, #1357
 1796 006e 8D4A     		ldr	r2, .L222+16
 1797 0070 ECE7     		b	.L207
 1798              	.L123:
1361:Lib/Camera_Middleware/sensors/vd1943/vd1943.c ****     VD1943_error(ctx, "datalane_nb out of range");
 1799              		.loc 1 1361 3 view .LVU486
1361:Lib/Camera_Middleware/sensors/vd1943/vd1943.c ****     VD1943_error(ctx, "datalane_nb out of range");
 1800              		.loc 1 1361 22 is_stmt 0 view .LVU487
 1801 0072 6B69     		ldr	r3, [r5, #20]
1361:Lib/Camera_Middleware/sensors/vd1943/vd1943.c ****     VD1943_error(ctx, "datalane_nb out of range");
 1802              		.loc 1 1361 6 view .LVU488
 1803 0074 022B     		cmp	r3, #2
 1804 0076 05D0     		beq	.L125
ARM GAS  C:\Users\DJESSOU\AppData\Local\Temp\cc3eovRL.s 			page 66


1361:Lib/Camera_Middleware/sensors/vd1943/vd1943.c ****     VD1943_error(ctx, "datalane_nb out of range");
 1805              		.loc 1 1361 40 discriminator 1 view .LVU489
 1806 0078 042B     		cmp	r3, #4
 1807 007a 03D0     		beq	.L125
1362:Lib/Camera_Middleware/sensors/vd1943/vd1943.c ****     return -1;
 1808              		.loc 1 1362 5 is_stmt 1 view .LVU490
1362:Lib/Camera_Middleware/sensors/vd1943/vd1943.c ****     return -1;
 1809              		.loc 1 1362 5 view .LVU491
 1810 007c 40F25253 		movw	r3, #1362
 1811 0080 894A     		ldr	r2, .L222+20
 1812 0082 E3E7     		b	.L207
 1813              	.L125:
1366:Lib/Camera_Middleware/sensors/vd1943/vd1943.c ****       config->resolution > VD1943_RES_FULL_2560_1984) {
 1814              		.loc 1 1366 3 view .LVU492
1366:Lib/Camera_Middleware/sensors/vd1943/vd1943.c ****       config->resolution > VD1943_RES_FULL_2560_1984) {
 1815              		.loc 1 1366 6 is_stmt 0 view .LVU493
 1816 0084 2B79     		ldrb	r3, [r5, #4]	@ zero_extendqisi2
 1817 0086 092B     		cmp	r3, #9
 1818 0088 03D9     		bls	.L126
1368:Lib/Camera_Middleware/sensors/vd1943/vd1943.c ****     return -1;
 1819              		.loc 1 1368 5 is_stmt 1 view .LVU494
1368:Lib/Camera_Middleware/sensors/vd1943/vd1943.c ****     return -1;
 1820              		.loc 1 1368 5 view .LVU495
 1821 008a 4FF4AB63 		mov	r3, #1368
 1822 008e 874A     		ldr	r2, .L222+24
 1823 0090 DCE7     		b	.L207
 1824              	.L126:
1372:Lib/Camera_Middleware/sensors/vd1943/vd1943.c ****   case VD1943_GS_SS1_NATIVE_8:
 1825              		.loc 1 1372 3 view .LVU496
1372:Lib/Camera_Middleware/sensors/vd1943/vd1943.c ****   case VD1943_GS_SS1_NATIVE_8:
 1826              		.loc 1 1372 17 is_stmt 0 view .LVU497
 1827 0092 2B7B     		ldrb	r3, [r5, #12]	@ zero_extendqisi2
1372:Lib/Camera_Middleware/sensors/vd1943/vd1943.c ****   case VD1943_GS_SS1_NATIVE_8:
 1828              		.loc 1 1372 3 view .LVU498
 1829 0094 042B     		cmp	r3, #4
 1830 0096 1AD8     		bhi	.L127
 1831 0098 002B     		cmp	r3, #0
 1832 009a DBD0     		beq	.L124
 1833              	.L128:
 1834              	.LVL152:
1372:Lib/Camera_Middleware/sensors/vd1943/vd1943.c ****   case VD1943_GS_SS1_NATIVE_8:
 1835              		.loc 1 1372 3 view .LVU499
 1836              	.LBE36:
 1837              	.LBE38:
1494:Lib/Camera_Middleware/sensors/vd1943/vd1943.c ****   if (ret)
 1838              		.loc 1 1494 3 is_stmt 1 view .LVU500
 1839              	.LBB39:
 1840              	.LBI39:
1412:Lib/Camera_Middleware/sensors/vd1943/vd1943.c **** {
 1841              		.loc 1 1412 12 view .LVU501
 1842              	.LBB40:
1414:Lib/Camera_Middleware/sensors/vd1943/vd1943.c ****   case VD1943_GS_SS1_NATIVE_8:
 1843              		.loc 1 1414 3 view .LVU502
 1844 009c 94F84430 		ldrb	r3, [r4, #68]	@ zero_extendqisi2
 1845 00a0 013B     		subs	r3, r3, #1
 1846 00a2 222B     		cmp	r3, #34
 1847 00a4 56D8     		bhi	.L131
ARM GAS  C:\Users\DJESSOU\AppData\Local\Temp\cc3eovRL.s 			page 67


 1848 00a6 DFE803F0 		tbb	[pc, r3]
 1849              	.L133:
 1850 00aa 5C       		.byte	(.L139-.L133)/2
 1851 00ab 5C       		.byte	(.L139-.L133)/2
 1852 00ac 25       		.byte	(.L136-.L133)/2
 1853 00ad 25       		.byte	(.L136-.L133)/2
 1854 00ae 5E       		.byte	(.L189-.L133)/2
 1855 00af 5E       		.byte	(.L189-.L133)/2
 1856 00b0 55       		.byte	(.L131-.L133)/2
 1857 00b1 55       		.byte	(.L131-.L133)/2
 1858 00b2 29       		.byte	(.L137-.L133)/2
 1859 00b3 29       		.byte	(.L137-.L133)/2
 1860 00b4 29       		.byte	(.L137-.L133)/2
 1861 00b5 29       		.byte	(.L137-.L133)/2
 1862 00b6 29       		.byte	(.L137-.L133)/2
 1863 00b7 29       		.byte	(.L137-.L133)/2
 1864 00b8 29       		.byte	(.L137-.L133)/2
 1865 00b9 29       		.byte	(.L137-.L133)/2
 1866 00ba 25       		.byte	(.L136-.L133)/2
 1867 00bb 25       		.byte	(.L136-.L133)/2
 1868 00bc 55       		.byte	(.L131-.L133)/2
 1869 00bd 55       		.byte	(.L131-.L133)/2
 1870 00be 55       		.byte	(.L131-.L133)/2
 1871 00bf 55       		.byte	(.L131-.L133)/2
 1872 00c0 55       		.byte	(.L131-.L133)/2
 1873 00c1 55       		.byte	(.L131-.L133)/2
 1874 00c2 55       		.byte	(.L131-.L133)/2
 1875 00c3 2C       		.byte	(.L135-.L133)/2
 1876 00c4 2C       		.byte	(.L135-.L133)/2
 1877 00c5 2C       		.byte	(.L135-.L133)/2
 1878 00c6 50       		.byte	(.L134-.L133)/2
 1879 00c7 50       		.byte	(.L134-.L133)/2
 1880 00c8 50       		.byte	(.L134-.L133)/2
 1881 00c9 52       		.byte	(.L132-.L133)/2
 1882 00ca 52       		.byte	(.L132-.L133)/2
 1883 00cb 52       		.byte	(.L132-.L133)/2
 1884 00cc 52       		.byte	(.L132-.L133)/2
 1885              	.LVL153:
 1886 00cd 00       		.p2align 1
 1887              	.L127:
1414:Lib/Camera_Middleware/sensors/vd1943/vd1943.c ****   case VD1943_GS_SS1_NATIVE_8:
 1888              		.loc 1 1414 3 is_stmt 0 view .LVU503
 1889              	.LBE40:
 1890              	.LBE39:
 1891              	.LBB45:
 1892              	.LBB37:
1372:Lib/Camera_Middleware/sensors/vd1943/vd1943.c ****   case VD1943_GS_SS1_NATIVE_8:
 1893              		.loc 1 1372 3 view .LVU504
 1894 00ce 053B     		subs	r3, r3, #5
 1895 00d0 DBB2     		uxtb	r3, r3
 1896 00d2 1E2B     		cmp	r3, #30
 1897 00d4 BED8     		bhi	.L124
 1898 00d6 0122     		movs	r2, #1
 1899 00d8 02FA03F3 		lsl	r3, r2, r3
 1900 00dc 744A     		ldr	r2, .L222+28
 1901 00de 1342     		tst	r3, r2
 1902 00e0 DCD1     		bne	.L128
ARM GAS  C:\Users\DJESSOU\AppData\Local\Temp\cc3eovRL.s 			page 68


 1903 00e2 744A     		ldr	r2, .L222+32
 1904 00e4 1A40     		ands	r2, r2, r3
 1905 00e6 002A     		cmp	r2, #0
 1906 00e8 B4D0     		beq	.L124
1401:Lib/Camera_Middleware/sensors/vd1943/vd1943.c ****       return -1;
 1907              		.loc 1 1401 5 is_stmt 1 view .LVU505
1401:Lib/Camera_Middleware/sensors/vd1943/vd1943.c ****       return -1;
 1908              		.loc 1 1401 8 is_stmt 0 view .LVU506
 1909 00ea 94F83030 		ldrb	r3, [r4, #48]	@ zero_extendqisi2
 1910 00ee 002B     		cmp	r3, #0
 1911 00f0 D4D0     		beq	.L128
 1912 00f2 AFE7     		b	.L124
 1913              	.LVL154:
 1914              	.L136:
1401:Lib/Camera_Middleware/sensors/vd1943/vd1943.c ****       return -1;
 1915              		.loc 1 1401 8 view .LVU507
 1916              	.LBE37:
 1917              	.LBE45:
 1918              	.LBB46:
 1919              	.LBB41:
1414:Lib/Camera_Middleware/sensors/vd1943/vd1943.c ****   case VD1943_GS_SS1_NATIVE_8:
 1920              		.loc 1 1414 3 view .LVU508
 1921 00f4 7049     		ldr	r1, .L222+36
 1922 00f6 714A     		ldr	r2, .L222+40
 1923              	.L211:
1414:Lib/Camera_Middleware/sensors/vd1943/vd1943.c ****   case VD1943_GS_SS1_NATIVE_8:
 1924              		.loc 1 1414 3 view .LVU509
 1925 00f8 714B     		ldr	r3, .L222+44
 1926 00fa 05E0     		b	.L138
 1927              	.L137:
1443:Lib/Camera_Middleware/sensors/vd1943/vd1943.c ****     ctx->ctx.set_expo = VD1943_SetExpo_GS;
 1928              		.loc 1 1443 5 is_stmt 1 view .LVU510
1444:Lib/Camera_Middleware/sensors/vd1943/vd1943.c ****     ctx->ctx.get_expo = VD1943_GetExpo_GS;
 1929              		.loc 1 1444 5 view .LVU511
1445:Lib/Camera_Middleware/sensors/vd1943/vd1943.c ****     break;
 1930              		.loc 1 1445 5 view .LVU512
1446:Lib/Camera_Middleware/sensors/vd1943/vd1943.c ****   case VD1943_RS_SDR_NATIVE_8:
 1931              		.loc 1 1446 5 view .LVU513
 1932 00fc 7149     		ldr	r1, .L222+48
 1933              	.L210:
1414:Lib/Camera_Middleware/sensors/vd1943/vd1943.c ****   case VD1943_GS_SS1_NATIVE_8:
 1934              		.loc 1 1414 3 is_stmt 0 view .LVU514
 1935 00fe 724A     		ldr	r2, .L222+52
 1936 0100 FAE7     		b	.L211
 1937              	.L135:
1450:Lib/Camera_Middleware/sensors/vd1943/vd1943.c ****     ctx->ctx.set_expo = VD1943_SetExpo_RS;
 1938              		.loc 1 1450 5 is_stmt 1 view .LVU515
1451:Lib/Camera_Middleware/sensors/vd1943/vd1943.c ****     ctx->ctx.get_expo = VD1943_GetExpo_RS;
 1939              		.loc 1 1451 5 view .LVU516
1452:Lib/Camera_Middleware/sensors/vd1943/vd1943.c ****     break;
 1940              		.loc 1 1452 5 view .LVU517
1453:Lib/Camera_Middleware/sensors/vd1943/vd1943.c ****   case VD1943_RS_SDR_RGB_8:
 1941              		.loc 1 1453 5 view .LVU518
 1942 0102 6D49     		ldr	r1, .L222+36
 1943              	.L220:
1460:Lib/Camera_Middleware/sensors/vd1943/vd1943.c ****   case VD1943_RS_HDR_NATIVE_10:
 1944              		.loc 1 1460 5 is_stmt 0 view .LVU519
ARM GAS  C:\Users\DJESSOU\AppData\Local\Temp\cc3eovRL.s 			page 69


 1945 0104 714A     		ldr	r2, .L222+56
 1946              	.L209:
1468:Lib/Camera_Middleware/sensors/vd1943/vd1943.c ****   default:
 1947              		.loc 1 1468 5 view .LVU520
 1948 0106 724B     		ldr	r3, .L222+60
 1949              	.L138:
1418:Lib/Camera_Middleware/sensors/vd1943/vd1943.c ****     ctx->ctx.get_expo = VD1943_GetExpo_GS;
 1950              		.loc 1 1418 23 view .LVU521
 1951 0108 C4E92012 		strd	r1, r2, [r4, #128]
 1952              	.LBE41:
 1953              	.LBE46:
 1954              	.LBB47:
 1955              	.LBB48:
 730:Lib/Camera_Middleware/sensors/vd1943/vd1943.c ****   if (ret)
 1956              		.loc 1 730 9 view .LVU522
 1957 010c 2046     		mov	r0, r4
 1958 010e 0121     		movs	r1, #1
 1959              	.LBE48:
 1960              	.LBE47:
 1961              	.LBB99:
 1962              	.LBB42:
1419:Lib/Camera_Middleware/sensors/vd1943/vd1943.c ****     break;
 1963              		.loc 1 1419 23 view .LVU523
 1964 0110 C4F88830 		str	r3, [r4, #136]
1474:Lib/Camera_Middleware/sensors/vd1943/vd1943.c **** }
 1965              		.loc 1 1474 3 is_stmt 1 view .LVU524
 1966              	.LVL155:
1474:Lib/Camera_Middleware/sensors/vd1943/vd1943.c **** }
 1967              		.loc 1 1474 3 is_stmt 0 view .LVU525
 1968              	.LBE42:
 1969              	.LBE99:
1495:Lib/Camera_Middleware/sensors/vd1943/vd1943.c ****     return ret;
 1970              		.loc 1 1495 3 is_stmt 1 view .LVU526
1498:Lib/Camera_Middleware/sensors/vd1943/vd1943.c ****   if (ret)
 1971              		.loc 1 1498 3 view .LVU527
 1972              	.LBB100:
 1973              	.LBI47:
 726:Lib/Camera_Middleware/sensors/vd1943/vd1943.c **** {
 1974              		.loc 1 726 12 view .LVU528
 1975              	.LBB95:
 728:Lib/Camera_Middleware/sensors/vd1943/vd1943.c **** 
 1976              		.loc 1 728 3 view .LVU529
 730:Lib/Camera_Middleware/sensors/vd1943/vd1943.c ****   if (ret)
 1977              		.loc 1 730 3 view .LVU530
 730:Lib/Camera_Middleware/sensors/vd1943/vd1943.c ****   if (ret)
 1978              		.loc 1 730 9 is_stmt 0 view .LVU531
 1979 0114 FFF7FEFF 		bl	VD1943_WaitState
 1980              	.LVL156:
 731:Lib/Camera_Middleware/sensors/vd1943/vd1943.c ****     return ret;
 1981              		.loc 1 731 3 is_stmt 1 view .LVU532
 731:Lib/Camera_Middleware/sensors/vd1943/vd1943.c ****     return ret;
 1982              		.loc 1 731 6 is_stmt 0 view .LVU533
 1983 0118 0546     		mov	r5, r0
 1984              	.LVL157:
 731:Lib/Camera_Middleware/sensors/vd1943/vd1943.c ****     return ret;
 1985              		.loc 1 731 6 view .LVU534
 1986 011a 0028     		cmp	r0, #0
ARM GAS  C:\Users\DJESSOU\AppData\Local\Temp\cc3eovRL.s 			page 70


 1987 011c 9CD1     		bne	.L120
 734:Lib/Camera_Middleware/sensors/vd1943/vd1943.c ****   if (ret)
 1988              		.loc 1 734 3 is_stmt 1 view .LVU535
 1989              	.LVL158:
 1990              	.LBB49:
 1991              	.LBI49:
 324:Lib/Camera_Middleware/sensors/vd1943/vd1943.c **** {
 1992              		.loc 1 324 12 view .LVU536
 1993              	.LBB50:
 326:Lib/Camera_Middleware/sensors/vd1943/vd1943.c ****   uint16_t reg16;
 1994              		.loc 1 326 3 view .LVU537
 327:Lib/Camera_Middleware/sensors/vd1943/vd1943.c ****   int ret;
 1995              		.loc 1 327 3 view .LVU538
 328:Lib/Camera_Middleware/sensors/vd1943/vd1943.c **** 
 1996              		.loc 1 328 3 view .LVU539
 330:Lib/Camera_Middleware/sensors/vd1943/vd1943.c ****   VD1943_TraceError(ctx, ret);
 1997              		.loc 1 330 3 view .LVU540
 330:Lib/Camera_Middleware/sensors/vd1943/vd1943.c ****   VD1943_TraceError(ctx, ret);
 1998              		.loc 1 330 9 is_stmt 0 view .LVU541
 1999 011e 0146     		mov	r1, r0
 2000 0120 E368     		ldr	r3, [r4, #12]
 2001 0122 2046     		mov	r0, r4
 2002              	.LVL159:
 330:Lib/Camera_Middleware/sensors/vd1943/vd1943.c ****   VD1943_TraceError(ctx, ret);
 2003              		.loc 1 330 9 view .LVU542
 2004 0124 05AA     		add	r2, sp, #20
 2005 0126 9847     		blx	r3
 2006              	.LVL160:
 331:Lib/Camera_Middleware/sensors/vd1943/vd1943.c ****   VD1943_dbg(ctx, 0, "model_id = 0x%08x\n", reg32);
 2007              		.loc 1 331 3 is_stmt 1 view .LVU543
 331:Lib/Camera_Middleware/sensors/vd1943/vd1943.c ****   VD1943_dbg(ctx, 0, "model_id = 0x%08x\n", reg32);
 2008              		.loc 1 331 3 view .LVU544
 2009 0128 0546     		mov	r5, r0
 2010              	.LVL161:
 331:Lib/Camera_Middleware/sensors/vd1943/vd1943.c ****   VD1943_dbg(ctx, 0, "model_id = 0x%08x\n", reg32);
 2011              		.loc 1 331 3 is_stmt 0 view .LVU545
 2012 012a F0B1     		cbz	r0, .L140
 331:Lib/Camera_Middleware/sensors/vd1943/vd1943.c ****   VD1943_dbg(ctx, 0, "model_id = 0x%08x\n", reg32);
 2013              		.loc 1 331 3 is_stmt 1 discriminator 1 view .LVU546
 331:Lib/Camera_Middleware/sensors/vd1943/vd1943.c ****   VD1943_dbg(ctx, 0, "model_id = 0x%08x\n", reg32);
 2014              		.loc 1 331 3 discriminator 1 view .LVU547
 2015 012c 40F24B13 		movw	r3, #331
 2016 0130 0290     		str	r0, [sp, #8]
 2017              	.L216:
 339:Lib/Camera_Middleware/sensors/vd1943/vd1943.c ****   VD1943_dbg(ctx, 0, "rom revision = 0x%08x\n", reg16);
 2018              		.loc 1 339 3 is_stmt 0 discriminator 1 view .LVU548
 2019 0132 684A     		ldr	r2, .L222+64
 2020 0134 0193     		str	r3, [sp, #4]
 2021              	.LVL162:
 2022              	.L217:
 339:Lib/Camera_Middleware/sensors/vd1943/vd1943.c ****   VD1943_dbg(ctx, 0, "rom revision = 0x%08x\n", reg16);
 2023              		.loc 1 339 3 discriminator 1 view .LVU549
 2024 0136 2046     		mov	r0, r4
 2025 0138 0092     		str	r2, [sp]
 2026 013a 0021     		movs	r1, #0
 2027 013c 664A     		ldr	r2, .L222+68
 2028 013e FFF7FEFF 		bl	VD1943_log_impl
ARM GAS  C:\Users\DJESSOU\AppData\Local\Temp\cc3eovRL.s 			page 71


 2029              	.LVL163:
 339:Lib/Camera_Middleware/sensors/vd1943/vd1943.c ****   VD1943_dbg(ctx, 0, "rom revision = 0x%08x\n", reg16);
 2030              		.loc 1 339 3 is_stmt 1 discriminator 3 view .LVU550
 339:Lib/Camera_Middleware/sensors/vd1943/vd1943.c ****   VD1943_dbg(ctx, 0, "rom revision = 0x%08x\n", reg16);
 2031              		.loc 1 339 3 discriminator 3 view .LVU551
 339:Lib/Camera_Middleware/sensors/vd1943/vd1943.c ****   VD1943_dbg(ctx, 0, "rom revision = 0x%08x\n", reg16);
 2032              		.loc 1 339 3 discriminator 4 view .LVU552
 2033 0142 2046     		mov	r0, r4
 2034 0144 FFF7FEFF 		bl	display_error
 2035              	.LVL164:
 339:Lib/Camera_Middleware/sensors/vd1943/vd1943.c ****   VD1943_dbg(ctx, 0, "rom revision = 0x%08x\n", reg16);
 2036              		.loc 1 339 3 discriminator 6 view .LVU553
 339:Lib/Camera_Middleware/sensors/vd1943/vd1943.c ****   VD1943_dbg(ctx, 0, "rom revision = 0x%08x\n", reg16);
 2037              		.loc 1 339 3 discriminator 7 view .LVU554
 339:Lib/Camera_Middleware/sensors/vd1943/vd1943.c ****   VD1943_dbg(ctx, 0, "rom revision = 0x%08x\n", reg16);
 2038              		.loc 1 339 3 is_stmt 0 discriminator 7 view .LVU555
 2039              	.LBE50:
 2040              	.LBE49:
 735:Lib/Camera_Middleware/sensors/vd1943/vd1943.c ****     return ret;
 2041              		.loc 1 735 3 is_stmt 1 view .LVU556
 2042 0148 86E7     		b	.L120
 2043              	.LVL165:
 2044              	.L134:
 735:Lib/Camera_Middleware/sensors/vd1943/vd1943.c ****     return ret;
 2045              		.loc 1 735 3 is_stmt 0 view .LVU557
 2046              	.LBE95:
 2047              	.LBE100:
 2048              	.LBB101:
 2049              	.LBB43:
1457:Lib/Camera_Middleware/sensors/vd1943/vd1943.c ****     ctx->ctx.set_expo = VD1943_SetExpo_RS;
 2050              		.loc 1 1457 5 is_stmt 1 view .LVU558
1458:Lib/Camera_Middleware/sensors/vd1943/vd1943.c ****     ctx->ctx.get_expo = VD1943_GetExpo_RS;
 2051              		.loc 1 1458 5 view .LVU559
1459:Lib/Camera_Middleware/sensors/vd1943/vd1943.c ****     break;
 2052              		.loc 1 1459 5 view .LVU560
1460:Lib/Camera_Middleware/sensors/vd1943/vd1943.c ****   case VD1943_RS_HDR_NATIVE_10:
 2053              		.loc 1 1460 5 view .LVU561
 2054 014a 6449     		ldr	r1, .L222+72
 2055 014c DAE7     		b	.L220
 2056              	.L132:
1465:Lib/Camera_Middleware/sensors/vd1943/vd1943.c ****     ctx->ctx.set_expo = VD1943_SetExpo_RS_HDR;
 2057              		.loc 1 1465 5 view .LVU562
1466:Lib/Camera_Middleware/sensors/vd1943/vd1943.c ****     ctx->ctx.get_expo = VD1943_GetExpo_RS;
 2058              		.loc 1 1466 5 view .LVU563
1467:Lib/Camera_Middleware/sensors/vd1943/vd1943.c ****     break;
 2059              		.loc 1 1467 5 view .LVU564
1468:Lib/Camera_Middleware/sensors/vd1943/vd1943.c ****   default:
 2060              		.loc 1 1468 5 view .LVU565
 2061 014e 6349     		ldr	r1, .L222+72
 2062 0150 634A     		ldr	r2, .L222+76
 2063 0152 D8E7     		b	.L209
 2064              	.L131:
1470:Lib/Camera_Middleware/sensors/vd1943/vd1943.c ****     return -1;
 2065              		.loc 1 1470 5 view .LVU566
 2066 0154 40F2BE51 		movw	r1, #1470
 2067 0158 624B     		ldr	r3, .L222+80
 2068 015a 634A     		ldr	r2, .L222+84
ARM GAS  C:\Users\DJESSOU\AppData\Local\Temp\cc3eovRL.s 			page 72


 2069              	.LVL166:
 2070              	.L219:
1470:Lib/Camera_Middleware/sensors/vd1943/vd1943.c ****     return -1;
 2071              		.loc 1 1470 5 is_stmt 0 view .LVU567
 2072              	.LBE43:
 2073              	.LBE101:
 2074              	.LBB102:
 2075              	.LBB96:
 2076              	.LBB55:
 2077              	.LBB56:
 2078              	.LBB57:
 2079              	.LBB58:
 625:Lib/Camera_Middleware/sensors/vd1943/vd1943.c ****   }
 2080              		.loc 1 625 5 view .LVU568
 2081 015c 6348     		ldr	r0, .L222+88
 2082 015e FFF7FEFF 		bl	__assert_func
 2083              	.LVL167:
 2084              	.L139:
 625:Lib/Camera_Middleware/sensors/vd1943/vd1943.c ****   }
 2085              		.loc 1 625 5 view .LVU569
 2086              	.LBE58:
 2087              	.LBE57:
 2088              	.LBE56:
 2089              	.LBE55:
 2090              	.LBE96:
 2091              	.LBE102:
 2092              	.LBB103:
 2093              	.LBB44:
1414:Lib/Camera_Middleware/sensors/vd1943/vd1943.c ****   case VD1943_GS_SS1_NATIVE_8:
 2094              		.loc 1 1414 3 view .LVU570
 2095 0162 5549     		ldr	r1, .L222+36
 2096 0164 CBE7     		b	.L210
 2097              	.L189:
 2098 0166 5D49     		ldr	r1, .L222+72
 2099 0168 C9E7     		b	.L210
 2100              	.LVL168:
 2101              	.L140:
1414:Lib/Camera_Middleware/sensors/vd1943/vd1943.c ****   case VD1943_GS_SS1_NATIVE_8:
 2102              		.loc 1 1414 3 view .LVU571
 2103              	.LBE44:
 2104              	.LBE103:
 2105              	.LBB104:
 2106              	.LBB97:
 2107              	.LBB69:
 2108              	.LBB51:
 331:Lib/Camera_Middleware/sensors/vd1943/vd1943.c ****   VD1943_dbg(ctx, 0, "model_id = 0x%08x\n", reg32);
 2109              		.loc 1 331 3 is_stmt 1 discriminator 6 view .LVU572
 331:Lib/Camera_Middleware/sensors/vd1943/vd1943.c ****   VD1943_dbg(ctx, 0, "model_id = 0x%08x\n", reg32);
 2110              		.loc 1 331 3 discriminator 8 view .LVU573
 332:Lib/Camera_Middleware/sensors/vd1943/vd1943.c ****   if (reg32 != VD1943_MODEL_ID_1_3 && reg32 != VD1943_MODEL_ID_1_4) {
 2111              		.loc 1 332 3 view .LVU574
 332:Lib/Camera_Middleware/sensors/vd1943/vd1943.c ****   if (reg32 != VD1943_MODEL_ID_1_3 && reg32 != VD1943_MODEL_ID_1_4) {
 2112              		.loc 1 332 3 view .LVU575
 2113 016a 059B     		ldr	r3, [sp, #20]
 2114 016c 604A     		ldr	r2, .L222+92
 2115 016e 0193     		str	r3, [sp, #4]
 2116 0170 4FF4A673 		mov	r3, #332
ARM GAS  C:\Users\DJESSOU\AppData\Local\Temp\cc3eovRL.s 			page 73


 2117 0174 0321     		movs	r1, #3
 2118 0176 0093     		str	r3, [sp]
 2119 0178 0346     		mov	r3, r0
 2120 017a 2046     		mov	r0, r4
 2121              	.LVL169:
 332:Lib/Camera_Middleware/sensors/vd1943/vd1943.c ****   if (reg32 != VD1943_MODEL_ID_1_3 && reg32 != VD1943_MODEL_ID_1_4) {
 2122              		.loc 1 332 3 is_stmt 0 view .LVU576
 2123 017c FFF7FEFF 		bl	VD1943_log_impl
 2124              	.LVL170:
 332:Lib/Camera_Middleware/sensors/vd1943/vd1943.c ****   if (reg32 != VD1943_MODEL_ID_1_3 && reg32 != VD1943_MODEL_ID_1_4) {
 2125              		.loc 1 332 3 is_stmt 1 discriminator 1 view .LVU577
 333:Lib/Camera_Middleware/sensors/vd1943/vd1943.c ****     VD1943_error(ctx, "Unsupported model id: 0x%08x\n", reg32);
 2126              		.loc 1 333 3 view .LVU578
 333:Lib/Camera_Middleware/sensors/vd1943/vd1943.c ****     VD1943_error(ctx, "Unsupported model id: 0x%08x\n", reg32);
 2127              		.loc 1 333 36 is_stmt 0 view .LVU579
 2128 0180 059A     		ldr	r2, [sp, #20]
 2129 0182 5C4B     		ldr	r3, .L222+96
 2130 0184 1344     		add	r3, r3, r2
 333:Lib/Camera_Middleware/sensors/vd1943/vd1943.c ****     VD1943_error(ctx, "Unsupported model id: 0x%08x\n", reg32);
 2131              		.loc 1 333 6 view .LVU580
 2132 0186 012B     		cmp	r3, #1
 2133 0188 08D9     		bls	.L141
 334:Lib/Camera_Middleware/sensors/vd1943/vd1943.c ****     return -1;
 2134              		.loc 1 334 5 is_stmt 1 view .LVU581
 334:Lib/Camera_Middleware/sensors/vd1943/vd1943.c ****     return -1;
 2135              		.loc 1 334 5 view .LVU582
 2136 018a 4FF4A773 		mov	r3, #334
 2137 018e 0092     		str	r2, [sp]
 2138 0190 594A     		ldr	r2, .L222+100
 2139              	.L208:
 346:Lib/Camera_Middleware/sensors/vd1943/vd1943.c ****     return -1;
 2140              		.loc 1 346 5 is_stmt 0 view .LVU583
 2141 0192 2946     		mov	r1, r5
 2142 0194 2046     		mov	r0, r4
 2143 0196 FFF7FEFF 		bl	VD1943_log_impl
 2144              	.LVL171:
 346:Lib/Camera_Middleware/sensors/vd1943/vd1943.c ****     return -1;
 2145              		.loc 1 346 5 is_stmt 1 discriminator 1 view .LVU584
 347:Lib/Camera_Middleware/sensors/vd1943/vd1943.c ****   }
 2146              		.loc 1 347 5 view .LVU585
 347:Lib/Camera_Middleware/sensors/vd1943/vd1943.c ****   }
 2147              		.loc 1 347 5 is_stmt 0 view .LVU586
 2148              	.LBE51:
 2149              	.LBE69:
 735:Lib/Camera_Middleware/sensors/vd1943/vd1943.c ****     return ret;
 2150              		.loc 1 735 3 is_stmt 1 view .LVU587
 2151 019a 5BE7     		b	.L124
 2152              	.LVL172:
 2153              	.L141:
 2154              	.LBB70:
 2155              	.LBB52:
 338:Lib/Camera_Middleware/sensors/vd1943/vd1943.c ****   VD1943_TraceError(ctx, ret);
 2156              		.loc 1 338 3 view .LVU588
 338:Lib/Camera_Middleware/sensors/vd1943/vd1943.c ****   VD1943_TraceError(ctx, ret);
 2157              		.loc 1 338 9 is_stmt 0 view .LVU589
 2158 019c 0C21     		movs	r1, #12
 2159 019e 2046     		mov	r0, r4
ARM GAS  C:\Users\DJESSOU\AppData\Local\Temp\cc3eovRL.s 			page 74


 2160 01a0 A368     		ldr	r3, [r4, #8]
 2161 01a2 0DF11202 		add	r2, sp, #18
 2162 01a6 9847     		blx	r3
 2163              	.LVL173:
 339:Lib/Camera_Middleware/sensors/vd1943/vd1943.c ****   VD1943_dbg(ctx, 0, "rom revision = 0x%08x\n", reg16);
 2164              		.loc 1 339 3 is_stmt 1 view .LVU590
 339:Lib/Camera_Middleware/sensors/vd1943/vd1943.c ****   VD1943_dbg(ctx, 0, "rom revision = 0x%08x\n", reg16);
 2165              		.loc 1 339 3 view .LVU591
 2166 01a8 0546     		mov	r5, r0
 2167 01aa 0028     		cmp	r0, #0
 2168 01ac 40D1     		bne	.L142
 339:Lib/Camera_Middleware/sensors/vd1943/vd1943.c ****   VD1943_dbg(ctx, 0, "rom revision = 0x%08x\n", reg16);
 2169              		.loc 1 339 3 discriminator 3 view .LVU592
 339:Lib/Camera_Middleware/sensors/vd1943/vd1943.c ****   VD1943_dbg(ctx, 0, "rom revision = 0x%08x\n", reg16);
 2170              		.loc 1 339 3 discriminator 3 view .LVU593
 339:Lib/Camera_Middleware/sensors/vd1943/vd1943.c ****   VD1943_dbg(ctx, 0, "rom revision = 0x%08x\n", reg16);
 2171              		.loc 1 339 3 discriminator 6 view .LVU594
 339:Lib/Camera_Middleware/sensors/vd1943/vd1943.c ****   VD1943_dbg(ctx, 0, "rom revision = 0x%08x\n", reg16);
 2172              		.loc 1 339 3 discriminator 8 view .LVU595
 340:Lib/Camera_Middleware/sensors/vd1943/vd1943.c ****   if (reg16 == VD1943_ROM_REVISION_13) {
 2173              		.loc 1 340 3 view .LVU596
 340:Lib/Camera_Middleware/sensors/vd1943/vd1943.c ****   if (reg16 == VD1943_ROM_REVISION_13) {
 2174              		.loc 1 340 3 view .LVU597
 2175 01ae BDF81230 		ldrh	r3, [sp, #18]
 2176 01b2 0321     		movs	r1, #3
 2177 01b4 0193     		str	r3, [sp, #4]
 2178 01b6 4FF4AA73 		mov	r3, #340
 2179 01ba 504A     		ldr	r2, .L222+104
 2180 01bc 0093     		str	r3, [sp]
 2181 01be 0346     		mov	r3, r0
 2182 01c0 2046     		mov	r0, r4
 2183              	.LVL174:
 340:Lib/Camera_Middleware/sensors/vd1943/vd1943.c ****   if (reg16 == VD1943_ROM_REVISION_13) {
 2184              		.loc 1 340 3 is_stmt 0 view .LVU598
 2185 01c2 FFF7FEFF 		bl	VD1943_log_impl
 2186              	.LVL175:
 340:Lib/Camera_Middleware/sensors/vd1943/vd1943.c ****   if (reg16 == VD1943_ROM_REVISION_13) {
 2187              		.loc 1 340 3 is_stmt 1 discriminator 1 view .LVU599
 341:Lib/Camera_Middleware/sensors/vd1943/vd1943.c ****     ctx->ctx.is_fastboot = 0;
 2188              		.loc 1 341 3 view .LVU600
 341:Lib/Camera_Middleware/sensors/vd1943/vd1943.c ****     ctx->ctx.is_fastboot = 0;
 2189              		.loc 1 341 13 is_stmt 0 view .LVU601
 2190 01c6 BDF81230 		ldrh	r3, [sp, #18]
 341:Lib/Camera_Middleware/sensors/vd1943/vd1943.c ****     ctx->ctx.is_fastboot = 0;
 2191              		.loc 1 341 6 view .LVU602
 2192 01ca B3F5806F 		cmp	r3, #1024
 2193 01ce 33D1     		bne	.L199
 342:Lib/Camera_Middleware/sensors/vd1943/vd1943.c ****   } else if (reg16 == VD1943_ROM_REVISION_14) {
 2194              		.loc 1 342 5 is_stmt 1 view .LVU603
 342:Lib/Camera_Middleware/sensors/vd1943/vd1943.c ****   } else if (reg16 == VD1943_ROM_REVISION_14) {
 2195              		.loc 1 342 26 is_stmt 0 view .LVU604
 2196 01d0 84F83150 		strb	r5, [r4, #49]
 350:Lib/Camera_Middleware/sensors/vd1943/vd1943.c ****     ret = ctx->read16(ctx, VD1943_REG_CFA_SELECTION, &reg16);
 2197              		.loc 1 350 3 is_stmt 1 view .LVU605
 360:Lib/Camera_Middleware/sensors/vd1943/vd1943.c **** #endif
 2198              		.loc 1 360 5 view .LVU606
 2199              	.LVL176:
ARM GAS  C:\Users\DJESSOU\AppData\Local\Temp\cc3eovRL.s 			page 75


 360:Lib/Camera_Middleware/sensors/vd1943/vd1943.c **** #endif
 2200              		.loc 1 360 5 is_stmt 0 view .LVU607
 2201              	.LBE52:
 2202              	.LBE70:
 735:Lib/Camera_Middleware/sensors/vd1943/vd1943.c ****     return ret;
 2203              		.loc 1 735 3 is_stmt 1 view .LVU608
 2204              	.L145:
 2205              	.LBB71:
 2206              	.LBB53:
 360:Lib/Camera_Middleware/sensors/vd1943/vd1943.c **** #endif
 2207              		.loc 1 360 22 is_stmt 0 view .LVU609
 2208 01d4 84F83050 		strb	r5, [r4, #48]
 2209              	.LBE53:
 2210              	.LBE71:
 738:Lib/Camera_Middleware/sensors/vd1943/vd1943.c ****   if (ret)
 2211              		.loc 1 738 3 is_stmt 1 view .LVU610
 2212              	.LVL177:
 2213              	.LBB72:
 2214              	.LBI72:
 367:Lib/Camera_Middleware/sensors/vd1943/vd1943.c **** {
 2215              		.loc 1 367 12 view .LVU611
 2216              	.LBB73:
 369:Lib/Camera_Middleware/sensors/vd1943/vd1943.c **** 
 2217              		.loc 1 369 3 view .LVU612
 371:Lib/Camera_Middleware/sensors/vd1943/vd1943.c ****   if (ret)
 2218              		.loc 1 371 3 view .LVU613
 371:Lib/Camera_Middleware/sensors/vd1943/vd1943.c ****   if (ret)
 2219              		.loc 1 371 9 is_stmt 0 view .LVU614
 2220 01d8 0122     		movs	r2, #1
 2221 01da 40F21451 		movw	r1, #1300
 2222 01de 2046     		mov	r0, r4
 2223 01e0 FFF7FEFF 		bl	VD1943_ApplyCmdAndWait
 2224              	.LVL178:
 372:Lib/Camera_Middleware/sensors/vd1943/vd1943.c ****     return ret;
 2225              		.loc 1 372 3 is_stmt 1 view .LVU615
 372:Lib/Camera_Middleware/sensors/vd1943/vd1943.c ****     return ret;
 2226              		.loc 1 372 6 is_stmt 0 view .LVU616
 2227 01e4 0546     		mov	r5, r0
 2228 01e6 0028     		cmp	r0, #0
 2229 01e8 7FF436AF 		bne	.L120
 375:Lib/Camera_Middleware/sensors/vd1943/vd1943.c ****   if (ret)
 2230              		.loc 1 375 3 is_stmt 1 view .LVU617
 375:Lib/Camera_Middleware/sensors/vd1943/vd1943.c ****   if (ret)
 2231              		.loc 1 375 9 is_stmt 0 view .LVU618
 2232 01ec 0221     		movs	r1, #2
 2233 01ee 2046     		mov	r0, r4
 2234              	.LVL179:
 375:Lib/Camera_Middleware/sensors/vd1943/vd1943.c ****   if (ret)
 2235              		.loc 1 375 9 view .LVU619
 2236 01f0 FFF7FEFF 		bl	VD1943_WaitState
 2237              	.LVL180:
 376:Lib/Camera_Middleware/sensors/vd1943/vd1943.c ****     return ret;
 2238              		.loc 1 376 3 is_stmt 1 view .LVU620
 376:Lib/Camera_Middleware/sensors/vd1943/vd1943.c ****     return ret;
 2239              		.loc 1 376 3 is_stmt 0 view .LVU621
 2240              	.LBE73:
 2241              	.LBE72:
ARM GAS  C:\Users\DJESSOU\AppData\Local\Temp\cc3eovRL.s 			page 76


 739:Lib/Camera_Middleware/sensors/vd1943/vd1943.c ****     return ret;
 2242              		.loc 1 739 3 is_stmt 1 view .LVU622
 739:Lib/Camera_Middleware/sensors/vd1943/vd1943.c ****     return ret;
 2243              		.loc 1 739 6 is_stmt 0 view .LVU623
 2244 01f4 0546     		mov	r5, r0
 2245 01f6 0028     		cmp	r0, #0
 2246 01f8 7FF42EAF 		bne	.L120
 742:Lib/Camera_Middleware/sensors/vd1943/vd1943.c ****     ret = VD1943_ApplyCertificate(ctx);
 2247              		.loc 1 742 3 is_stmt 1 view .LVU624
 742:Lib/Camera_Middleware/sensors/vd1943/vd1943.c ****     ret = VD1943_ApplyCertificate(ctx);
 2248              		.loc 1 742 6 is_stmt 0 view .LVU625
 2249 01fc 94F83130 		ldrb	r3, [r4, #49]	@ zero_extendqisi2
 2250 0200 002B     		cmp	r3, #0
 2251 0202 40F0C780 		bne	.L149
 743:Lib/Camera_Middleware/sensors/vd1943/vd1943.c ****     if (ret)
 2252              		.loc 1 743 5 is_stmt 1 view .LVU626
 2253              	.LVL181:
 2254              	.LBB74:
 2255              	.LBI74:
 382:Lib/Camera_Middleware/sensors/vd1943/vd1943.c **** {
 2256              		.loc 1 382 12 view .LVU627
 2257              	.LBB75:
 384:Lib/Camera_Middleware/sensors/vd1943/vd1943.c ****   int ret;
 2258              		.loc 1 384 3 view .LVU628
 385:Lib/Camera_Middleware/sensors/vd1943/vd1943.c **** 
 2259              		.loc 1 385 3 view .LVU629
 387:Lib/Camera_Middleware/sensors/vd1943/vd1943.c ****       ret = ctx->write_array(ctx, VD1943_REG_CERTIFICATE_AREA_START_ADDR, (uint8_t *)fw_patch_13_mo
 2260              		.loc 1 387 3 view .LVU630
 387:Lib/Camera_Middleware/sensors/vd1943/vd1943.c ****       ret = ctx->write_array(ctx, VD1943_REG_CERTIFICATE_AREA_START_ADDR, (uint8_t *)fw_patch_13_mo
 2261              		.loc 1 387 6 is_stmt 0 view .LVU631
 2262 0206 94F83030 		ldrb	r3, [r4, #48]	@ zero_extendqisi2
 388:Lib/Camera_Middleware/sensors/vd1943/vd1943.c ****                              sizeof(fw_patch_13_mono_cert));
 2263              		.loc 1 388 16 view .LVU632
 2264 020a E569     		ldr	r5, [r4, #28]
 387:Lib/Camera_Middleware/sensors/vd1943/vd1943.c ****       ret = ctx->write_array(ctx, VD1943_REG_CERTIFICATE_AREA_START_ADDR, (uint8_t *)fw_patch_13_mo
 2265              		.loc 1 387 6 view .LVU633
 2266 020c 002B     		cmp	r3, #0
 2267 020e 3CD0     		beq	.L150
 388:Lib/Camera_Middleware/sensors/vd1943/vd1943.c ****                              sizeof(fw_patch_13_mono_cert));
 2268              		.loc 1 388 7 is_stmt 1 view .LVU634
 388:Lib/Camera_Middleware/sensors/vd1943/vd1943.c ****                              sizeof(fw_patch_13_mono_cert));
 2269              		.loc 1 388 13 is_stmt 0 view .LVU635
 2270 0210 40F2FF13 		movw	r3, #511
 2271 0214 3A4A     		ldr	r2, .L222+108
 2272              	.L212:
 391:Lib/Camera_Middleware/sensors/vd1943/vd1943.c ****                              sizeof(fw_patch_13_rgbnir_cert));
 2273              		.loc 1 391 13 view .LVU636
 2274 0216 41F6A821 		movw	r1, #6824
 2275 021a 2046     		mov	r0, r4
 2276              	.LVL182:
 391:Lib/Camera_Middleware/sensors/vd1943/vd1943.c ****                              sizeof(fw_patch_13_rgbnir_cert));
 2277              		.loc 1 391 13 view .LVU637
 2278 021c A847     		blx	r5
 2279              	.LVL183:
 2280 021e 0546     		mov	r5, r0
 2281              	.LVL184:
 394:Lib/Camera_Middleware/sensors/vd1943/vd1943.c **** 
ARM GAS  C:\Users\DJESSOU\AppData\Local\Temp\cc3eovRL.s 			page 77


 2282              		.loc 1 394 3 is_stmt 1 view .LVU638
 394:Lib/Camera_Middleware/sensors/vd1943/vd1943.c **** 
 2283              		.loc 1 394 3 view .LVU639
 2284 0220 0028     		cmp	r0, #0
 2285 0222 77D0     		beq	.L152
 394:Lib/Camera_Middleware/sensors/vd1943/vd1943.c **** 
 2286              		.loc 1 394 3 discriminator 1 view .LVU640
 394:Lib/Camera_Middleware/sensors/vd1943/vd1943.c **** 
 2287              		.loc 1 394 3 discriminator 1 view .LVU641
 2288 0224 4FF4C573 		mov	r3, #394
 2289 0228 364A     		ldr	r2, .L222+112
 2290 022a 0290     		str	r0, [sp, #8]
 2291 022c 0193     		str	r3, [sp, #4]
 2292 022e 82E7     		b	.L217
 2293              	.LVL185:
 2294              	.L142:
 394:Lib/Camera_Middleware/sensors/vd1943/vd1943.c **** 
 2295              		.loc 1 394 3 is_stmt 0 discriminator 1 view .LVU642
 2296              	.LBE75:
 2297              	.LBE74:
 2298              	.LBB77:
 2299              	.LBB54:
 339:Lib/Camera_Middleware/sensors/vd1943/vd1943.c ****   VD1943_dbg(ctx, 0, "rom revision = 0x%08x\n", reg16);
 2300              		.loc 1 339 3 is_stmt 1 discriminator 1 view .LVU643
 339:Lib/Camera_Middleware/sensors/vd1943/vd1943.c ****   VD1943_dbg(ctx, 0, "rom revision = 0x%08x\n", reg16);
 2301              		.loc 1 339 3 discriminator 1 view .LVU644
 2302 0230 40F25313 		movw	r3, #339
 2303 0234 0290     		str	r0, [sp, #8]
 2304 0236 7CE7     		b	.L216
 2305              	.LVL186:
 2306              	.L199:
 343:Lib/Camera_Middleware/sensors/vd1943/vd1943.c ****     ctx->ctx.is_fastboot = 1;
 2307              		.loc 1 343 10 view .LVU645
 343:Lib/Camera_Middleware/sensors/vd1943/vd1943.c ****     ctx->ctx.is_fastboot = 1;
 2308              		.loc 1 343 13 is_stmt 0 view .LVU646
 2309 0238 B3F5A86F 		cmp	r3, #1344
 2310 023c 0ED1     		bne	.L146
 344:Lib/Camera_Middleware/sensors/vd1943/vd1943.c ****   } else {
 2311              		.loc 1 344 5 is_stmt 1 view .LVU647
 344:Lib/Camera_Middleware/sensors/vd1943/vd1943.c ****   } else {
 2312              		.loc 1 344 26 is_stmt 0 view .LVU648
 2313 023e 0123     		movs	r3, #1
 351:Lib/Camera_Middleware/sensors/vd1943/vd1943.c ****     VD1943_TraceError(ctx, ret);
 2314              		.loc 1 351 11 view .LVU649
 2315 0240 0E21     		movs	r1, #14
 344:Lib/Camera_Middleware/sensors/vd1943/vd1943.c ****   } else {
 2316              		.loc 1 344 26 view .LVU650
 2317 0242 84F83130 		strb	r3, [r4, #49]
 350:Lib/Camera_Middleware/sensors/vd1943/vd1943.c ****     ret = ctx->read16(ctx, VD1943_REG_CFA_SELECTION, &reg16);
 2318              		.loc 1 350 3 is_stmt 1 view .LVU651
 351:Lib/Camera_Middleware/sensors/vd1943/vd1943.c ****     VD1943_TraceError(ctx, ret);
 2319              		.loc 1 351 5 view .LVU652
 351:Lib/Camera_Middleware/sensors/vd1943/vd1943.c ****     VD1943_TraceError(ctx, ret);
 2320              		.loc 1 351 11 is_stmt 0 view .LVU653
 2321 0246 2046     		mov	r0, r4
 2322 0248 A368     		ldr	r3, [r4, #8]
 2323 024a 0DF11202 		add	r2, sp, #18
ARM GAS  C:\Users\DJESSOU\AppData\Local\Temp\cc3eovRL.s 			page 78


 2324 024e 9847     		blx	r3
 2325              	.LVL187:
 352:Lib/Camera_Middleware/sensors/vd1943/vd1943.c ****     VD1943_dbg(ctx, 0, "optical revision = 0x%04x\n", reg16);
 2326              		.loc 1 352 5 is_stmt 1 view .LVU654
 352:Lib/Camera_Middleware/sensors/vd1943/vd1943.c ****     VD1943_dbg(ctx, 0, "optical revision = 0x%04x\n", reg16);
 2327              		.loc 1 352 5 view .LVU655
 2328 0250 0546     		mov	r5, r0
 2329 0252 40B1     		cbz	r0, .L200
 352:Lib/Camera_Middleware/sensors/vd1943/vd1943.c ****     VD1943_dbg(ctx, 0, "optical revision = 0x%04x\n", reg16);
 2330              		.loc 1 352 5 discriminator 1 view .LVU656
 352:Lib/Camera_Middleware/sensors/vd1943/vd1943.c ****     VD1943_dbg(ctx, 0, "optical revision = 0x%04x\n", reg16);
 2331              		.loc 1 352 5 discriminator 1 view .LVU657
 2332 0254 4FF4B073 		mov	r3, #352
 2333 0258 0290     		str	r0, [sp, #8]
 2334 025a 6AE7     		b	.L216
 2335              	.LVL188:
 2336              	.L146:
 346:Lib/Camera_Middleware/sensors/vd1943/vd1943.c ****     return -1;
 2337              		.loc 1 346 5 view .LVU658
 346:Lib/Camera_Middleware/sensors/vd1943/vd1943.c ****     return -1;
 2338              		.loc 1 346 5 view .LVU659
 2339 025c 0093     		str	r3, [sp]
 2340 025e 2A4A     		ldr	r2, .L222+116
 2341 0260 4FF4AD73 		mov	r3, #346
 2342 0264 95E7     		b	.L208
 2343              	.LVL189:
 2344              	.L200:
 352:Lib/Camera_Middleware/sensors/vd1943/vd1943.c ****     VD1943_dbg(ctx, 0, "optical revision = 0x%04x\n", reg16);
 2345              		.loc 1 352 5 discriminator 3 view .LVU660
 352:Lib/Camera_Middleware/sensors/vd1943/vd1943.c ****     VD1943_dbg(ctx, 0, "optical revision = 0x%04x\n", reg16);
 2346              		.loc 1 352 5 discriminator 3 view .LVU661
 352:Lib/Camera_Middleware/sensors/vd1943/vd1943.c ****     VD1943_dbg(ctx, 0, "optical revision = 0x%04x\n", reg16);
 2347              		.loc 1 352 5 discriminator 6 view .LVU662
 352:Lib/Camera_Middleware/sensors/vd1943/vd1943.c ****     VD1943_dbg(ctx, 0, "optical revision = 0x%04x\n", reg16);
 2348              		.loc 1 352 5 discriminator 8 view .LVU663
 353:Lib/Camera_Middleware/sensors/vd1943/vd1943.c ****     ctx->ctx.is_mono = (reg16 == VD1943_OPTICAL_MONO);
 2349              		.loc 1 353 5 view .LVU664
 353:Lib/Camera_Middleware/sensors/vd1943/vd1943.c ****     ctx->ctx.is_mono = (reg16 == VD1943_OPTICAL_MONO);
 2350              		.loc 1 353 5 view .LVU665
 2351 0266 BDF81230 		ldrh	r3, [sp, #18]
 2352 026a 0321     		movs	r1, #3
 2353 026c 0193     		str	r3, [sp, #4]
 2354 026e 40F26113 		movw	r3, #353
 2355 0272 264A     		ldr	r2, .L222+120
 2356 0274 0093     		str	r3, [sp]
 2357 0276 0346     		mov	r3, r0
 2358 0278 2046     		mov	r0, r4
 2359              	.LVL190:
 353:Lib/Camera_Middleware/sensors/vd1943/vd1943.c ****     ctx->ctx.is_mono = (reg16 == VD1943_OPTICAL_MONO);
 2360              		.loc 1 353 5 is_stmt 0 view .LVU666
 2361 027a FFF7FEFF 		bl	VD1943_log_impl
 2362              	.LVL191:
 353:Lib/Camera_Middleware/sensors/vd1943/vd1943.c ****     ctx->ctx.is_mono = (reg16 == VD1943_OPTICAL_MONO);
 2363              		.loc 1 353 5 is_stmt 1 discriminator 1 view .LVU667
 354:Lib/Camera_Middleware/sensors/vd1943/vd1943.c ****   } else {
 2364              		.loc 1 354 5 view .LVU668
 354:Lib/Camera_Middleware/sensors/vd1943/vd1943.c ****   } else {
ARM GAS  C:\Users\DJESSOU\AppData\Local\Temp\cc3eovRL.s 			page 79


 2365              		.loc 1 354 31 is_stmt 0 view .LVU669
 2366 027e BDF81250 		ldrh	r5, [sp, #18]
 2367              	.LVL192:
 354:Lib/Camera_Middleware/sensors/vd1943/vd1943.c ****   } else {
 2368              		.loc 1 354 31 view .LVU670
 2369 0282 6B1E     		subs	r3, r5, #1
 2370 0284 5D42     		rsbs	r5, r3, #0
 2371 0286 5D41     		adcs	r5, r5, r3
 2372              	.LVL193:
 354:Lib/Camera_Middleware/sensors/vd1943/vd1943.c ****   } else {
 2373              		.loc 1 354 31 view .LVU671
 2374              	.LBE54:
 2375              	.LBE77:
 735:Lib/Camera_Middleware/sensors/vd1943/vd1943.c ****     return ret;
 2376              		.loc 1 735 3 is_stmt 1 view .LVU672
 2377 0288 A4E7     		b	.L145
 2378              	.LVL194:
 2379              	.L150:
 2380              	.LBB78:
 2381              	.LBB76:
 391:Lib/Camera_Middleware/sensors/vd1943/vd1943.c ****                              sizeof(fw_patch_13_rgbnir_cert));
 2382              		.loc 1 391 7 view .LVU673
 391:Lib/Camera_Middleware/sensors/vd1943/vd1943.c ****                              sizeof(fw_patch_13_rgbnir_cert));
 2383              		.loc 1 391 13 is_stmt 0 view .LVU674
 2384 028a 40F2F513 		movw	r3, #501
 2385 028e 204A     		ldr	r2, .L222+124
 2386 0290 C1E7     		b	.L212
 2387              	.L223:
 2388 0292 00BF     		.align	2
 2389              	.L222:
 2390 0294 80D54302 		.word	38000000
 2391 0298 00000000 		.word	.LC9
 2392 029c 804D19F1 		.word	-250000000
 2393 02a0 807C814A 		.word	1250000000
 2394 02a4 32000000 		.word	.LC10
 2395 02a8 60000000 		.word	.LC11
 2396 02ac 89000000 		.word	.LC12
 2397 02b0 F003E018 		.word	417334256
 2398 02b4 033C0067 		.word	1728068611
 2399 02b8 00000000 		.word	VD1943_SetDigitalGain_RGBNIR
 2400 02bc 00000000 		.word	VD1943_SetExpoSplit_GS
 2401 02c0 00000000 		.word	VD1943_GetExpo_GS
 2402 02c4 00000000 		.word	VD1943_SetDigitalGain_IR
 2403 02c8 00000000 		.word	VD1943_SetExpo_GS
 2404 02cc 00000000 		.word	VD1943_SetExpo_RS
 2405 02d0 00000000 		.word	VD1943_GetExpo_RS
 2406 02d4 00000000 		.word	__func__.25
 2407 02d8 00000000 		.word	.LC4
 2408 02dc 00000000 		.word	VD1943_SetDigitalGain_RGB
 2409 02e0 00000000 		.word	VD1943_SetExpo_RS_HDR
 2410 02e4 B1000000 		.word	.LC13
 2411 02e8 00000000 		.word	__func__.33
 2412 02ec 09000000 		.word	.LC2
 2413 02f0 B3000000 		.word	.LC14
 2414 02f4 D0CBC6AC 		.word	-1396257840
 2415 02f8 D7000000 		.word	.LC15
 2416 02fc 05010000 		.word	.LC16
ARM GAS  C:\Users\DJESSOU\AppData\Local\Temp\cc3eovRL.s 			page 80


 2417 0300 00000000 		.word	fw_patch_13_mono_cert
 2418 0304 00000000 		.word	__func__.23
 2419 0308 2D010000 		.word	.LC17
 2420 030c 5F010000 		.word	.LC18
 2421 0310 00000000 		.word	fw_patch_13_rgbnir_cert
 2422              	.LVL195:
 2423              	.L152:
 394:Lib/Camera_Middleware/sensors/vd1943/vd1943.c **** 
 2424              		.loc 1 394 3 is_stmt 1 discriminator 6 view .LVU675
 394:Lib/Camera_Middleware/sensors/vd1943/vd1943.c **** 
 2425              		.loc 1 394 3 discriminator 8 view .LVU676
 396:Lib/Camera_Middleware/sensors/vd1943/vd1943.c ****   if (ret)
 2426              		.loc 1 396 3 view .LVU677
 396:Lib/Camera_Middleware/sensors/vd1943/vd1943.c ****   if (ret)
 2427              		.loc 1 396 9 is_stmt 0 view .LVU678
 2428 0314 0122     		movs	r2, #1
 2429 0316 40F21551 		movw	r1, #1301
 2430 031a 2046     		mov	r0, r4
 2431              	.LVL196:
 396:Lib/Camera_Middleware/sensors/vd1943/vd1943.c ****   if (ret)
 2432              		.loc 1 396 9 view .LVU679
 2433 031c FFF7FEFF 		bl	VD1943_ApplyCmdAndWait
 2434              	.LVL197:
 397:Lib/Camera_Middleware/sensors/vd1943/vd1943.c ****     return ret;
 2435              		.loc 1 397 3 is_stmt 1 view .LVU680
 397:Lib/Camera_Middleware/sensors/vd1943/vd1943.c ****     return ret;
 2436              		.loc 1 397 3 is_stmt 0 view .LVU681
 2437              	.LBE76:
 2438              	.LBE78:
 744:Lib/Camera_Middleware/sensors/vd1943/vd1943.c ****       return ret;
 2439              		.loc 1 744 5 is_stmt 1 view .LVU682
 744:Lib/Camera_Middleware/sensors/vd1943/vd1943.c ****       return ret;
 2440              		.loc 1 744 8 is_stmt 0 view .LVU683
 2441 0320 0546     		mov	r5, r0
 2442 0322 0028     		cmp	r0, #0
 2443 0324 7FF498AE 		bne	.L120
 747:Lib/Camera_Middleware/sensors/vd1943/vd1943.c ****     if (ret)
 2444              		.loc 1 747 5 is_stmt 1 view .LVU684
 2445              	.LVL198:
 2446              	.LBB79:
 2447              	.LBI79:
 403:Lib/Camera_Middleware/sensors/vd1943/vd1943.c **** {
 2448              		.loc 1 403 12 view .LVU685
 2449              	.LBB80:
 405:Lib/Camera_Middleware/sensors/vd1943/vd1943.c ****   uint16_t reg16;
 2450              		.loc 1 405 3 view .LVU686
 406:Lib/Camera_Middleware/sensors/vd1943/vd1943.c ****   int ret;
 2451              		.loc 1 406 3 view .LVU687
 407:Lib/Camera_Middleware/sensors/vd1943/vd1943.c **** 
 2452              		.loc 1 407 3 view .LVU688
 409:Lib/Camera_Middleware/sensors/vd1943/vd1943.c ****       ret = ctx->write_array(ctx, VD1943_REG_FWPATCH_START_ADDR, (uint8_t *)fw_patch_13_mono_array,
 2453              		.loc 1 409 3 view .LVU689
 409:Lib/Camera_Middleware/sensors/vd1943/vd1943.c ****       ret = ctx->write_array(ctx, VD1943_REG_FWPATCH_START_ADDR, (uint8_t *)fw_patch_13_mono_array,
 2454              		.loc 1 409 6 is_stmt 0 view .LVU690
 2455 0328 94F83030 		ldrb	r3, [r4, #48]	@ zero_extendqisi2
 410:Lib/Camera_Middleware/sensors/vd1943/vd1943.c ****                              sizeof(fw_patch_13_mono_array));
 2456              		.loc 1 410 16 view .LVU691
ARM GAS  C:\Users\DJESSOU\AppData\Local\Temp\cc3eovRL.s 			page 81


 2457 032c E569     		ldr	r5, [r4, #28]
 409:Lib/Camera_Middleware/sensors/vd1943/vd1943.c ****       ret = ctx->write_array(ctx, VD1943_REG_FWPATCH_START_ADDR, (uint8_t *)fw_patch_13_mono_array,
 2458              		.loc 1 409 6 view .LVU692
 2459 032e 73B1     		cbz	r3, .L153
 410:Lib/Camera_Middleware/sensors/vd1943/vd1943.c ****                              sizeof(fw_patch_13_mono_array));
 2460              		.loc 1 410 7 is_stmt 1 view .LVU693
 410:Lib/Camera_Middleware/sensors/vd1943/vd1943.c ****                              sizeof(fw_patch_13_mono_array));
 2461              		.loc 1 410 13 is_stmt 0 view .LVU694
 2462 0330 44F28413 		movw	r3, #16772
 2463 0334 954A     		ldr	r2, .L224
 2464              	.L213:
 413:Lib/Camera_Middleware/sensors/vd1943/vd1943.c ****                              sizeof(fw_patch_13_rgbnir_array));
 2465              		.loc 1 413 13 view .LVU695
 2466 0336 4FF40051 		mov	r1, #8192
 2467 033a 2046     		mov	r0, r4
 2468              	.LVL199:
 413:Lib/Camera_Middleware/sensors/vd1943/vd1943.c ****                              sizeof(fw_patch_13_rgbnir_array));
 2469              		.loc 1 413 13 view .LVU696
 2470 033c A847     		blx	r5
 2471              	.LVL200:
 2472 033e 0546     		mov	r5, r0
 2473              	.LVL201:
 416:Lib/Camera_Middleware/sensors/vd1943/vd1943.c **** 
 2474              		.loc 1 416 3 is_stmt 1 view .LVU697
 416:Lib/Camera_Middleware/sensors/vd1943/vd1943.c **** 
 2475              		.loc 1 416 3 view .LVU698
 2476 0340 48B1     		cbz	r0, .L155
 416:Lib/Camera_Middleware/sensors/vd1943/vd1943.c **** 
 2477              		.loc 1 416 3 discriminator 1 view .LVU699
 416:Lib/Camera_Middleware/sensors/vd1943/vd1943.c **** 
 2478              		.loc 1 416 3 discriminator 1 view .LVU700
 2479 0342 4FF4D073 		mov	r3, #416
 2480 0346 0290     		str	r0, [sp, #8]
 2481              	.L221:
 423:Lib/Camera_Middleware/sensors/vd1943/vd1943.c ****   VD1943_notice(ctx, "patch = %d.%d\n", reg16 >> 8, reg16 & 0xff);
 2482              		.loc 1 423 3 is_stmt 0 discriminator 1 view .LVU701
 2483 0348 914A     		ldr	r2, .L224+4
 2484 034a 0193     		str	r3, [sp, #4]
 2485 034c F3E6     		b	.L217
 2486              	.LVL202:
 2487              	.L153:
 413:Lib/Camera_Middleware/sensors/vd1943/vd1943.c ****                              sizeof(fw_patch_13_rgbnir_array));
 2488              		.loc 1 413 7 is_stmt 1 view .LVU702
 413:Lib/Camera_Middleware/sensors/vd1943/vd1943.c ****                              sizeof(fw_patch_13_rgbnir_array));
 2489              		.loc 1 413 13 is_stmt 0 view .LVU703
 2490 034e 43F67463 		movw	r3, #15988
 2491 0352 904A     		ldr	r2, .L224+8
 2492 0354 EFE7     		b	.L213
 2493              	.LVL203:
 2494              	.L155:
 416:Lib/Camera_Middleware/sensors/vd1943/vd1943.c **** 
 2495              		.loc 1 416 3 is_stmt 1 discriminator 6 view .LVU704
 416:Lib/Camera_Middleware/sensors/vd1943/vd1943.c **** 
 2496              		.loc 1 416 3 discriminator 8 view .LVU705
 418:Lib/Camera_Middleware/sensors/vd1943/vd1943.c ****   if (ret)
 2497              		.loc 1 418 3 view .LVU706
 418:Lib/Camera_Middleware/sensors/vd1943/vd1943.c ****   if (ret)
ARM GAS  C:\Users\DJESSOU\AppData\Local\Temp\cc3eovRL.s 			page 82


 2498              		.loc 1 418 9 is_stmt 0 view .LVU707
 2499 0356 0222     		movs	r2, #2
 2500 0358 40F21551 		movw	r1, #1301
 2501 035c 2046     		mov	r0, r4
 2502              	.LVL204:
 418:Lib/Camera_Middleware/sensors/vd1943/vd1943.c ****   if (ret)
 2503              		.loc 1 418 9 view .LVU708
 2504 035e FFF7FEFF 		bl	VD1943_ApplyCmdAndWait
 2505              	.LVL205:
 419:Lib/Camera_Middleware/sensors/vd1943/vd1943.c ****     return ret;
 2506              		.loc 1 419 3 is_stmt 1 view .LVU709
 419:Lib/Camera_Middleware/sensors/vd1943/vd1943.c ****     return ret;
 2507              		.loc 1 419 6 is_stmt 0 view .LVU710
 2508 0362 0546     		mov	r5, r0
 2509 0364 0028     		cmp	r0, #0
 2510 0366 7FF477AE 		bne	.L120
 422:Lib/Camera_Middleware/sensors/vd1943/vd1943.c ****   VD1943_TraceError(ctx, ret);
 2511              		.loc 1 422 3 is_stmt 1 view .LVU711
 422:Lib/Camera_Middleware/sensors/vd1943/vd1943.c ****   VD1943_TraceError(ctx, ret);
 2512              		.loc 1 422 9 is_stmt 0 view .LVU712
 2513 036a 4A21     		movs	r1, #74
 2514 036c 2046     		mov	r0, r4
 2515              	.LVL206:
 422:Lib/Camera_Middleware/sensors/vd1943/vd1943.c ****   VD1943_TraceError(ctx, ret);
 2516              		.loc 1 422 9 view .LVU713
 2517 036e A368     		ldr	r3, [r4, #8]
 2518 0370 05AA     		add	r2, sp, #20
 2519 0372 9847     		blx	r3
 2520              	.LVL207:
 423:Lib/Camera_Middleware/sensors/vd1943/vd1943.c ****   VD1943_notice(ctx, "patch = %d.%d\n", reg16 >> 8, reg16 & 0xff);
 2521              		.loc 1 423 3 is_stmt 1 view .LVU714
 423:Lib/Camera_Middleware/sensors/vd1943/vd1943.c ****   VD1943_notice(ctx, "patch = %d.%d\n", reg16 >> 8, reg16 & 0xff);
 2522              		.loc 1 423 3 view .LVU715
 2523 0374 0546     		mov	r5, r0
 2524 0376 D8B9     		cbnz	r0, .L157
 423:Lib/Camera_Middleware/sensors/vd1943/vd1943.c ****   VD1943_notice(ctx, "patch = %d.%d\n", reg16 >> 8, reg16 & 0xff);
 2525              		.loc 1 423 3 discriminator 3 view .LVU716
 423:Lib/Camera_Middleware/sensors/vd1943/vd1943.c ****   VD1943_notice(ctx, "patch = %d.%d\n", reg16 >> 8, reg16 & 0xff);
 2526              		.loc 1 423 3 discriminator 3 view .LVU717
 423:Lib/Camera_Middleware/sensors/vd1943/vd1943.c ****   VD1943_notice(ctx, "patch = %d.%d\n", reg16 >> 8, reg16 & 0xff);
 2527              		.loc 1 423 3 discriminator 6 view .LVU718
 423:Lib/Camera_Middleware/sensors/vd1943/vd1943.c ****   VD1943_notice(ctx, "patch = %d.%d\n", reg16 >> 8, reg16 & 0xff);
 2528              		.loc 1 423 3 discriminator 8 view .LVU719
 424:Lib/Camera_Middleware/sensors/vd1943/vd1943.c **** 
 2529              		.loc 1 424 3 view .LVU720
 424:Lib/Camera_Middleware/sensors/vd1943/vd1943.c **** 
 2530              		.loc 1 424 3 view .LVU721
 2531 0378 BDF81430 		ldrh	r3, [sp, #20]
 2532 037c 9DF81420 		ldrb	r2, [sp, #20]	@ zero_extendqisi2
 2533 0380 1B0A     		lsrs	r3, r3, #8
 2534 0382 0192     		str	r2, [sp, #4]
 2535 0384 0093     		str	r3, [sp]
 2536 0386 0221     		movs	r1, #2
 2537 0388 4FF4D473 		mov	r3, #424
 2538 038c 2046     		mov	r0, r4
 2539              	.LVL208:
 424:Lib/Camera_Middleware/sensors/vd1943/vd1943.c **** 
ARM GAS  C:\Users\DJESSOU\AppData\Local\Temp\cc3eovRL.s 			page 83


 2540              		.loc 1 424 3 is_stmt 0 view .LVU722
 2541 038e 824A     		ldr	r2, .L224+12
 2542 0390 FFF7FEFF 		bl	VD1943_log_impl
 2543              	.LVL209:
 424:Lib/Camera_Middleware/sensors/vd1943/vd1943.c **** 
 2544              		.loc 1 424 3 is_stmt 1 discriminator 1 view .LVU723
 426:Lib/Camera_Middleware/sensors/vd1943/vd1943.c **** }
 2545              		.loc 1 426 3 view .LVU724
 426:Lib/Camera_Middleware/sensors/vd1943/vd1943.c **** }
 2546              		.loc 1 426 3 is_stmt 0 view .LVU725
 2547              	.LBE80:
 2548              	.LBE79:
 748:Lib/Camera_Middleware/sensors/vd1943/vd1943.c ****       return ret;
 2549              		.loc 1 748 5 is_stmt 1 view .LVU726
 2550              	.L149:
 752:Lib/Camera_Middleware/sensors/vd1943/vd1943.c ****   if (ret)
 2551              		.loc 1 752 3 view .LVU727
 2552              	.LBB82:
 2553              	.LBI82:
 429:Lib/Camera_Middleware/sensors/vd1943/vd1943.c **** {
 2554              		.loc 1 429 12 view .LVU728
 2555              	.LBB83:
 431:Lib/Camera_Middleware/sensors/vd1943/vd1943.c ****   int ret;
 2556              		.loc 1 431 3 view .LVU729
 432:Lib/Camera_Middleware/sensors/vd1943/vd1943.c **** 
 2557              		.loc 1 432 3 view .LVU730
 435:Lib/Camera_Middleware/sensors/vd1943/vd1943.c ****   VD1943_TraceError(ctx, ret);
 2558              		.loc 1 435 3 view .LVU731
 435:Lib/Camera_Middleware/sensors/vd1943/vd1943.c ****   VD1943_TraceError(ctx, ret);
 2559              		.loc 1 435 9 is_stmt 0 view .LVU732
 2560 0394 40F23471 		movw	r1, #1844
 2561 0398 2046     		mov	r0, r4
 2562 039a A369     		ldr	r3, [r4, #24]
 2563 039c A26B     		ldr	r2, [r4, #56]
 2564 039e 9847     		blx	r3
 2565              	.LVL210:
 436:Lib/Camera_Middleware/sensors/vd1943/vd1943.c **** 
 2566              		.loc 1 436 3 is_stmt 1 view .LVU733
 436:Lib/Camera_Middleware/sensors/vd1943/vd1943.c **** 
 2567              		.loc 1 436 3 view .LVU734
 2568 03a0 0546     		mov	r5, r0
 2569 03a2 48B1     		cbz	r0, .L158
 436:Lib/Camera_Middleware/sensors/vd1943/vd1943.c **** 
 2570              		.loc 1 436 3 discriminator 1 view .LVU735
 436:Lib/Camera_Middleware/sensors/vd1943/vd1943.c **** 
 2571              		.loc 1 436 3 discriminator 1 view .LVU736
 2572 03a4 4FF4DA73 		mov	r3, #436
 2573 03a8 7C4A     		ldr	r2, .L224+16
 2574 03aa 0290     		str	r0, [sp, #8]
 2575 03ac 0193     		str	r3, [sp, #4]
 2576 03ae C2E6     		b	.L217
 2577              	.LVL211:
 2578              	.L157:
 436:Lib/Camera_Middleware/sensors/vd1943/vd1943.c **** 
 2579              		.loc 1 436 3 is_stmt 0 discriminator 1 view .LVU737
 2580              	.LBE83:
 2581              	.LBE82:
ARM GAS  C:\Users\DJESSOU\AppData\Local\Temp\cc3eovRL.s 			page 84


 2582              	.LBB85:
 2583              	.LBB81:
 423:Lib/Camera_Middleware/sensors/vd1943/vd1943.c ****   VD1943_notice(ctx, "patch = %d.%d\n", reg16 >> 8, reg16 & 0xff);
 2584              		.loc 1 423 3 is_stmt 1 discriminator 1 view .LVU738
 423:Lib/Camera_Middleware/sensors/vd1943/vd1943.c ****   VD1943_notice(ctx, "patch = %d.%d\n", reg16 >> 8, reg16 & 0xff);
 2585              		.loc 1 423 3 discriminator 1 view .LVU739
 2586 03b0 40F2A713 		movw	r3, #423
 2587 03b4 0290     		str	r0, [sp, #8]
 2588 03b6 C7E7     		b	.L221
 2589              	.LVL212:
 2590              	.L158:
 423:Lib/Camera_Middleware/sensors/vd1943/vd1943.c ****   VD1943_notice(ctx, "patch = %d.%d\n", reg16 >> 8, reg16 & 0xff);
 2591              		.loc 1 423 3 is_stmt 0 discriminator 1 view .LVU740
 2592              	.LBE81:
 2593              	.LBE85:
 2594              	.LBB86:
 2595              	.LBB84:
 436:Lib/Camera_Middleware/sensors/vd1943/vd1943.c **** 
 2596              		.loc 1 436 3 is_stmt 1 discriminator 6 view .LVU741
 436:Lib/Camera_Middleware/sensors/vd1943/vd1943.c **** 
 2597              		.loc 1 436 3 discriminator 8 view .LVU742
 438:Lib/Camera_Middleware/sensors/vd1943/vd1943.c ****   if (ret)
 2598              		.loc 1 438 3 view .LVU743
 438:Lib/Camera_Middleware/sensors/vd1943/vd1943.c ****   if (ret)
 2599              		.loc 1 438 9 is_stmt 0 view .LVU744
 2600 03b8 1022     		movs	r2, #16
 2601 03ba 40F21551 		movw	r1, #1301
 2602 03be 2046     		mov	r0, r4
 2603              	.LVL213:
 438:Lib/Camera_Middleware/sensors/vd1943/vd1943.c ****   if (ret)
 2604              		.loc 1 438 9 view .LVU745
 2605 03c0 FFF7FEFF 		bl	VD1943_ApplyCmdAndWait
 2606              	.LVL214:
 439:Lib/Camera_Middleware/sensors/vd1943/vd1943.c ****     return ret;
 2607              		.loc 1 439 3 is_stmt 1 view .LVU746
 439:Lib/Camera_Middleware/sensors/vd1943/vd1943.c ****     return ret;
 2608              		.loc 1 439 6 is_stmt 0 view .LVU747
 2609 03c4 0546     		mov	r5, r0
 2610 03c6 0028     		cmp	r0, #0
 2611 03c8 7FF446AE 		bne	.L120
 442:Lib/Camera_Middleware/sensors/vd1943/vd1943.c ****   if (ret)
 2612              		.loc 1 442 3 is_stmt 1 view .LVU748
 442:Lib/Camera_Middleware/sensors/vd1943/vd1943.c ****   if (ret)
 2613              		.loc 1 442 9 is_stmt 0 view .LVU749
 2614 03cc 0321     		movs	r1, #3
 2615 03ce 2046     		mov	r0, r4
 2616              	.LVL215:
 442:Lib/Camera_Middleware/sensors/vd1943/vd1943.c ****   if (ret)
 2617              		.loc 1 442 9 view .LVU750
 2618 03d0 FFF7FEFF 		bl	VD1943_WaitState
 2619              	.LVL216:
 443:Lib/Camera_Middleware/sensors/vd1943/vd1943.c ****     return ret;
 2620              		.loc 1 443 3 is_stmt 1 view .LVU751
 443:Lib/Camera_Middleware/sensors/vd1943/vd1943.c ****     return ret;
 2621              		.loc 1 443 3 is_stmt 0 view .LVU752
 2622              	.LBE84:
 2623              	.LBE86:
ARM GAS  C:\Users\DJESSOU\AppData\Local\Temp\cc3eovRL.s 			page 85


 753:Lib/Camera_Middleware/sensors/vd1943/vd1943.c ****     return ret;
 2624              		.loc 1 753 3 is_stmt 1 view .LVU753
 753:Lib/Camera_Middleware/sensors/vd1943/vd1943.c ****     return ret;
 2625              		.loc 1 753 6 is_stmt 0 view .LVU754
 2626 03d4 0546     		mov	r5, r0
 2627 03d6 0028     		cmp	r0, #0
 2628 03d8 7FF43EAE 		bne	.L120
 756:Lib/Camera_Middleware/sensors/vd1943/vd1943.c ****     ret = VD1943_ApplyVTPatch(ctx);
 2629              		.loc 1 756 3 is_stmt 1 view .LVU755
 756:Lib/Camera_Middleware/sensors/vd1943/vd1943.c ****     ret = VD1943_ApplyVTPatch(ctx);
 2630              		.loc 1 756 6 is_stmt 0 view .LVU756
 2631 03dc 94F83130 		ldrb	r3, [r4, #49]	@ zero_extendqisi2
 2632 03e0 002B     		cmp	r3, #0
 2633 03e2 40F08880 		bne	.L159
 757:Lib/Camera_Middleware/sensors/vd1943/vd1943.c ****     if (ret)
 2634              		.loc 1 757 5 is_stmt 1 view .LVU757
 2635              	.LVL217:
 2636              	.LBB87:
 2637              	.LBI87:
 449:Lib/Camera_Middleware/sensors/vd1943/vd1943.c **** {
 2638              		.loc 1 449 12 view .LVU758
 2639              	.LBB88:
 451:Lib/Camera_Middleware/sensors/vd1943/vd1943.c **** 
 2640              		.loc 1 451 3 view .LVU759
 453:Lib/Camera_Middleware/sensors/vd1943/vd1943.c ****   if (ret)
 2641              		.loc 1 453 3 view .LVU760
 453:Lib/Camera_Middleware/sensors/vd1943/vd1943.c ****   if (ret)
 2642              		.loc 1 453 9 is_stmt 0 view .LVU761
 2643 03e6 0322     		movs	r2, #3
 2644 03e8 40F21651 		movw	r1, #1302
 2645 03ec 2046     		mov	r0, r4
 2646              	.LVL218:
 453:Lib/Camera_Middleware/sensors/vd1943/vd1943.c ****   if (ret)
 2647              		.loc 1 453 9 view .LVU762
 2648 03ee FFF7FEFF 		bl	VD1943_ApplyCmdAndWait
 2649              	.LVL219:
 454:Lib/Camera_Middleware/sensors/vd1943/vd1943.c ****     return ret;
 2650              		.loc 1 454 3 is_stmt 1 view .LVU763
 454:Lib/Camera_Middleware/sensors/vd1943/vd1943.c ****     return ret;
 2651              		.loc 1 454 6 is_stmt 0 view .LVU764
 2652 03f2 0028     		cmp	r0, #0
 2653 03f4 7DD1     		bne	.L191
 457:Lib/Camera_Middleware/sensors/vd1943/vd1943.c ****   VD1943_TraceError(ctx, ret);
 2654              		.loc 1 457 3 is_stmt 1 view .LVU765
 457:Lib/Camera_Middleware/sensors/vd1943/vd1943.c ****   VD1943_TraceError(ctx, ret);
 2655              		.loc 1 457 9 is_stmt 0 view .LVU766
 2656 03f6 E669     		ldr	r6, [r4, #28]
 2657 03f8 4FF41873 		mov	r3, #608
 2658 03fc 45F6C031 		movw	r1, #23488
 2659 0400 2046     		mov	r0, r4
 2660              	.LVL220:
 457:Lib/Camera_Middleware/sensors/vd1943/vd1943.c ****   VD1943_TraceError(ctx, ret);
 2661              		.loc 1 457 9 view .LVU767
 2662 0402 674A     		ldr	r2, .L224+20
 2663 0404 B047     		blx	r6
 2664              	.LVL221:
 458:Lib/Camera_Middleware/sensors/vd1943/vd1943.c **** 
ARM GAS  C:\Users\DJESSOU\AppData\Local\Temp\cc3eovRL.s 			page 86


 2665              		.loc 1 458 3 is_stmt 1 view .LVU768
 458:Lib/Camera_Middleware/sensors/vd1943/vd1943.c **** 
 2666              		.loc 1 458 3 view .LVU769
 2667 0406 0646     		mov	r6, r0
 2668 0408 78B1     		cbz	r0, .L160
 458:Lib/Camera_Middleware/sensors/vd1943/vd1943.c **** 
 2669              		.loc 1 458 3 discriminator 1 view .LVU770
 458:Lib/Camera_Middleware/sensors/vd1943/vd1943.c **** 
 2670              		.loc 1 458 3 discriminator 1 view .LVU771
 2671 040a 4FF4E573 		mov	r3, #458
 2672 040e 0290     		str	r0, [sp, #8]
 2673              	.L218:
 473:Lib/Camera_Middleware/sensors/vd1943/vd1943.c **** 
 2674              		.loc 1 473 3 is_stmt 0 discriminator 1 view .LVU772
 2675 0410 644A     		ldr	r2, .L224+24
 2676 0412 0021     		movs	r1, #0
 2677 0414 2046     		mov	r0, r4
 2678              	.LVL222:
 473:Lib/Camera_Middleware/sensors/vd1943/vd1943.c **** 
 2679              		.loc 1 473 3 discriminator 1 view .LVU773
 2680 0416 0193     		str	r3, [sp, #4]
 2681 0418 0092     		str	r2, [sp]
 2682 041a 634A     		ldr	r2, .L224+28
 2683 041c FFF7FEFF 		bl	VD1943_log_impl
 2684              	.LVL223:
 473:Lib/Camera_Middleware/sensors/vd1943/vd1943.c **** 
 2685              		.loc 1 473 3 is_stmt 1 discriminator 3 view .LVU774
 473:Lib/Camera_Middleware/sensors/vd1943/vd1943.c **** 
 2686              		.loc 1 473 3 discriminator 3 view .LVU775
 473:Lib/Camera_Middleware/sensors/vd1943/vd1943.c **** 
 2687              		.loc 1 473 3 discriminator 4 view .LVU776
 2688 0420 2046     		mov	r0, r4
 2689 0422 FFF7FEFF 		bl	display_error
 2690              	.LVL224:
 473:Lib/Camera_Middleware/sensors/vd1943/vd1943.c **** 
 2691              		.loc 1 473 3 discriminator 6 view .LVU777
 473:Lib/Camera_Middleware/sensors/vd1943/vd1943.c **** 
 2692              		.loc 1 473 3 discriminator 7 view .LVU778
 473:Lib/Camera_Middleware/sensors/vd1943/vd1943.c **** 
 2693              		.loc 1 473 3 is_stmt 0 discriminator 7 view .LVU779
 2694              	.LBE88:
 2695              	.LBE87:
 758:Lib/Camera_Middleware/sensors/vd1943/vd1943.c ****       return ret;
 2696              		.loc 1 758 5 is_stmt 1 view .LVU780
 759:Lib/Camera_Middleware/sensors/vd1943/vd1943.c ****   }
 2697              		.loc 1 759 14 is_stmt 0 view .LVU781
 2698 0426 3546     		mov	r5, r6
 2699 0428 16E6     		b	.L120
 2700              	.LVL225:
 2701              	.L160:
 2702              	.LBB91:
 2703              	.LBB89:
 458:Lib/Camera_Middleware/sensors/vd1943/vd1943.c **** 
 2704              		.loc 1 458 3 is_stmt 1 discriminator 6 view .LVU782
 458:Lib/Camera_Middleware/sensors/vd1943/vd1943.c **** 
 2705              		.loc 1 458 3 discriminator 8 view .LVU783
 460:Lib/Camera_Middleware/sensors/vd1943/vd1943.c ****   VD1943_TraceError(ctx, ret);
ARM GAS  C:\Users\DJESSOU\AppData\Local\Temp\cc3eovRL.s 			page 87


 2706              		.loc 1 460 3 view .LVU784
 460:Lib/Camera_Middleware/sensors/vd1943/vd1943.c ****   VD1943_TraceError(ctx, ret);
 2707              		.loc 1 460 9 is_stmt 0 view .LVU785
 2708 042a E669     		ldr	r6, [r4, #28]
 2709 042c 4FF49673 		mov	r3, #300
 2710 0430 45F64061 		movw	r1, #24128
 2711 0434 2046     		mov	r0, r4
 2712              	.LVL226:
 460:Lib/Camera_Middleware/sensors/vd1943/vd1943.c ****   VD1943_TraceError(ctx, ret);
 2713              		.loc 1 460 9 view .LVU786
 2714 0436 5D4A     		ldr	r2, .L224+32
 2715 0438 B047     		blx	r6
 2716              	.LVL227:
 461:Lib/Camera_Middleware/sensors/vd1943/vd1943.c **** 
 2717              		.loc 1 461 3 is_stmt 1 view .LVU787
 461:Lib/Camera_Middleware/sensors/vd1943/vd1943.c **** 
 2718              		.loc 1 461 3 view .LVU788
 2719 043a 0646     		mov	r6, r0
 2720 043c 60B9     		cbnz	r0, .L161
 461:Lib/Camera_Middleware/sensors/vd1943/vd1943.c **** 
 2721              		.loc 1 461 3 discriminator 3 view .LVU789
 461:Lib/Camera_Middleware/sensors/vd1943/vd1943.c **** 
 2722              		.loc 1 461 3 discriminator 3 view .LVU790
 461:Lib/Camera_Middleware/sensors/vd1943/vd1943.c **** 
 2723              		.loc 1 461 3 discriminator 6 view .LVU791
 461:Lib/Camera_Middleware/sensors/vd1943/vd1943.c **** 
 2724              		.loc 1 461 3 discriminator 8 view .LVU792
 463:Lib/Camera_Middleware/sensors/vd1943/vd1943.c ****   VD1943_TraceError(ctx, ret);
 2725              		.loc 1 463 3 view .LVU793
 463:Lib/Camera_Middleware/sensors/vd1943/vd1943.c ****   VD1943_TraceError(ctx, ret);
 2726              		.loc 1 463 9 is_stmt 0 view .LVU794
 2727 043e E669     		ldr	r6, [r4, #28]
 2728 0440 D823     		movs	r3, #216
 2729 0442 4FF4BF41 		mov	r1, #24448
 2730 0446 2046     		mov	r0, r4
 2731              	.LVL228:
 463:Lib/Camera_Middleware/sensors/vd1943/vd1943.c ****   VD1943_TraceError(ctx, ret);
 2732              		.loc 1 463 9 view .LVU795
 2733 0448 594A     		ldr	r2, .L224+36
 2734 044a B047     		blx	r6
 2735              	.LVL229:
 464:Lib/Camera_Middleware/sensors/vd1943/vd1943.c **** 
 2736              		.loc 1 464 3 is_stmt 1 view .LVU796
 464:Lib/Camera_Middleware/sensors/vd1943/vd1943.c **** 
 2737              		.loc 1 464 3 view .LVU797
 2738 044c 0646     		mov	r6, r0
 2739 044e 38B1     		cbz	r0, .L201
 464:Lib/Camera_Middleware/sensors/vd1943/vd1943.c **** 
 2740              		.loc 1 464 3 discriminator 1 view .LVU798
 464:Lib/Camera_Middleware/sensors/vd1943/vd1943.c **** 
 2741              		.loc 1 464 3 discriminator 1 view .LVU799
 2742 0450 4FF4E873 		mov	r3, #464
 2743 0454 0290     		str	r0, [sp, #8]
 2744 0456 DBE7     		b	.L218
 2745              	.L161:
 461:Lib/Camera_Middleware/sensors/vd1943/vd1943.c **** 
 2746              		.loc 1 461 3 discriminator 1 view .LVU800
ARM GAS  C:\Users\DJESSOU\AppData\Local\Temp\cc3eovRL.s 			page 88


 461:Lib/Camera_Middleware/sensors/vd1943/vd1943.c **** 
 2747              		.loc 1 461 3 discriminator 1 view .LVU801
 2748 0458 40F2CD13 		movw	r3, #461
 2749 045c 0290     		str	r0, [sp, #8]
 2750 045e D7E7     		b	.L218
 2751              	.L201:
 464:Lib/Camera_Middleware/sensors/vd1943/vd1943.c **** 
 2752              		.loc 1 464 3 discriminator 3 view .LVU802
 464:Lib/Camera_Middleware/sensors/vd1943/vd1943.c **** 
 2753              		.loc 1 464 3 discriminator 3 view .LVU803
 464:Lib/Camera_Middleware/sensors/vd1943/vd1943.c **** 
 2754              		.loc 1 464 3 discriminator 6 view .LVU804
 464:Lib/Camera_Middleware/sensors/vd1943/vd1943.c **** 
 2755              		.loc 1 464 3 discriminator 8 view .LVU805
 466:Lib/Camera_Middleware/sensors/vd1943/vd1943.c ****   VD1943_TraceError(ctx, ret);
 2756              		.loc 1 466 3 view .LVU806
 466:Lib/Camera_Middleware/sensors/vd1943/vd1943.c ****   VD1943_TraceError(ctx, ret);
 2757              		.loc 1 466 9 is_stmt 0 view .LVU807
 2758 0460 E669     		ldr	r6, [r4, #28]
 2759 0462 A023     		movs	r3, #160
 2760 0464 46F2C001 		movw	r1, #24768
 2761 0468 2046     		mov	r0, r4
 2762              	.LVL230:
 466:Lib/Camera_Middleware/sensors/vd1943/vd1943.c ****   VD1943_TraceError(ctx, ret);
 2763              		.loc 1 466 9 view .LVU808
 2764 046a 524A     		ldr	r2, .L224+40
 2765 046c B047     		blx	r6
 2766              	.LVL231:
 467:Lib/Camera_Middleware/sensors/vd1943/vd1943.c **** 
 2767              		.loc 1 467 3 is_stmt 1 view .LVU809
 467:Lib/Camera_Middleware/sensors/vd1943/vd1943.c **** 
 2768              		.loc 1 467 3 view .LVU810
 2769 046e 0646     		mov	r6, r0
 2770 0470 18B1     		cbz	r0, .L202
 467:Lib/Camera_Middleware/sensors/vd1943/vd1943.c **** 
 2771              		.loc 1 467 3 discriminator 1 view .LVU811
 467:Lib/Camera_Middleware/sensors/vd1943/vd1943.c **** 
 2772              		.loc 1 467 3 discriminator 1 view .LVU812
 2773 0472 40F2D313 		movw	r3, #467
 2774 0476 0290     		str	r0, [sp, #8]
 2775 0478 CAE7     		b	.L218
 2776              	.L202:
 467:Lib/Camera_Middleware/sensors/vd1943/vd1943.c **** 
 2777              		.loc 1 467 3 discriminator 3 view .LVU813
 467:Lib/Camera_Middleware/sensors/vd1943/vd1943.c **** 
 2778              		.loc 1 467 3 discriminator 3 view .LVU814
 467:Lib/Camera_Middleware/sensors/vd1943/vd1943.c **** 
 2779              		.loc 1 467 3 discriminator 6 view .LVU815
 467:Lib/Camera_Middleware/sensors/vd1943/vd1943.c **** 
 2780              		.loc 1 467 3 discriminator 8 view .LVU816
 469:Lib/Camera_Middleware/sensors/vd1943/vd1943.c ****   VD1943_TraceError(ctx, ret);
 2781              		.loc 1 469 3 view .LVU817
 469:Lib/Camera_Middleware/sensors/vd1943/vd1943.c ****   VD1943_TraceError(ctx, ret);
 2782              		.loc 1 469 9 is_stmt 0 view .LVU818
 2783 047a E669     		ldr	r6, [r4, #28]
 2784 047c A423     		movs	r3, #164
 2785 047e 46F26011 		movw	r1, #24928
ARM GAS  C:\Users\DJESSOU\AppData\Local\Temp\cc3eovRL.s 			page 89


 2786 0482 2046     		mov	r0, r4
 2787              	.LVL232:
 469:Lib/Camera_Middleware/sensors/vd1943/vd1943.c ****   VD1943_TraceError(ctx, ret);
 2788              		.loc 1 469 9 view .LVU819
 2789 0484 4C4A     		ldr	r2, .L224+44
 2790 0486 B047     		blx	r6
 2791              	.LVL233:
 470:Lib/Camera_Middleware/sensors/vd1943/vd1943.c **** 
 2792              		.loc 1 470 3 is_stmt 1 view .LVU820
 470:Lib/Camera_Middleware/sensors/vd1943/vd1943.c **** 
 2793              		.loc 1 470 3 view .LVU821
 2794 0488 0646     		mov	r6, r0
 2795 048a 18B1     		cbz	r0, .L203
 470:Lib/Camera_Middleware/sensors/vd1943/vd1943.c **** 
 2796              		.loc 1 470 3 discriminator 1 view .LVU822
 470:Lib/Camera_Middleware/sensors/vd1943/vd1943.c **** 
 2797              		.loc 1 470 3 discriminator 1 view .LVU823
 2798 048c 4FF4EB73 		mov	r3, #470
 2799 0490 0290     		str	r0, [sp, #8]
 2800 0492 BDE7     		b	.L218
 2801              	.L203:
 470:Lib/Camera_Middleware/sensors/vd1943/vd1943.c **** 
 2802              		.loc 1 470 3 discriminator 3 view .LVU824
 470:Lib/Camera_Middleware/sensors/vd1943/vd1943.c **** 
 2803              		.loc 1 470 3 discriminator 3 view .LVU825
 470:Lib/Camera_Middleware/sensors/vd1943/vd1943.c **** 
 2804              		.loc 1 470 3 discriminator 6 view .LVU826
 470:Lib/Camera_Middleware/sensors/vd1943/vd1943.c **** 
 2805              		.loc 1 470 3 discriminator 8 view .LVU827
 472:Lib/Camera_Middleware/sensors/vd1943/vd1943.c ****   VD1943_TraceError(ctx, ret);
 2806              		.loc 1 472 3 view .LVU828
 472:Lib/Camera_Middleware/sensors/vd1943/vd1943.c ****   VD1943_TraceError(ctx, ret);
 2807              		.loc 1 472 9 is_stmt 0 view .LVU829
 2808 0494 E669     		ldr	r6, [r4, #28]
 2809 0496 4FF4C363 		mov	r3, #1560
 2810 049a 46F6C021 		movw	r1, #27328
 2811 049e 2046     		mov	r0, r4
 2812              	.LVL234:
 472:Lib/Camera_Middleware/sensors/vd1943/vd1943.c ****   VD1943_TraceError(ctx, ret);
 2813              		.loc 1 472 9 view .LVU830
 2814 04a0 464A     		ldr	r2, .L224+48
 2815 04a2 B047     		blx	r6
 2816              	.LVL235:
 473:Lib/Camera_Middleware/sensors/vd1943/vd1943.c **** 
 2817              		.loc 1 473 3 is_stmt 1 view .LVU831
 473:Lib/Camera_Middleware/sensors/vd1943/vd1943.c **** 
 2818              		.loc 1 473 3 view .LVU832
 2819 04a4 0646     		mov	r6, r0
 2820 04a6 18B1     		cbz	r0, .L204
 473:Lib/Camera_Middleware/sensors/vd1943/vd1943.c **** 
 2821              		.loc 1 473 3 discriminator 1 view .LVU833
 473:Lib/Camera_Middleware/sensors/vd1943/vd1943.c **** 
 2822              		.loc 1 473 3 discriminator 1 view .LVU834
 2823 04a8 40F2D913 		movw	r3, #473
 2824 04ac 0290     		str	r0, [sp, #8]
 2825 04ae AFE7     		b	.L218
 2826              	.L204:
ARM GAS  C:\Users\DJESSOU\AppData\Local\Temp\cc3eovRL.s 			page 90


 473:Lib/Camera_Middleware/sensors/vd1943/vd1943.c **** 
 2827              		.loc 1 473 3 discriminator 3 view .LVU835
 473:Lib/Camera_Middleware/sensors/vd1943/vd1943.c **** 
 2828              		.loc 1 473 3 discriminator 3 view .LVU836
 473:Lib/Camera_Middleware/sensors/vd1943/vd1943.c **** 
 2829              		.loc 1 473 3 discriminator 6 view .LVU837
 473:Lib/Camera_Middleware/sensors/vd1943/vd1943.c **** 
 2830              		.loc 1 473 3 discriminator 8 view .LVU838
 475:Lib/Camera_Middleware/sensors/vd1943/vd1943.c ****   VD1943_TraceError(ctx, ret);
 2831              		.loc 1 475 3 view .LVU839
 475:Lib/Camera_Middleware/sensors/vd1943/vd1943.c ****   VD1943_TraceError(ctx, ret);
 2832              		.loc 1 475 9 is_stmt 0 view .LVU840
 2833 04b0 E769     		ldr	r7, [r4, #28]
 2834 04b2 4FF41C73 		mov	r3, #624
 2835 04b6 4FF4A041 		mov	r1, #20480
 2836 04ba 2046     		mov	r0, r4
 2837              	.LVL236:
 475:Lib/Camera_Middleware/sensors/vd1943/vd1943.c ****   VD1943_TraceError(ctx, ret);
 2838              		.loc 1 475 9 view .LVU841
 2839 04bc 404A     		ldr	r2, .L224+52
 2840 04be B847     		blx	r7
 2841              	.LVL237:
 476:Lib/Camera_Middleware/sensors/vd1943/vd1943.c **** 
 2842              		.loc 1 476 3 is_stmt 1 view .LVU842
 476:Lib/Camera_Middleware/sensors/vd1943/vd1943.c **** 
 2843              		.loc 1 476 3 view .LVU843
 2844 04c0 0746     		mov	r7, r0
 2845 04c2 78B1     		cbz	r0, .L205
 476:Lib/Camera_Middleware/sensors/vd1943/vd1943.c **** 
 2846              		.loc 1 476 3 discriminator 1 view .LVU844
 476:Lib/Camera_Middleware/sensors/vd1943/vd1943.c **** 
 2847              		.loc 1 476 3 discriminator 1 view .LVU845
 2848 04c4 4FF4EE73 		mov	r3, #476
 2849 04c8 364A     		ldr	r2, .L224+24
 2850 04ca 3146     		mov	r1, r6
 2851 04cc 0290     		str	r0, [sp, #8]
 2852 04ce 0193     		str	r3, [sp, #4]
 2853 04d0 2046     		mov	r0, r4
 2854              	.LVL238:
 476:Lib/Camera_Middleware/sensors/vd1943/vd1943.c **** 
 2855              		.loc 1 476 3 is_stmt 0 discriminator 1 view .LVU846
 2856 04d2 0092     		str	r2, [sp]
 2857 04d4 344A     		ldr	r2, .L224+28
 2858 04d6 FFF7FEFF 		bl	VD1943_log_impl
 2859              	.LVL239:
 476:Lib/Camera_Middleware/sensors/vd1943/vd1943.c **** 
 2860              		.loc 1 476 3 is_stmt 1 discriminator 3 view .LVU847
 476:Lib/Camera_Middleware/sensors/vd1943/vd1943.c **** 
 2861              		.loc 1 476 3 discriminator 3 view .LVU848
 476:Lib/Camera_Middleware/sensors/vd1943/vd1943.c **** 
 2862              		.loc 1 476 3 discriminator 4 view .LVU849
 2863 04da 2046     		mov	r0, r4
 2864 04dc FFF7FEFF 		bl	display_error
 2865              	.LVL240:
 476:Lib/Camera_Middleware/sensors/vd1943/vd1943.c **** 
 2866              		.loc 1 476 3 discriminator 6 view .LVU850
 476:Lib/Camera_Middleware/sensors/vd1943/vd1943.c **** 
ARM GAS  C:\Users\DJESSOU\AppData\Local\Temp\cc3eovRL.s 			page 91


 2867              		.loc 1 476 3 discriminator 7 view .LVU851
 476:Lib/Camera_Middleware/sensors/vd1943/vd1943.c **** 
 2868              		.loc 1 476 3 is_stmt 0 discriminator 7 view .LVU852
 2869              	.LBE89:
 2870              	.LBE91:
 758:Lib/Camera_Middleware/sensors/vd1943/vd1943.c ****       return ret;
 2871              		.loc 1 758 5 is_stmt 1 view .LVU853
 759:Lib/Camera_Middleware/sensors/vd1943/vd1943.c ****   }
 2872              		.loc 1 759 14 is_stmt 0 view .LVU854
 2873 04e0 3D46     		mov	r5, r7
 2874 04e2 B9E5     		b	.L120
 2875              	.LVL241:
 2876              	.L205:
 2877              	.LBB92:
 2878              	.LBB90:
 476:Lib/Camera_Middleware/sensors/vd1943/vd1943.c **** 
 2879              		.loc 1 476 3 is_stmt 1 discriminator 3 view .LVU855
 476:Lib/Camera_Middleware/sensors/vd1943/vd1943.c **** 
 2880              		.loc 1 476 3 discriminator 3 view .LVU856
 476:Lib/Camera_Middleware/sensors/vd1943/vd1943.c **** 
 2881              		.loc 1 476 3 discriminator 6 view .LVU857
 476:Lib/Camera_Middleware/sensors/vd1943/vd1943.c **** 
 2882              		.loc 1 476 3 discriminator 8 view .LVU858
 478:Lib/Camera_Middleware/sensors/vd1943/vd1943.c ****   if (ret)
 2883              		.loc 1 478 3 view .LVU859
 478:Lib/Camera_Middleware/sensors/vd1943/vd1943.c ****   if (ret)
 2884              		.loc 1 478 9 is_stmt 0 view .LVU860
 2885 04e4 0422     		movs	r2, #4
 2886 04e6 40F21651 		movw	r1, #1302
 2887 04ea 2046     		mov	r0, r4
 2888              	.LVL242:
 478:Lib/Camera_Middleware/sensors/vd1943/vd1943.c ****   if (ret)
 2889              		.loc 1 478 9 view .LVU861
 2890 04ec FFF7FEFF 		bl	VD1943_ApplyCmdAndWait
 2891              	.LVL243:
 479:Lib/Camera_Middleware/sensors/vd1943/vd1943.c ****     return ret;
 2892              		.loc 1 479 3 is_stmt 1 view .LVU862
 479:Lib/Camera_Middleware/sensors/vd1943/vd1943.c ****     return ret;
 2893              		.loc 1 479 3 is_stmt 0 view .LVU863
 2894              	.LBE90:
 2895              	.LBE92:
 758:Lib/Camera_Middleware/sensors/vd1943/vd1943.c ****       return ret;
 2896              		.loc 1 758 5 is_stmt 1 view .LVU864
 758:Lib/Camera_Middleware/sensors/vd1943/vd1943.c ****       return ret;
 2897              		.loc 1 758 8 is_stmt 0 view .LVU865
 2898 04f0 08B1     		cbz	r0, .L159
 2899              	.LVL244:
 2900              	.L191:
 759:Lib/Camera_Middleware/sensors/vd1943/vd1943.c ****   }
 2901              		.loc 1 759 14 view .LVU866
 2902 04f2 0546     		mov	r5, r0
 2903              	.LVL245:
 759:Lib/Camera_Middleware/sensors/vd1943/vd1943.c ****   }
 2904              		.loc 1 759 14 view .LVU867
 2905 04f4 B0E5     		b	.L120
 2906              	.LVL246:
 2907              	.L159:
ARM GAS  C:\Users\DJESSOU\AppData\Local\Temp\cc3eovRL.s 			page 92


 762:Lib/Camera_Middleware/sensors/vd1943/vd1943.c ****   if (ret)
 2908              		.loc 1 762 3 is_stmt 1 view .LVU868
 2909              	.LBB93:
 2910              	.LBI55:
 655:Lib/Camera_Middleware/sensors/vd1943/vd1943.c **** {
 2911              		.loc 1 655 12 view .LVU869
 2912              	.LBB67:
 657:Lib/Camera_Middleware/sensors/vd1943/vd1943.c **** 
 2913              		.loc 1 657 3 view .LVU870
 659:Lib/Camera_Middleware/sensors/vd1943/vd1943.c ****     // Monochrom variant, force Bayer None (= Mono)  
 2914              		.loc 1 659 3 view .LVU871
 659:Lib/Camera_Middleware/sensors/vd1943/vd1943.c ****     // Monochrom variant, force Bayer None (= Mono)  
 2915              		.loc 1 659 6 is_stmt 0 view .LVU872
 2916 04f6 94F83030 		ldrb	r3, [r4, #48]	@ zero_extendqisi2
 2917 04fa 6BBB     		cbnz	r3, .L172
 663:Lib/Camera_Middleware/sensors/vd1943/vd1943.c ****   case VD1943_GS_SS1_RGB_8:
 2918              		.loc 1 663 3 is_stmt 1 view .LVU873
 663:Lib/Camera_Middleware/sensors/vd1943/vd1943.c ****   case VD1943_GS_SS1_RGB_8:
 2919              		.loc 1 663 38 is_stmt 0 view .LVU874
 2920 04fc 94F84430 		ldrb	r3, [r4, #68]	@ zero_extendqisi2
 663:Lib/Camera_Middleware/sensors/vd1943/vd1943.c ****   case VD1943_GS_SS1_RGB_8:
 2921              		.loc 1 663 3 view .LVU875
 2922 0500 042B     		cmp	r3, #4
 2923 0502 05D8     		bhi	.L173
 2924 0504 ABB9     		cbnz	r3, .L174
 2925              	.L175:
 696:Lib/Camera_Middleware/sensors/vd1943/vd1943.c ****   }
 2926              		.loc 1 696 5 is_stmt 1 view .LVU876
 2927 0506 4FF42E71 		mov	r1, #696
 2928 050a 2E4B     		ldr	r3, .L224+56
 2929 050c 2E4A     		ldr	r2, .L224+60
 2930 050e 25E6     		b	.L219
 2931              	.L173:
 663:Lib/Camera_Middleware/sensors/vd1943/vd1943.c ****   case VD1943_GS_SS1_RGB_8:
 2932              		.loc 1 663 3 is_stmt 0 view .LVU877
 2933 0510 053B     		subs	r3, r3, #5
 2934 0512 DBB2     		uxtb	r3, r3
 2935 0514 1E2B     		cmp	r3, #30
 2936 0516 F6D8     		bhi	.L175
 2937 0518 0122     		movs	r2, #1
 2938 051a 02FA03F3 		lsl	r3, r2, r3
 2939 051e 43F6F072 		movw	r2, #16368
 2940 0522 1342     		tst	r3, r2
 2941 0524 18D1     		bne	.L172
 2942 0526 294A     		ldr	r2, .L224+64
 2943 0528 1342     		tst	r3, r2
 2944 052a 0AD1     		bne	.L176
 2945 052c 13F0C75F 		tst	r3, #417333248
 2946 0530 E9D0     		beq	.L175
 2947              	.L174:
 672:Lib/Camera_Middleware/sensors/vd1943/vd1943.c ****   case VD1943_GS_SS1_NATIVE_8:
 2948              		.loc 1 672 5 is_stmt 1 view .LVU878
 682:Lib/Camera_Middleware/sensors/vd1943/vd1943.c ****     break;
 2949              		.loc 1 682 5 view .LVU879
 2950              	.LVL247:
 2951              	.LBB61:
 2952              	.LBI61:
ARM GAS  C:\Users\DJESSOU\AppData\Local\Temp\cc3eovRL.s 			page 93


 631:Lib/Camera_Middleware/sensors/vd1943/vd1943.c **** {
 2953              		.loc 1 631 12 view .LVU880
 2954              	.LBB62:
 633:Lib/Camera_Middleware/sensors/vd1943/vd1943.c **** 
 2955              		.loc 1 633 3 view .LVU881
 635:Lib/Camera_Middleware/sensors/vd1943/vd1943.c ****   case VD1943_MIRROR_FLIP_NONE:
 2956              		.loc 1 635 3 view .LVU882
 2957 0532 94F84530 		ldrb	r3, [r4, #69]	@ zero_extendqisi2
 2958 0536 032B     		cmp	r3, #3
 2959 0538 22D8     		bhi	.L183
 2960 053a DFE803F0 		tbb	[pc, r3]
 2961              	.L185:
 2962 053e 19       		.byte	(.L188-.L185)/2
 2963 053f 1B       		.byte	(.L187-.L185)/2
 2964 0540 1D       		.byte	(.L186-.L185)/2
 2965 0541 1F       		.byte	(.L184-.L185)/2
 2966              	.LVL248:
 2967              		.p2align 1
 2968              	.L176:
 635:Lib/Camera_Middleware/sensors/vd1943/vd1943.c ****   case VD1943_MIRROR_FLIP_NONE:
 2969              		.loc 1 635 3 is_stmt 0 view .LVU883
 2970              	.LBE62:
 2971              	.LBE61:
 671:Lib/Camera_Middleware/sensors/vd1943/vd1943.c ****     break;
 2972              		.loc 1 671 5 is_stmt 1 view .LVU884
 2973              	.LBB64:
 2974              	.LBI57:
 607:Lib/Camera_Middleware/sensors/vd1943/vd1943.c **** {
 2975              		.loc 1 607 12 view .LVU885
 2976              	.LBB59:
 609:Lib/Camera_Middleware/sensors/vd1943/vd1943.c **** 
 2977              		.loc 1 609 3 view .LVU886
 611:Lib/Camera_Middleware/sensors/vd1943/vd1943.c ****   case VD1943_MIRROR_FLIP_NONE:
 2978              		.loc 1 611 3 view .LVU887
 2979 0542 94F84530 		ldrb	r3, [r4, #69]	@ zero_extendqisi2
 2980 0546 032B     		cmp	r3, #3
 2981 0548 0DD8     		bhi	.L178
 2982 054a DFE803F0 		tbb	[pc, r3]
 2983              	.L180:
 2984 054e 02       		.byte	(.L179-.L180)/2
 2985 054f 08       		.byte	(.L182-.L180)/2
 2986 0550 0A       		.byte	(.L181-.L180)/2
 2987 0551 02       		.byte	(.L179-.L180)/2
 2988              		.p2align 1
 2989              	.L179:
 613:Lib/Camera_Middleware/sensors/vd1943/vd1943.c ****     break;
 2990              		.loc 1 613 5 view .LVU888
 613:Lib/Camera_Middleware/sensors/vd1943/vd1943.c ****     break;
 2991              		.loc 1 613 16 is_stmt 0 view .LVU889
 2992 0552 0323     		movs	r3, #3
 2993              	.LVL249:
 2994              	.L215:
 616:Lib/Camera_Middleware/sensors/vd1943/vd1943.c ****     break;
 2995              		.loc 1 616 16 view .LVU890
 2996 0554 84F82830 		strb	r3, [r4, #40]
 617:Lib/Camera_Middleware/sensors/vd1943/vd1943.c ****   case VD1943_MIRROR:
 2997              		.loc 1 617 5 is_stmt 1 view .LVU891
ARM GAS  C:\Users\DJESSOU\AppData\Local\Temp\cc3eovRL.s 			page 94


 2998              	.LVL250:
 617:Lib/Camera_Middleware/sensors/vd1943/vd1943.c ****   case VD1943_MIRROR:
 2999              		.loc 1 617 5 is_stmt 0 view .LVU892
 3000              	.LBE59:
 3001              	.LBE64:
 3002              	.LBE67:
 3003              	.LBE93:
 3004              	.LBE97:
 3005              	.LBE104:
1499:Lib/Camera_Middleware/sensors/vd1943/vd1943.c ****     return ret;
 3006              		.loc 1 1499 3 is_stmt 1 view .LVU893
 3007              	.L172:
1502:Lib/Camera_Middleware/sensors/vd1943/vd1943.c **** 
 3008              		.loc 1 1502 3 view .LVU894
1502:Lib/Camera_Middleware/sensors/vd1943/vd1943.c **** 
 3009              		.loc 1 1502 25 is_stmt 0 view .LVU895
 3010 0558 0023     		movs	r3, #0
 3011 055a E362     		str	r3, [r4, #44]
1504:Lib/Camera_Middleware/sensors/vd1943/vd1943.c **** }
 3012              		.loc 1 1504 3 is_stmt 1 view .LVU896
1504:Lib/Camera_Middleware/sensors/vd1943/vd1943.c **** }
 3013              		.loc 1 1504 10 is_stmt 0 view .LVU897
 3014 055c 7CE5     		b	.L120
 3015              	.LVL251:
 3016              	.L182:
 3017              	.LBB105:
 3018              	.LBB98:
 3019              	.LBB94:
 3020              	.LBB68:
 3021              	.LBB65:
 3022              	.LBB60:
 616:Lib/Camera_Middleware/sensors/vd1943/vd1943.c ****     break;
 3023              		.loc 1 616 5 is_stmt 1 view .LVU898
 616:Lib/Camera_Middleware/sensors/vd1943/vd1943.c ****     break;
 3024              		.loc 1 616 16 is_stmt 0 view .LVU899
 3025 055e 0123     		movs	r3, #1
 3026 0560 F8E7     		b	.L215
 3027              	.L181:
 619:Lib/Camera_Middleware/sensors/vd1943/vd1943.c ****     break;
 3028              		.loc 1 619 5 is_stmt 1 view .LVU900
 619:Lib/Camera_Middleware/sensors/vd1943/vd1943.c ****     break;
 3029              		.loc 1 619 16 is_stmt 0 view .LVU901
 3030 0562 0423     		movs	r3, #4
 3031 0564 F6E7     		b	.L215
 3032              	.L178:
 625:Lib/Camera_Middleware/sensors/vd1943/vd1943.c ****   }
 3033              		.loc 1 625 5 is_stmt 1 view .LVU902
 3034 0566 40F27121 		movw	r1, #625
 3035 056a 164B     		ldr	r3, .L224+56
 3036 056c 184A     		ldr	r2, .L224+68
 3037 056e F5E5     		b	.L219
 3038              	.LVL252:
 3039              	.L188:
 625:Lib/Camera_Middleware/sensors/vd1943/vd1943.c ****   }
 3040              		.loc 1 625 5 is_stmt 0 view .LVU903
 3041              	.LBE60:
 3042              	.LBE65:
ARM GAS  C:\Users\DJESSOU\AppData\Local\Temp\cc3eovRL.s 			page 95


 3043              	.LBB66:
 3044              	.LBB63:
 637:Lib/Camera_Middleware/sensors/vd1943/vd1943.c ****     break;
 3045              		.loc 1 637 5 is_stmt 1 view .LVU904
 637:Lib/Camera_Middleware/sensors/vd1943/vd1943.c ****     break;
 3046              		.loc 1 637 16 is_stmt 0 view .LVU905
 3047 0570 0523     		movs	r3, #5
 3048 0572 EFE7     		b	.L215
 3049              	.L187:
 640:Lib/Camera_Middleware/sensors/vd1943/vd1943.c ****     break;
 3050              		.loc 1 640 5 is_stmt 1 view .LVU906
 640:Lib/Camera_Middleware/sensors/vd1943/vd1943.c ****     break;
 3051              		.loc 1 640 16 is_stmt 0 view .LVU907
 3052 0574 0723     		movs	r3, #7
 3053 0576 EDE7     		b	.L215
 3054              	.L186:
 643:Lib/Camera_Middleware/sensors/vd1943/vd1943.c ****     break;
 3055              		.loc 1 643 5 is_stmt 1 view .LVU908
 643:Lib/Camera_Middleware/sensors/vd1943/vd1943.c ****     break;
 3056              		.loc 1 643 16 is_stmt 0 view .LVU909
 3057 0578 0623     		movs	r3, #6
 3058 057a EBE7     		b	.L215
 3059              	.L184:
 646:Lib/Camera_Middleware/sensors/vd1943/vd1943.c ****     break;
 3060              		.loc 1 646 5 is_stmt 1 view .LVU910
 646:Lib/Camera_Middleware/sensors/vd1943/vd1943.c ****     break;
 3061              		.loc 1 646 16 is_stmt 0 view .LVU911
 3062 057c 0823     		movs	r3, #8
 3063 057e E9E7     		b	.L215
 3064              	.L183:
 649:Lib/Camera_Middleware/sensors/vd1943/vd1943.c ****   }
 3065              		.loc 1 649 5 is_stmt 1 view .LVU912
 3066 0580 40F28921 		movw	r1, #649
 3067 0584 0F4B     		ldr	r3, .L224+56
 3068 0586 134A     		ldr	r2, .L224+72
 3069 0588 E8E5     		b	.L219
 3070              	.L225:
 3071 058a 00BF     		.align	2
 3072              	.L224:
 3073 058c 00000000 		.word	fw_patch_13_mono_array
 3074 0590 00000000 		.word	__func__.22
 3075 0594 00000000 		.word	fw_patch_13_rgbnir_array
 3076 0598 8B010000 		.word	.LC19
 3077 059c 00000000 		.word	__func__.21
 3078 05a0 00000000 		.word	gt_ram_pat_content
 3079 05a4 00000000 		.word	__func__.20
 3080 05a8 00000000 		.word	.LC4
 3081 05ac 00000000 		.word	gt_ram_seq1_content
 3082 05b0 00000000 		.word	gt_ram_seq2_content
 3083 05b4 00000000 		.word	gt_ram_seq3_content
 3084 05b8 00000000 		.word	gt_ram_seq4_content
 3085 05bc 00000000 		.word	rd_ram_pat_content
 3086 05c0 00000000 		.word	rd_ram_seq1_content
 3087 05c4 B1000000 		.word	.LC13
 3088 05c8 00000000 		.word	__func__.19
 3089 05cc 03000067 		.word	1728053251
 3090 05d0 00000000 		.word	__func__.18
ARM GAS  C:\Users\DJESSOU\AppData\Local\Temp\cc3eovRL.s 			page 96


 3091 05d4 00000000 		.word	__func__.17
 3092              	.LBE63:
 3093              	.LBE66:
 3094              	.LBE68:
 3095              	.LBE94:
 3096              	.LBE98:
 3097              	.LBE105:
 3098              		.cfi_endproc
 3099              	.LFE46:
 3101              		.section	.text.VD1943_DeInit,"ax",%progbits
 3102              		.align	1
 3103              		.global	VD1943_DeInit
 3104              		.syntax unified
 3105              		.thumb
 3106              		.thumb_func
 3108              	VD1943_DeInit:
 3109              	.LVL253:
 3110              	.LFB47:
1506:Lib/Camera_Middleware/sensors/vd1943/vd1943.c **** 
1507:Lib/Camera_Middleware/sensors/vd1943/vd1943.c **** int VD1943_DeInit(VD1943_Ctx_t *ctx)
1508:Lib/Camera_Middleware/sensors/vd1943/vd1943.c **** {
 3111              		.loc 1 1508 1 view -0
 3112              		.cfi_startproc
 3113              		@ args = 0, pretend = 0, frame = 0
 3114              		@ frame_needed = 0, uses_anonymous_args = 0
1509:Lib/Camera_Middleware/sensors/vd1943/vd1943.c ****   struct drv_vd1943_ctx *drv_vd1943_ctx = &ctx->ctx;
 3115              		.loc 1 1509 3 view .LVU914
1510:Lib/Camera_Middleware/sensors/vd1943/vd1943.c **** 
1511:Lib/Camera_Middleware/sensors/vd1943/vd1943.c ****   if (drv_vd1943_ctx->state == VD1943_ST_STREAMING)
 3116              		.loc 1 1511 3 view .LVU915
 3117              		.loc 1 1511 6 is_stmt 0 view .LVU916
 3118 0000 C36A     		ldr	r3, [r0, #44]
1508:Lib/Camera_Middleware/sensors/vd1943/vd1943.c ****   struct drv_vd1943_ctx *drv_vd1943_ctx = &ctx->ctx;
 3119              		.loc 1 1508 1 view .LVU917
 3120 0002 10B5     		push	{r4, lr}
 3121              		.cfi_def_cfa_offset 8
 3122              		.cfi_offset 4, -8
 3123              		.cfi_offset 14, -4
 3124              		.loc 1 1511 6 view .LVU918
 3125 0004 012B     		cmp	r3, #1
1508:Lib/Camera_Middleware/sensors/vd1943/vd1943.c ****   struct drv_vd1943_ctx *drv_vd1943_ctx = &ctx->ctx;
 3126              		.loc 1 1508 1 view .LVU919
 3127 0006 0446     		mov	r4, r0
 3128              		.loc 1 1511 6 view .LVU920
 3129 0008 08D0     		beq	.L228
1512:Lib/Camera_Middleware/sensors/vd1943/vd1943.c ****     return -1;
1513:Lib/Camera_Middleware/sensors/vd1943/vd1943.c **** 
1514:Lib/Camera_Middleware/sensors/vd1943/vd1943.c ****   ctx->shutdown_pin(ctx, 0);
 3130              		.loc 1 1514 3 is_stmt 1 view .LVU921
 3131 000a 0368     		ldr	r3, [r0]
 3132 000c 0021     		movs	r1, #0
 3133 000e 9847     		blx	r3
 3134              	.LVL254:
1515:Lib/Camera_Middleware/sensors/vd1943/vd1943.c ****   ctx->delay(ctx, 10);
 3135              		.loc 1 1515 3 view .LVU922
 3136 0010 2046     		mov	r0, r4
 3137 0012 0A21     		movs	r1, #10
ARM GAS  C:\Users\DJESSOU\AppData\Local\Temp\cc3eovRL.s 			page 97


 3138 0014 236A     		ldr	r3, [r4, #32]
 3139 0016 9847     		blx	r3
 3140              	.LVL255:
1516:Lib/Camera_Middleware/sensors/vd1943/vd1943.c **** 
1517:Lib/Camera_Middleware/sensors/vd1943/vd1943.c ****   return 0;
 3141              		.loc 1 1517 3 view .LVU923
 3142              		.loc 1 1517 10 is_stmt 0 view .LVU924
 3143 0018 0020     		movs	r0, #0
 3144              	.L226:
1518:Lib/Camera_Middleware/sensors/vd1943/vd1943.c **** }
 3145              		.loc 1 1518 1 view .LVU925
 3146 001a 10BD     		pop	{r4, pc}
 3147              	.LVL256:
 3148              	.L228:
1512:Lib/Camera_Middleware/sensors/vd1943/vd1943.c **** 
 3149              		.loc 1 1512 12 view .LVU926
 3150 001c 4FF0FF30 		mov	r0, #-1
 3151              	.LVL257:
1512:Lib/Camera_Middleware/sensors/vd1943/vd1943.c **** 
 3152              		.loc 1 1512 12 view .LVU927
 3153 0020 FBE7     		b	.L226
 3154              		.cfi_endproc
 3155              	.LFE47:
 3157              		.section	.rodata.VD1943_Stop.str1.1,"aMS",%progbits,1
 3158              	.LC20:
 3159 0000 56443139 		.ascii	"VD1943_NOT-%d : Streaming is on\012\000"
 3159      34335F4E 
 3159      4F542D25 
 3159      64203A20 
 3159      53747265 
 3160              		.section	.text.VD1943_Stop,"ax",%progbits
 3161              		.align	1
 3162              		.global	VD1943_Stop
 3163              		.syntax unified
 3164              		.thumb
 3165              		.thumb_func
 3167              	VD1943_Stop:
 3168              	.LVL258:
 3169              	.LFB49:
1519:Lib/Camera_Middleware/sensors/vd1943/vd1943.c **** 
1520:Lib/Camera_Middleware/sensors/vd1943/vd1943.c **** //#define DUMP_REG
1521:Lib/Camera_Middleware/sensors/vd1943/vd1943.c **** #ifdef DUMP_REG
1522:Lib/Camera_Middleware/sensors/vd1943/vd1943.c **** static void dump_reg8(VD1943_Ctx_t *ctx, char *name, int addr)
1523:Lib/Camera_Middleware/sensors/vd1943/vd1943.c **** {
1524:Lib/Camera_Middleware/sensors/vd1943/vd1943.c ****   uint8_t reg;
1525:Lib/Camera_Middleware/sensors/vd1943/vd1943.c ****   int ret;
1526:Lib/Camera_Middleware/sensors/vd1943/vd1943.c **** 
1527:Lib/Camera_Middleware/sensors/vd1943/vd1943.c ****   ret = ctx->read8(ctx, addr, &reg);
1528:Lib/Camera_Middleware/sensors/vd1943/vd1943.c ****   assert(ret == 0);
1529:Lib/Camera_Middleware/sensors/vd1943/vd1943.c **** 
1530:Lib/Camera_Middleware/sensors/vd1943/vd1943.c ****   VD1943_notice(ctx, "Read %s - 0x%04x => 0x%02x (%d)\n", name, addr, reg, reg);
1531:Lib/Camera_Middleware/sensors/vd1943/vd1943.c **** }
1532:Lib/Camera_Middleware/sensors/vd1943/vd1943.c **** 
1533:Lib/Camera_Middleware/sensors/vd1943/vd1943.c **** static void dump_reg16(VD1943_Ctx_t *ctx, char *name, int addr)
1534:Lib/Camera_Middleware/sensors/vd1943/vd1943.c **** {
1535:Lib/Camera_Middleware/sensors/vd1943/vd1943.c ****   uint16_t reg;
1536:Lib/Camera_Middleware/sensors/vd1943/vd1943.c ****   int ret;
ARM GAS  C:\Users\DJESSOU\AppData\Local\Temp\cc3eovRL.s 			page 98


1537:Lib/Camera_Middleware/sensors/vd1943/vd1943.c **** 
1538:Lib/Camera_Middleware/sensors/vd1943/vd1943.c ****   ret = ctx->read16(ctx, addr, &reg);
1539:Lib/Camera_Middleware/sensors/vd1943/vd1943.c ****   assert(ret == 0);
1540:Lib/Camera_Middleware/sensors/vd1943/vd1943.c **** 
1541:Lib/Camera_Middleware/sensors/vd1943/vd1943.c ****   VD1943_notice(ctx, "Read %s - 0x%04x => 0x%04x (%d)\n", name, addr, reg, reg);
1542:Lib/Camera_Middleware/sensors/vd1943/vd1943.c **** }
1543:Lib/Camera_Middleware/sensors/vd1943/vd1943.c **** 
1544:Lib/Camera_Middleware/sensors/vd1943/vd1943.c **** static void dump_reg32(VD1943_Ctx_t *ctx, char *name, int addr)
1545:Lib/Camera_Middleware/sensors/vd1943/vd1943.c **** {
1546:Lib/Camera_Middleware/sensors/vd1943/vd1943.c ****   uint32_t reg;
1547:Lib/Camera_Middleware/sensors/vd1943/vd1943.c ****   int ret;
1548:Lib/Camera_Middleware/sensors/vd1943/vd1943.c **** 
1549:Lib/Camera_Middleware/sensors/vd1943/vd1943.c ****   ret = ctx->read32(ctx, addr, &reg);
1550:Lib/Camera_Middleware/sensors/vd1943/vd1943.c ****   assert(ret == 0);
1551:Lib/Camera_Middleware/sensors/vd1943/vd1943.c **** 
1552:Lib/Camera_Middleware/sensors/vd1943/vd1943.c ****   VD1943_notice(ctx, "Read %s - 0x%04x => 0x%08x (%d)\n", name, addr, reg, reg);
1553:Lib/Camera_Middleware/sensors/vd1943/vd1943.c **** }
1554:Lib/Camera_Middleware/sensors/vd1943/vd1943.c **** 
1555:Lib/Camera_Middleware/sensors/vd1943/vd1943.c **** static void dump_reg(VD1943_Ctx_t *ctx, char *name, int addr, int bit_nb)
1556:Lib/Camera_Middleware/sensors/vd1943/vd1943.c **** {
1557:Lib/Camera_Middleware/sensors/vd1943/vd1943.c ****   if (bit_nb == 8)
1558:Lib/Camera_Middleware/sensors/vd1943/vd1943.c ****     dump_reg8(ctx, name, addr);
1559:Lib/Camera_Middleware/sensors/vd1943/vd1943.c ****   else if (bit_nb == 16)
1560:Lib/Camera_Middleware/sensors/vd1943/vd1943.c ****     dump_reg16(ctx, name, addr);
1561:Lib/Camera_Middleware/sensors/vd1943/vd1943.c ****   else if (bit_nb == 32)
1562:Lib/Camera_Middleware/sensors/vd1943/vd1943.c ****     dump_reg32(ctx, name, addr);
1563:Lib/Camera_Middleware/sensors/vd1943/vd1943.c ****   else
1564:Lib/Camera_Middleware/sensors/vd1943/vd1943.c ****     assert(0);
1565:Lib/Camera_Middleware/sensors/vd1943/vd1943.c **** }
1566:Lib/Camera_Middleware/sensors/vd1943/vd1943.c **** 
1567:Lib/Camera_Middleware/sensors/vd1943/vd1943.c **** static void VD1943_Dbg(VD1943_Ctx_t *ctx)
1568:Lib/Camera_Middleware/sensors/vd1943/vd1943.c **** {
1569:Lib/Camera_Middleware/sensors/vd1943/vd1943.c ****   ctx->delay(ctx, 100);
1570:Lib/Camera_Middleware/sensors/vd1943/vd1943.c ****   dump_reg(ctx, "SYSTEM_FSM_STATE", 0x44, 8);
1571:Lib/Camera_Middleware/sensors/vd1943/vd1943.c ****   dump_reg(ctx, "MIPI_LANE_NB", 0x45, 8);
1572:Lib/Camera_Middleware/sensors/vd1943/vd1943.c ****   dump_reg(ctx, "SYSTEM_WARNING", 0x46, 16);
1573:Lib/Camera_Middleware/sensors/vd1943/vd1943.c ****   dump_reg(ctx, "SYSTEM_ERROR", 0x48, 16);
1574:Lib/Camera_Middleware/sensors/vd1943/vd1943.c ****   dump_reg(ctx, "FRAME_COUNTER", 0x6e, 16);
1575:Lib/Camera_Middleware/sensors/vd1943/vd1943.c ****   dump_reg(ctx, "OUTPUT_FORMAT", 0x79, 8);
1576:Lib/Camera_Middleware/sensors/vd1943/vd1943.c ****   dump_reg(ctx, "VIRTUAL_CHANNEL", 0x7a, 8);
1577:Lib/Camera_Middleware/sensors/vd1943/vd1943.c ****   dump_reg(ctx, "ROI_SELECTION", 0x7b, 8);
1578:Lib/Camera_Middleware/sensors/vd1943/vd1943.c ****   dump_reg(ctx, "ROI_A_OFFSET", 0x7c, 32);
1579:Lib/Camera_Middleware/sensors/vd1943/vd1943.c ****   dump_reg(ctx, "ROI_A_SIZE", 0x80, 32);
1580:Lib/Camera_Middleware/sensors/vd1943/vd1943.c ****   dump_reg(ctx, "ROI_A_DT", 0x9c, 8);
1581:Lib/Camera_Middleware/sensors/vd1943/vd1943.c ****   dump_reg(ctx, "LINE_LENGTH", 0xb2, 16);
1582:Lib/Camera_Middleware/sensors/vd1943/vd1943.c ****   dump_reg(ctx, "FRAME_LENGTH", 0xb4, 32);
1583:Lib/Camera_Middleware/sensors/vd1943/vd1943.c ****   dump_reg(ctx, "READOUT_CTRL", 0xb8, 8);
1584:Lib/Camera_Middleware/sensors/vd1943/vd1943.c ****   dump_reg(ctx, "IMAGE_CONFIG", 0xbc, 8);
1585:Lib/Camera_Middleware/sensors/vd1943/vd1943.c ****   dump_reg(ctx, "SHUTTER_MODE", 0xbd, 8);
1586:Lib/Camera_Middleware/sensors/vd1943/vd1943.c ****   dump_reg(ctx, "X_START", 0xc8, 16);
1587:Lib/Camera_Middleware/sensors/vd1943/vd1943.c ****   dump_reg(ctx, "X_END", 0xca, 16);
1588:Lib/Camera_Middleware/sensors/vd1943/vd1943.c ****   dump_reg(ctx, "Y_START", 0xcc, 16);
1589:Lib/Camera_Middleware/sensors/vd1943/vd1943.c ****   dump_reg(ctx, "Y_END", 0xce, 16);
1590:Lib/Camera_Middleware/sensors/vd1943/vd1943.c ****   dump_reg(ctx, "X_SIZE", 0xd0, 16);
1591:Lib/Camera_Middleware/sensors/vd1943/vd1943.c ****   dump_reg(ctx, "Y_SIZE", 0xd2, 16);
1592:Lib/Camera_Middleware/sensors/vd1943/vd1943.c ****   dump_reg(ctx, "OIF_LANE_PHY_MAP", 0x16c, 8);
1593:Lib/Camera_Middleware/sensors/vd1943/vd1943.c ****   dump_reg(ctx, "OIF_LANE_PHY_SWAP", 0x16d, 8);
ARM GAS  C:\Users\DJESSOU\AppData\Local\Temp\cc3eovRL.s 			page 99


1594:Lib/Camera_Middleware/sensors/vd1943/vd1943.c ****   dump_reg(ctx, "STREAMING_FSM", 0x201, 8);
1595:Lib/Camera_Middleware/sensors/vd1943/vd1943.c ****   dump_reg(ctx, "SYSTEM_PLL_CLK", 0x228, 32);
1596:Lib/Camera_Middleware/sensors/vd1943/vd1943.c ****   dump_reg(ctx, "PIXEL_CLK", 0x22c, 32);
1597:Lib/Camera_Middleware/sensors/vd1943/vd1943.c ****   dump_reg(ctx, "MCU_CLK", 0x230, 32);
1598:Lib/Camera_Middleware/sensors/vd1943/vd1943.c ****   dump_reg(ctx, "FRAME_RATE", 0x236, 16);
1599:Lib/Camera_Middleware/sensors/vd1943/vd1943.c ****   dump_reg(ctx, "WAIT_DELAY", 0x2be, 16);
1600:Lib/Camera_Middleware/sensors/vd1943/vd1943.c **** }
1601:Lib/Camera_Middleware/sensors/vd1943/vd1943.c **** #endif
1602:Lib/Camera_Middleware/sensors/vd1943/vd1943.c **** 
1603:Lib/Camera_Middleware/sensors/vd1943/vd1943.c **** int VD1943_Start(VD1943_Ctx_t *ctx)
1604:Lib/Camera_Middleware/sensors/vd1943/vd1943.c **** {
1605:Lib/Camera_Middleware/sensors/vd1943/vd1943.c ****   struct drv_vd1943_ctx *drv_vd1943_ctx = &ctx->ctx;
1606:Lib/Camera_Middleware/sensors/vd1943/vd1943.c ****   int ret;
1607:Lib/Camera_Middleware/sensors/vd1943/vd1943.c **** 
1608:Lib/Camera_Middleware/sensors/vd1943/vd1943.c ****   if (drv_vd1943_ctx->state != VD1943_ST_IDLE)
1609:Lib/Camera_Middleware/sensors/vd1943/vd1943.c ****     return -1;
1610:Lib/Camera_Middleware/sensors/vd1943/vd1943.c **** 
1611:Lib/Camera_Middleware/sensors/vd1943/vd1943.c ****   ret = VD1943_Setup(ctx);
1612:Lib/Camera_Middleware/sensors/vd1943/vd1943.c ****   if (ret)
1613:Lib/Camera_Middleware/sensors/vd1943/vd1943.c ****     return ret;
1614:Lib/Camera_Middleware/sensors/vd1943/vd1943.c **** 
1615:Lib/Camera_Middleware/sensors/vd1943/vd1943.c ****   ret = VD1943_StartStreaming(ctx);
1616:Lib/Camera_Middleware/sensors/vd1943/vd1943.c ****   if (ret)
1617:Lib/Camera_Middleware/sensors/vd1943/vd1943.c ****     return ret;
1618:Lib/Camera_Middleware/sensors/vd1943/vd1943.c ****   drv_vd1943_ctx->state = VD1943_ST_STREAMING;
1619:Lib/Camera_Middleware/sensors/vd1943/vd1943.c **** 
1620:Lib/Camera_Middleware/sensors/vd1943/vd1943.c **** #ifdef DUMP_REG
1621:Lib/Camera_Middleware/sensors/vd1943/vd1943.c ****   VD1943_Dbg(ctx);
1622:Lib/Camera_Middleware/sensors/vd1943/vd1943.c **** #endif
1623:Lib/Camera_Middleware/sensors/vd1943/vd1943.c **** 
1624:Lib/Camera_Middleware/sensors/vd1943/vd1943.c ****   return 0;
1625:Lib/Camera_Middleware/sensors/vd1943/vd1943.c **** }
1626:Lib/Camera_Middleware/sensors/vd1943/vd1943.c **** 
1627:Lib/Camera_Middleware/sensors/vd1943/vd1943.c **** int VD1943_Stop(VD1943_Ctx_t *ctx)
1628:Lib/Camera_Middleware/sensors/vd1943/vd1943.c **** {
 3170              		.loc 1 1628 1 is_stmt 1 view -0
 3171              		.cfi_startproc
 3172              		@ args = 0, pretend = 0, frame = 0
 3173              		@ frame_needed = 0, uses_anonymous_args = 0
1629:Lib/Camera_Middleware/sensors/vd1943/vd1943.c ****   struct drv_vd1943_ctx *drv_vd1943_ctx = &ctx->ctx;
 3174              		.loc 1 1629 3 view .LVU929
1630:Lib/Camera_Middleware/sensors/vd1943/vd1943.c ****   int ret;
 3175              		.loc 1 1630 3 view .LVU930
1631:Lib/Camera_Middleware/sensors/vd1943/vd1943.c **** 
1632:Lib/Camera_Middleware/sensors/vd1943/vd1943.c ****   if (drv_vd1943_ctx->state != VD1943_ST_STREAMING)
 3176              		.loc 1 1632 3 view .LVU931
 3177              		.loc 1 1632 6 is_stmt 0 view .LVU932
 3178 0000 C26A     		ldr	r2, [r0, #44]
1628:Lib/Camera_Middleware/sensors/vd1943/vd1943.c ****   struct drv_vd1943_ctx *drv_vd1943_ctx = &ctx->ctx;
 3179              		.loc 1 1628 1 view .LVU933
 3180 0002 38B5     		push	{r3, r4, r5, lr}
 3181              		.cfi_def_cfa_offset 16
 3182              		.cfi_offset 3, -16
 3183              		.cfi_offset 4, -12
 3184              		.cfi_offset 5, -8
 3185              		.cfi_offset 14, -4
 3186              		.loc 1 1632 6 view .LVU934
ARM GAS  C:\Users\DJESSOU\AppData\Local\Temp\cc3eovRL.s 			page 100


 3187 0004 012A     		cmp	r2, #1
1628:Lib/Camera_Middleware/sensors/vd1943/vd1943.c ****   struct drv_vd1943_ctx *drv_vd1943_ctx = &ctx->ctx;
 3188              		.loc 1 1628 1 view .LVU935
 3189 0006 0546     		mov	r5, r0
 3190              		.loc 1 1632 6 view .LVU936
 3191 0008 15D1     		bne	.L233
1633:Lib/Camera_Middleware/sensors/vd1943/vd1943.c ****     return -1;
1634:Lib/Camera_Middleware/sensors/vd1943/vd1943.c **** 
1635:Lib/Camera_Middleware/sensors/vd1943/vd1943.c ****   ret = VD1943_StopStreaming(ctx);
 3192              		.loc 1 1635 3 is_stmt 1 view .LVU937
 3193              	.LVL259:
 3194              	.LBB108:
 3195              	.LBI108:
1330:Lib/Camera_Middleware/sensors/vd1943/vd1943.c **** {
 3196              		.loc 1 1330 12 view .LVU938
 3197              	.LBB109:
1332:Lib/Camera_Middleware/sensors/vd1943/vd1943.c **** 
 3198              		.loc 1 1332 3 view .LVU939
1334:Lib/Camera_Middleware/sensors/vd1943/vd1943.c ****   if (ret)
 3199              		.loc 1 1334 3 view .LVU940
1334:Lib/Camera_Middleware/sensors/vd1943/vd1943.c ****   if (ret)
 3200              		.loc 1 1334 9 is_stmt 0 view .LVU941
 3201 000a 40F21751 		movw	r1, #1303
 3202 000e FFF7FEFF 		bl	VD1943_ApplyCmdAndWait
 3203              	.LVL260:
1335:Lib/Camera_Middleware/sensors/vd1943/vd1943.c ****     return ret;
 3204              		.loc 1 1335 3 is_stmt 1 view .LVU942
1335:Lib/Camera_Middleware/sensors/vd1943/vd1943.c ****     return ret;
 3205              		.loc 1 1335 6 is_stmt 0 view .LVU943
 3206 0012 0446     		mov	r4, r0
 3207 0014 68B9     		cbnz	r0, .L229
1338:Lib/Camera_Middleware/sensors/vd1943/vd1943.c ****   if (ret)
 3208              		.loc 1 1338 3 is_stmt 1 view .LVU944
1338:Lib/Camera_Middleware/sensors/vd1943/vd1943.c ****   if (ret)
 3209              		.loc 1 1338 9 is_stmt 0 view .LVU945
 3210 0016 0321     		movs	r1, #3
 3211 0018 2846     		mov	r0, r5
 3212              	.LVL261:
1338:Lib/Camera_Middleware/sensors/vd1943/vd1943.c ****   if (ret)
 3213              		.loc 1 1338 9 view .LVU946
 3214 001a FFF7FEFF 		bl	VD1943_WaitState
 3215              	.LVL262:
1339:Lib/Camera_Middleware/sensors/vd1943/vd1943.c ****     return ret;
 3216              		.loc 1 1339 3 is_stmt 1 view .LVU947
1339:Lib/Camera_Middleware/sensors/vd1943/vd1943.c ****     return ret;
 3217              		.loc 1 1339 6 is_stmt 0 view .LVU948
 3218 001e 0446     		mov	r4, r0
 3219 0020 38B9     		cbnz	r0, .L229
1342:Lib/Camera_Middleware/sensors/vd1943/vd1943.c **** 
 3220              		.loc 1 1342 3 is_stmt 1 view .LVU949
1342:Lib/Camera_Middleware/sensors/vd1943/vd1943.c **** 
 3221              		.loc 1 1342 3 view .LVU950
 3222 0022 40F23E53 		movw	r3, #1342
 3223 0026 0221     		movs	r1, #2
 3224 0028 2846     		mov	r0, r5
 3225              	.LVL263:
1342:Lib/Camera_Middleware/sensors/vd1943/vd1943.c **** 
ARM GAS  C:\Users\DJESSOU\AppData\Local\Temp\cc3eovRL.s 			page 101


 3226              		.loc 1 1342 3 is_stmt 0 view .LVU951
 3227 002a 044A     		ldr	r2, .L234
 3228 002c FFF7FEFF 		bl	VD1943_log_impl
 3229              	.LVL264:
1342:Lib/Camera_Middleware/sensors/vd1943/vd1943.c **** 
 3230              		.loc 1 1342 3 is_stmt 1 discriminator 1 view .LVU952
1344:Lib/Camera_Middleware/sensors/vd1943/vd1943.c **** }
 3231              		.loc 1 1344 3 view .LVU953
1344:Lib/Camera_Middleware/sensors/vd1943/vd1943.c **** }
 3232              		.loc 1 1344 3 is_stmt 0 view .LVU954
 3233              	.LBE109:
 3234              	.LBE108:
1636:Lib/Camera_Middleware/sensors/vd1943/vd1943.c ****   if (ret)
 3235              		.loc 1 1636 3 is_stmt 1 view .LVU955
1637:Lib/Camera_Middleware/sensors/vd1943/vd1943.c ****     return ret;
1638:Lib/Camera_Middleware/sensors/vd1943/vd1943.c ****   drv_vd1943_ctx->state = VD1943_ST_IDLE;
 3236              		.loc 1 1638 3 view .LVU956
 3237              		.loc 1 1638 25 is_stmt 0 view .LVU957
 3238 0030 EC62     		str	r4, [r5, #44]
1639:Lib/Camera_Middleware/sensors/vd1943/vd1943.c **** 
1640:Lib/Camera_Middleware/sensors/vd1943/vd1943.c ****   return 0;
 3239              		.loc 1 1640 3 is_stmt 1 view .LVU958
 3240              	.LVL265:
 3241              	.L229:
1641:Lib/Camera_Middleware/sensors/vd1943/vd1943.c **** }
 3242              		.loc 1 1641 1 is_stmt 0 view .LVU959
 3243 0032 2046     		mov	r0, r4
 3244 0034 38BD     		pop	{r3, r4, r5, pc}
 3245              	.LVL266:
 3246              	.L233:
1633:Lib/Camera_Middleware/sensors/vd1943/vd1943.c **** 
 3247              		.loc 1 1633 12 view .LVU960
 3248 0036 4FF0FF34 		mov	r4, #-1
 3249 003a FAE7     		b	.L229
 3250              	.L235:
 3251              		.align	2
 3252              	.L234:
 3253 003c 00000000 		.word	.LC20
 3254              		.cfi_endproc
 3255              	.LFE49:
 3257              		.section	.text.VD1943_Hold,"ax",%progbits
 3258              		.align	1
 3259              		.global	VD1943_Hold
 3260              		.syntax unified
 3261              		.thumb
 3262              		.thumb_func
 3264              	VD1943_Hold:
 3265              	.LVL267:
 3266              	.LFB50:
1642:Lib/Camera_Middleware/sensors/vd1943/vd1943.c **** 
1643:Lib/Camera_Middleware/sensors/vd1943/vd1943.c **** int VD1943_Hold(VD1943_Ctx_t *ctx, int is_enable)
1644:Lib/Camera_Middleware/sensors/vd1943/vd1943.c **** {
 3267              		.loc 1 1644 1 is_stmt 1 view -0
 3268              		.cfi_startproc
 3269              		@ args = 0, pretend = 0, frame = 0
 3270              		@ frame_needed = 0, uses_anonymous_args = 0
1645:Lib/Camera_Middleware/sensors/vd1943/vd1943.c ****   int ret;
ARM GAS  C:\Users\DJESSOU\AppData\Local\Temp\cc3eovRL.s 			page 102


 3271              		.loc 1 1645 3 view .LVU962
1646:Lib/Camera_Middleware/sensors/vd1943/vd1943.c **** 
1647:Lib/Camera_Middleware/sensors/vd1943/vd1943.c ****   ret = ctx->write8(ctx, VD1943_REG_GROUP_PARAMETER_HOLD(0),
 3272              		.loc 1 1647 3 view .LVU963
1644:Lib/Camera_Middleware/sensors/vd1943/vd1943.c ****   int ret;
 3273              		.loc 1 1644 1 is_stmt 0 view .LVU964
 3274 0000 30B5     		push	{r4, r5, lr}
 3275              		.cfi_def_cfa_offset 12
 3276              		.cfi_offset 4, -12
 3277              		.cfi_offset 5, -8
 3278              		.cfi_offset 14, -4
 3279              		.loc 1 1647 9 view .LVU965
 3280 0002 0A1E     		subs	r2, r1, #0
 3281 0004 18BF     		it	ne
 3282 0006 0122     		movne	r2, #1
 3283 0008 40F67841 		movw	r1, #3192
 3284              	.LVL268:
 3285              		.loc 1 1647 9 view .LVU966
 3286 000c 0369     		ldr	r3, [r0, #16]
1644:Lib/Camera_Middleware/sensors/vd1943/vd1943.c ****   int ret;
 3287              		.loc 1 1644 1 view .LVU967
 3288 000e 85B0     		sub	sp, sp, #20
 3289              		.cfi_def_cfa_offset 32
1644:Lib/Camera_Middleware/sensors/vd1943/vd1943.c ****   int ret;
 3290              		.loc 1 1644 1 view .LVU968
 3291 0010 0546     		mov	r5, r0
 3292              		.loc 1 1647 9 view .LVU969
 3293 0012 9847     		blx	r3
 3294              	.LVL269:
1648:Lib/Camera_Middleware/sensors/vd1943/vd1943.c ****                     is_enable ? VD1943_GROUP_PARAMETER_HOLD_ENABLE : VD1943_GROUP_PARAMETER_HOLD_DI
1649:Lib/Camera_Middleware/sensors/vd1943/vd1943.c ****   VD1943_TraceError(ctx, ret);
 3295              		.loc 1 1649 3 is_stmt 1 view .LVU970
 3296              		.loc 1 1649 3 view .LVU971
 3297 0014 0446     		mov	r4, r0
 3298 0016 68B1     		cbz	r0, .L236
 3299              		.loc 1 1649 3 discriminator 1 view .LVU972
 3300              		.loc 1 1649 3 discriminator 1 view .LVU973
 3301 0018 40F27163 		movw	r3, #1649
 3302 001c 074A     		ldr	r2, .L241
 3303 001e 0290     		str	r0, [sp, #8]
 3304 0020 0092     		str	r2, [sp]
 3305 0022 2846     		mov	r0, r5
 3306              	.LVL270:
 3307              		.loc 1 1649 3 is_stmt 0 discriminator 1 view .LVU974
 3308 0024 0021     		movs	r1, #0
 3309 0026 064A     		ldr	r2, .L241+4
 3310 0028 0193     		str	r3, [sp, #4]
 3311 002a FFF7FEFF 		bl	VD1943_log_impl
 3312              	.LVL271:
 3313              		.loc 1 1649 3 is_stmt 1 discriminator 3 view .LVU975
 3314              		.loc 1 1649 3 discriminator 3 view .LVU976
 3315              		.loc 1 1649 3 discriminator 4 view .LVU977
 3316 002e 2846     		mov	r0, r5
 3317 0030 FFF7FEFF 		bl	display_error
 3318              	.LVL272:
 3319              		.loc 1 1649 3 discriminator 6 view .LVU978
 3320              	.L236:
ARM GAS  C:\Users\DJESSOU\AppData\Local\Temp\cc3eovRL.s 			page 103


1650:Lib/Camera_Middleware/sensors/vd1943/vd1943.c **** 
1651:Lib/Camera_Middleware/sensors/vd1943/vd1943.c ****   return 0;
1652:Lib/Camera_Middleware/sensors/vd1943/vd1943.c **** }
 3321              		.loc 1 1652 1 is_stmt 0 view .LVU979
 3322 0034 2046     		mov	r0, r4
 3323 0036 05B0     		add	sp, sp, #20
 3324              		.cfi_def_cfa_offset 12
 3325              		@ sp needed
 3326 0038 30BD     		pop	{r4, r5, pc}
 3327              	.LVL273:
 3328              	.L242:
 3329              		.loc 1 1652 1 view .LVU980
 3330 003a 00BF     		.align	2
 3331              	.L241:
 3332 003c 00000000 		.word	__func__.5
 3333 0040 00000000 		.word	.LC4
 3334              		.cfi_endproc
 3335              	.LFE50:
 3337              		.section	.text.VD1943_SetAnalogGain,"ax",%progbits
 3338              		.align	1
 3339              		.global	VD1943_SetAnalogGain
 3340              		.syntax unified
 3341              		.thumb
 3342              		.thumb_func
 3344              	VD1943_SetAnalogGain:
 3345              	.LVL274:
 3346              	.LFB51:
1653:Lib/Camera_Middleware/sensors/vd1943/vd1943.c **** 
1654:Lib/Camera_Middleware/sensors/vd1943/vd1943.c **** int VD1943_SetAnalogGain(VD1943_Ctx_t *ctx, unsigned int gain)
1655:Lib/Camera_Middleware/sensors/vd1943/vd1943.c **** {
 3347              		.loc 1 1655 1 is_stmt 1 view -0
 3348              		.cfi_startproc
 3349              		@ args = 0, pretend = 0, frame = 0
 3350              		@ frame_needed = 0, uses_anonymous_args = 0
1656:Lib/Camera_Middleware/sensors/vd1943/vd1943.c ****   int ret;
 3351              		.loc 1 1656 3 view .LVU982
1657:Lib/Camera_Middleware/sensors/vd1943/vd1943.c **** 
1658:Lib/Camera_Middleware/sensors/vd1943/vd1943.c ****   if (gain > VD1943_ANALOG_GAIN_MAX)
 3352              		.loc 1 1658 3 view .LVU983
1655:Lib/Camera_Middleware/sensors/vd1943/vd1943.c ****   int ret;
 3353              		.loc 1 1655 1 is_stmt 0 view .LVU984
 3354 0000 30B5     		push	{r4, r5, lr}
 3355              		.cfi_def_cfa_offset 12
 3356              		.cfi_offset 4, -12
 3357              		.cfi_offset 5, -8
 3358              		.cfi_offset 14, -4
 3359              		.loc 1 1658 6 view .LVU985
 3360 0002 0C29     		cmp	r1, #12
1655:Lib/Camera_Middleware/sensors/vd1943/vd1943.c ****   int ret;
 3361              		.loc 1 1655 1 view .LVU986
 3362 0004 0546     		mov	r5, r0
 3363 0006 85B0     		sub	sp, sp, #20
 3364              		.cfi_def_cfa_offset 32
 3365              		.loc 1 1658 6 view .LVU987
 3366 0008 17D8     		bhi	.L246
1659:Lib/Camera_Middleware/sensors/vd1943/vd1943.c ****     return -1;
1660:Lib/Camera_Middleware/sensors/vd1943/vd1943.c **** 
ARM GAS  C:\Users\DJESSOU\AppData\Local\Temp\cc3eovRL.s 			page 104


1661:Lib/Camera_Middleware/sensors/vd1943/vd1943.c ****   ret = ctx->write8(ctx, VD1943_REG_ANALOG_GAIN(0), gain);
 3367              		.loc 1 1661 3 is_stmt 1 view .LVU988
 3368              		.loc 1 1661 9 is_stmt 0 view .LVU989
 3369 000a CAB2     		uxtb	r2, r1
 3370 000c 0369     		ldr	r3, [r0, #16]
 3371 000e 40F67941 		movw	r1, #3193
 3372              	.LVL275:
 3373              		.loc 1 1661 9 view .LVU990
 3374 0012 9847     		blx	r3
 3375              	.LVL276:
1662:Lib/Camera_Middleware/sensors/vd1943/vd1943.c ****   VD1943_TraceError(ctx, ret);
 3376              		.loc 1 1662 3 is_stmt 1 view .LVU991
 3377              		.loc 1 1662 3 view .LVU992
 3378 0014 0446     		mov	r4, r0
 3379 0016 68B1     		cbz	r0, .L243
 3380              		.loc 1 1662 3 discriminator 1 view .LVU993
 3381              		.loc 1 1662 3 discriminator 1 view .LVU994
 3382 0018 40F27E63 		movw	r3, #1662
 3383 001c 084A     		ldr	r2, .L250
 3384 001e 0290     		str	r0, [sp, #8]
 3385 0020 0092     		str	r2, [sp]
 3386 0022 2846     		mov	r0, r5
 3387              	.LVL277:
 3388              		.loc 1 1662 3 is_stmt 0 discriminator 1 view .LVU995
 3389 0024 0021     		movs	r1, #0
 3390 0026 074A     		ldr	r2, .L250+4
 3391 0028 0193     		str	r3, [sp, #4]
 3392 002a FFF7FEFF 		bl	VD1943_log_impl
 3393              	.LVL278:
 3394              		.loc 1 1662 3 is_stmt 1 discriminator 3 view .LVU996
 3395              		.loc 1 1662 3 discriminator 3 view .LVU997
 3396              		.loc 1 1662 3 discriminator 4 view .LVU998
 3397 002e 2846     		mov	r0, r5
 3398 0030 FFF7FEFF 		bl	display_error
 3399              	.LVL279:
 3400              	.L243:
1663:Lib/Camera_Middleware/sensors/vd1943/vd1943.c **** 
1664:Lib/Camera_Middleware/sensors/vd1943/vd1943.c ****   return 0;
1665:Lib/Camera_Middleware/sensors/vd1943/vd1943.c **** }
 3401              		.loc 1 1665 1 is_stmt 0 view .LVU999
 3402 0034 2046     		mov	r0, r4
 3403 0036 05B0     		add	sp, sp, #20
 3404              		.cfi_remember_state
 3405              		.cfi_def_cfa_offset 12
 3406              		@ sp needed
 3407 0038 30BD     		pop	{r4, r5, pc}
 3408              	.LVL280:
 3409              	.L246:
 3410              		.cfi_restore_state
1659:Lib/Camera_Middleware/sensors/vd1943/vd1943.c **** 
 3411              		.loc 1 1659 12 view .LVU1000
 3412 003a 4FF0FF34 		mov	r4, #-1
 3413 003e F9E7     		b	.L243
 3414              	.L251:
 3415              		.align	2
 3416              	.L250:
 3417 0040 00000000 		.word	__func__.4
ARM GAS  C:\Users\DJESSOU\AppData\Local\Temp\cc3eovRL.s 			page 105


 3418 0044 00000000 		.word	.LC4
 3419              		.cfi_endproc
 3420              	.LFE51:
 3422              		.section	.text.VD1943_GetAnalogGain,"ax",%progbits
 3423              		.align	1
 3424              		.global	VD1943_GetAnalogGain
 3425              		.syntax unified
 3426              		.thumb
 3427              		.thumb_func
 3429              	VD1943_GetAnalogGain:
 3430              	.LVL281:
 3431              	.LFB52:
1666:Lib/Camera_Middleware/sensors/vd1943/vd1943.c **** 
1667:Lib/Camera_Middleware/sensors/vd1943/vd1943.c **** int VD1943_GetAnalogGain(VD1943_Ctx_t *ctx, unsigned int *gain)
1668:Lib/Camera_Middleware/sensors/vd1943/vd1943.c **** {
 3432              		.loc 1 1668 1 is_stmt 1 view -0
 3433              		.cfi_startproc
 3434              		@ args = 0, pretend = 0, frame = 8
 3435              		@ frame_needed = 0, uses_anonymous_args = 0
1669:Lib/Camera_Middleware/sensors/vd1943/vd1943.c ****   uint8_t reg8;
 3436              		.loc 1 1669 3 view .LVU1002
1670:Lib/Camera_Middleware/sensors/vd1943/vd1943.c ****   int ret;
 3437              		.loc 1 1670 3 view .LVU1003
1671:Lib/Camera_Middleware/sensors/vd1943/vd1943.c **** 
1672:Lib/Camera_Middleware/sensors/vd1943/vd1943.c ****   ret = ctx->read8(ctx, VD1943_REG_ANALOG_GAIN(0), &reg8);
 3438              		.loc 1 1672 3 view .LVU1004
1668:Lib/Camera_Middleware/sensors/vd1943/vd1943.c ****   uint8_t reg8;
 3439              		.loc 1 1668 1 is_stmt 0 view .LVU1005
 3440 0000 70B5     		push	{r4, r5, r6, lr}
 3441              		.cfi_def_cfa_offset 16
 3442              		.cfi_offset 4, -16
 3443              		.cfi_offset 5, -12
 3444              		.cfi_offset 6, -8
 3445              		.cfi_offset 14, -4
 3446 0002 86B0     		sub	sp, sp, #24
 3447              		.cfi_def_cfa_offset 40
1668:Lib/Camera_Middleware/sensors/vd1943/vd1943.c ****   uint8_t reg8;
 3448              		.loc 1 1668 1 view .LVU1006
 3449 0004 0E46     		mov	r6, r1
 3450              		.loc 1 1672 9 view .LVU1007
 3451 0006 4368     		ldr	r3, [r0, #4]
 3452 0008 40F67941 		movw	r1, #3193
 3453              	.LVL282:
 3454              		.loc 1 1672 9 view .LVU1008
 3455 000c 0DF11702 		add	r2, sp, #23
1668:Lib/Camera_Middleware/sensors/vd1943/vd1943.c ****   uint8_t reg8;
 3456              		.loc 1 1668 1 view .LVU1009
 3457 0010 0546     		mov	r5, r0
 3458              		.loc 1 1672 9 view .LVU1010
 3459 0012 9847     		blx	r3
 3460              	.LVL283:
1673:Lib/Camera_Middleware/sensors/vd1943/vd1943.c ****   VD1943_TraceError(ctx, ret);
 3461              		.loc 1 1673 3 is_stmt 1 view .LVU1011
 3462              		.loc 1 1673 3 view .LVU1012
 3463 0014 0446     		mov	r4, r0
 3464 0016 28B9     		cbnz	r0, .L253
 3465              		.loc 1 1673 3 discriminator 6 view .LVU1013
ARM GAS  C:\Users\DJESSOU\AppData\Local\Temp\cc3eovRL.s 			page 106


 3466              		.loc 1 1673 3 discriminator 8 view .LVU1014
1674:Lib/Camera_Middleware/sensors/vd1943/vd1943.c ****   *gain = reg8;
 3467              		.loc 1 1674 3 view .LVU1015
 3468              		.loc 1 1674 9 is_stmt 0 view .LVU1016
 3469 0018 9DF81730 		ldrb	r3, [sp, #23]	@ zero_extendqisi2
 3470 001c 3360     		str	r3, [r6]
1675:Lib/Camera_Middleware/sensors/vd1943/vd1943.c **** 
1676:Lib/Camera_Middleware/sensors/vd1943/vd1943.c ****   return 0;
 3471              		.loc 1 1676 3 is_stmt 1 view .LVU1017
 3472              	.LVL284:
 3473              	.L252:
1677:Lib/Camera_Middleware/sensors/vd1943/vd1943.c **** }
 3474              		.loc 1 1677 1 is_stmt 0 view .LVU1018
 3475 001e 2046     		mov	r0, r4
 3476 0020 06B0     		add	sp, sp, #24
 3477              		.cfi_remember_state
 3478              		.cfi_def_cfa_offset 16
 3479              		@ sp needed
 3480 0022 70BD     		pop	{r4, r5, r6, pc}
 3481              	.LVL285:
 3482              	.L253:
 3483              		.cfi_restore_state
1673:Lib/Camera_Middleware/sensors/vd1943/vd1943.c ****   *gain = reg8;
 3484              		.loc 1 1673 3 is_stmt 1 discriminator 1 view .LVU1019
1673:Lib/Camera_Middleware/sensors/vd1943/vd1943.c ****   *gain = reg8;
 3485              		.loc 1 1673 3 discriminator 1 view .LVU1020
 3486 0024 40F28963 		movw	r3, #1673
 3487 0028 064A     		ldr	r2, .L255
 3488 002a 0290     		str	r0, [sp, #8]
 3489 002c 0092     		str	r2, [sp]
 3490 002e 2846     		mov	r0, r5
 3491              	.LVL286:
1673:Lib/Camera_Middleware/sensors/vd1943/vd1943.c ****   *gain = reg8;
 3492              		.loc 1 1673 3 is_stmt 0 discriminator 1 view .LVU1021
 3493 0030 0021     		movs	r1, #0
 3494 0032 054A     		ldr	r2, .L255+4
 3495 0034 0193     		str	r3, [sp, #4]
 3496 0036 FFF7FEFF 		bl	VD1943_log_impl
 3497              	.LVL287:
1673:Lib/Camera_Middleware/sensors/vd1943/vd1943.c ****   *gain = reg8;
 3498              		.loc 1 1673 3 is_stmt 1 discriminator 3 view .LVU1022
1673:Lib/Camera_Middleware/sensors/vd1943/vd1943.c ****   *gain = reg8;
 3499              		.loc 1 1673 3 discriminator 3 view .LVU1023
1673:Lib/Camera_Middleware/sensors/vd1943/vd1943.c ****   *gain = reg8;
 3500              		.loc 1 1673 3 discriminator 4 view .LVU1024
 3501 003a 2846     		mov	r0, r5
 3502 003c FFF7FEFF 		bl	display_error
 3503              	.LVL288:
1673:Lib/Camera_Middleware/sensors/vd1943/vd1943.c ****   *gain = reg8;
 3504              		.loc 1 1673 3 discriminator 6 view .LVU1025
 3505 0040 EDE7     		b	.L252
 3506              	.L256:
 3507 0042 00BF     		.align	2
 3508              	.L255:
 3509 0044 00000000 		.word	__func__.3
 3510 0048 00000000 		.word	.LC4
 3511              		.cfi_endproc
ARM GAS  C:\Users\DJESSOU\AppData\Local\Temp\cc3eovRL.s 			page 107


 3512              	.LFE52:
 3514              		.section	.rodata.VD1943_SetDigitalGain.str1.1,"aMS",%progbits,1
 3515              	.LC21:
 3516 0000 6472765F 		.ascii	"drv_vd1943_ctx->set_digital_gain\000"
 3516      76643139 
 3516      34335F63 
 3516      74782D3E 
 3516      7365745F 
 3517              		.section	.text.VD1943_SetDigitalGain,"ax",%progbits
 3518              		.align	1
 3519              		.global	VD1943_SetDigitalGain
 3520              		.syntax unified
 3521              		.thumb
 3522              		.thumb_func
 3524              	VD1943_SetDigitalGain:
 3525              	.LVL289:
 3526              	.LFB53:
1678:Lib/Camera_Middleware/sensors/vd1943/vd1943.c **** 
1679:Lib/Camera_Middleware/sensors/vd1943/vd1943.c **** int VD1943_SetDigitalGain(VD1943_Ctx_t *ctx, unsigned int gain)
1680:Lib/Camera_Middleware/sensors/vd1943/vd1943.c **** {
 3527              		.loc 1 1680 1 view -0
 3528              		.cfi_startproc
 3529              		@ args = 0, pretend = 0, frame = 0
 3530              		@ frame_needed = 0, uses_anonymous_args = 0
1681:Lib/Camera_Middleware/sensors/vd1943/vd1943.c ****   struct drv_vd1943_ctx *drv_vd1943_ctx = &ctx->ctx;
 3531              		.loc 1 1681 3 view .LVU1027
1682:Lib/Camera_Middleware/sensors/vd1943/vd1943.c ****   int ret;
 3532              		.loc 1 1682 3 view .LVU1028
1683:Lib/Camera_Middleware/sensors/vd1943/vd1943.c **** 
1684:Lib/Camera_Middleware/sensors/vd1943/vd1943.c ****   if (gain > VD1943_DIGITAL_GAIN_MAX)
 3533              		.loc 1 1684 3 view .LVU1029
 3534              		.loc 1 1684 6 is_stmt 0 view .LVU1030
 3535 0000 B1F5005F 		cmp	r1, #8192
1680:Lib/Camera_Middleware/sensors/vd1943/vd1943.c ****   struct drv_vd1943_ctx *drv_vd1943_ctx = &ctx->ctx;
 3536              		.loc 1 1680 1 view .LVU1031
 3537 0004 38B5     		push	{r3, r4, r5, lr}
 3538              		.cfi_def_cfa_offset 16
 3539              		.cfi_offset 3, -16
 3540              		.cfi_offset 4, -12
 3541              		.cfi_offset 5, -8
 3542              		.cfi_offset 14, -4
1680:Lib/Camera_Middleware/sensors/vd1943/vd1943.c ****   struct drv_vd1943_ctx *drv_vd1943_ctx = &ctx->ctx;
 3543              		.loc 1 1680 1 view .LVU1032
 3544 0006 0446     		mov	r4, r0
 3545 0008 0D46     		mov	r5, r1
 3546              		.loc 1 1684 6 view .LVU1033
 3547 000a 0DD8     		bhi	.L262
1685:Lib/Camera_Middleware/sensors/vd1943/vd1943.c ****     return -1;
1686:Lib/Camera_Middleware/sensors/vd1943/vd1943.c **** 
1687:Lib/Camera_Middleware/sensors/vd1943/vd1943.c ****   assert(drv_vd1943_ctx->set_digital_gain);
 3548              		.loc 1 1687 3 is_stmt 1 view .LVU1034
 3549 000c D0F88030 		ldr	r3, [r0, #128]
 3550 0010 33B9     		cbnz	r3, .L259
 3551              		.loc 1 1687 3 is_stmt 0 discriminator 1 view .LVU1035
 3552 0012 40F29761 		movw	r1, #1687
 3553              	.LVL290:
 3554              		.loc 1 1687 3 discriminator 1 view .LVU1036
ARM GAS  C:\Users\DJESSOU\AppData\Local\Temp\cc3eovRL.s 			page 108


 3555 0016 064B     		ldr	r3, .L263
 3556 0018 064A     		ldr	r2, .L263+4
 3557 001a 0748     		ldr	r0, .L263+8
 3558              	.LVL291:
 3559              		.loc 1 1687 3 discriminator 1 view .LVU1037
 3560 001c FFF7FEFF 		bl	__assert_func
 3561              	.LVL292:
 3562              	.L259:
1688:Lib/Camera_Middleware/sensors/vd1943/vd1943.c ****   ret = drv_vd1943_ctx->set_digital_gain(ctx, gain);
 3563              		.loc 1 1688 3 is_stmt 1 view .LVU1038
 3564              		.loc 1 1688 9 is_stmt 0 view .LVU1039
 3565 0020 9847     		blx	r3
 3566              	.LVL293:
1689:Lib/Camera_Middleware/sensors/vd1943/vd1943.c ****   if (ret)
 3567              		.loc 1 1689 3 is_stmt 1 view .LVU1040
 3568              		.loc 1 1689 6 is_stmt 0 view .LVU1041
 3569 0022 00B9     		cbnz	r0, .L257
1690:Lib/Camera_Middleware/sensors/vd1943/vd1943.c ****     return ret;
1691:Lib/Camera_Middleware/sensors/vd1943/vd1943.c ****   ctx->ctx.digital_gain = gain;
 3570              		.loc 1 1691 3 is_stmt 1 view .LVU1042
 3571              		.loc 1 1691 25 is_stmt 0 view .LVU1043
 3572 0024 6563     		str	r5, [r4, #52]
1692:Lib/Camera_Middleware/sensors/vd1943/vd1943.c **** 
1693:Lib/Camera_Middleware/sensors/vd1943/vd1943.c ****   return 0;
 3573              		.loc 1 1693 3 is_stmt 1 view .LVU1044
 3574              	.LVL294:
 3575              	.L257:
1694:Lib/Camera_Middleware/sensors/vd1943/vd1943.c **** }
 3576              		.loc 1 1694 1 is_stmt 0 view .LVU1045
 3577 0026 38BD     		pop	{r3, r4, r5, pc}
 3578              	.LVL295:
 3579              	.L262:
1685:Lib/Camera_Middleware/sensors/vd1943/vd1943.c **** 
 3580              		.loc 1 1685 12 view .LVU1046
 3581 0028 4FF0FF30 		mov	r0, #-1
 3582              	.LVL296:
1685:Lib/Camera_Middleware/sensors/vd1943/vd1943.c **** 
 3583              		.loc 1 1685 12 view .LVU1047
 3584 002c FBE7     		b	.L257
 3585              	.L264:
 3586 002e 00BF     		.align	2
 3587              	.L263:
 3588 0030 00000000 		.word	.LC21
 3589 0034 00000000 		.word	__func__.2
 3590 0038 09000000 		.word	.LC2
 3591              		.cfi_endproc
 3592              	.LFE53:
 3594              		.section	.text.VD1943_GetDigitalGain,"ax",%progbits
 3595              		.align	1
 3596              		.global	VD1943_GetDigitalGain
 3597              		.syntax unified
 3598              		.thumb
 3599              		.thumb_func
 3601              	VD1943_GetDigitalGain:
 3602              	.LVL297:
 3603              	.LFB54:
1695:Lib/Camera_Middleware/sensors/vd1943/vd1943.c **** 
ARM GAS  C:\Users\DJESSOU\AppData\Local\Temp\cc3eovRL.s 			page 109


1696:Lib/Camera_Middleware/sensors/vd1943/vd1943.c **** int VD1943_GetDigitalGain(VD1943_Ctx_t *ctx, unsigned int *gain)
1697:Lib/Camera_Middleware/sensors/vd1943/vd1943.c **** {
 3604              		.loc 1 1697 1 is_stmt 1 view -0
 3605              		.cfi_startproc
 3606              		@ args = 0, pretend = 0, frame = 0
 3607              		@ frame_needed = 0, uses_anonymous_args = 0
 3608              		@ link register save eliminated.
1698:Lib/Camera_Middleware/sensors/vd1943/vd1943.c ****   return ctx->ctx.digital_gain;
 3609              		.loc 1 1698 3 view .LVU1049
1699:Lib/Camera_Middleware/sensors/vd1943/vd1943.c **** }
 3610              		.loc 1 1699 1 is_stmt 0 view .LVU1050
 3611 0000 406B     		ldr	r0, [r0, #52]
 3612              	.LVL298:
 3613              		.loc 1 1699 1 view .LVU1051
 3614 0002 7047     		bx	lr
 3615              		.cfi_endproc
 3616              	.LFE54:
 3618              		.section	.rodata.VD1943_SetExpo.str1.1,"aMS",%progbits,1
 3619              	.LC22:
 3620 0000 6472765F 		.ascii	"drv_vd1943_ctx->set_expo\000"
 3620      76643139 
 3620      34335F63 
 3620      74782D3E 
 3620      7365745F 
 3621              		.section	.text.VD1943_SetExpo,"ax",%progbits
 3622              		.align	1
 3623              		.global	VD1943_SetExpo
 3624              		.syntax unified
 3625              		.thumb
 3626              		.thumb_func
 3628              	VD1943_SetExpo:
 3629              	.LVL299:
 3630              	.LFB55:
1700:Lib/Camera_Middleware/sensors/vd1943/vd1943.c **** 
1701:Lib/Camera_Middleware/sensors/vd1943/vd1943.c **** int VD1943_SetExpo(VD1943_Ctx_t *ctx, unsigned int expo_in_us)
1702:Lib/Camera_Middleware/sensors/vd1943/vd1943.c **** {
 3631              		.loc 1 1702 1 is_stmt 1 view -0
 3632              		.cfi_startproc
 3633              		@ args = 0, pretend = 0, frame = 0
 3634              		@ frame_needed = 0, uses_anonymous_args = 0
1703:Lib/Camera_Middleware/sensors/vd1943/vd1943.c ****   struct drv_vd1943_ctx *drv_vd1943_ctx = &ctx->ctx;
 3635              		.loc 1 1703 3 view .LVU1053
1704:Lib/Camera_Middleware/sensors/vd1943/vd1943.c **** 
1705:Lib/Camera_Middleware/sensors/vd1943/vd1943.c ****   assert(drv_vd1943_ctx->set_expo);
 3636              		.loc 1 1705 3 view .LVU1054
 3637 0000 D0F88430 		ldr	r3, [r0, #132]
1702:Lib/Camera_Middleware/sensors/vd1943/vd1943.c ****   struct drv_vd1943_ctx *drv_vd1943_ctx = &ctx->ctx;
 3638              		.loc 1 1702 1 is_stmt 0 view .LVU1055
 3639 0004 10B5     		push	{r4, lr}
 3640              		.cfi_def_cfa_offset 8
 3641              		.cfi_offset 4, -8
 3642              		.cfi_offset 14, -4
 3643              		.loc 1 1705 3 view .LVU1056
 3644 0006 33B9     		cbnz	r3, .L267
 3645              		.loc 1 1705 3 discriminator 1 view .LVU1057
 3646 0008 40F2A961 		movw	r1, #1705
 3647              	.LVL300:
ARM GAS  C:\Users\DJESSOU\AppData\Local\Temp\cc3eovRL.s 			page 110


 3648              		.loc 1 1705 3 discriminator 1 view .LVU1058
 3649 000c 034B     		ldr	r3, .L268
 3650 000e 044A     		ldr	r2, .L268+4
 3651 0010 0448     		ldr	r0, .L268+8
 3652              	.LVL301:
 3653              		.loc 1 1705 3 discriminator 1 view .LVU1059
 3654 0012 FFF7FEFF 		bl	__assert_func
 3655              	.LVL302:
 3656              	.L267:
1706:Lib/Camera_Middleware/sensors/vd1943/vd1943.c ****   return drv_vd1943_ctx->set_expo(ctx, expo_in_us);
 3657              		.loc 1 1706 3 is_stmt 1 view .LVU1060
1707:Lib/Camera_Middleware/sensors/vd1943/vd1943.c **** }
 3658              		.loc 1 1707 1 is_stmt 0 view .LVU1061
 3659 0016 BDE81040 		pop	{r4, lr}
 3660              		.cfi_restore 14
 3661              		.cfi_restore 4
 3662              		.cfi_def_cfa_offset 0
1706:Lib/Camera_Middleware/sensors/vd1943/vd1943.c ****   return drv_vd1943_ctx->set_expo(ctx, expo_in_us);
 3663              		.loc 1 1706 10 view .LVU1062
 3664 001a 1847     		bx	r3
 3665              	.LVL303:
 3666              	.L269:
1706:Lib/Camera_Middleware/sensors/vd1943/vd1943.c ****   return drv_vd1943_ctx->set_expo(ctx, expo_in_us);
 3667              		.loc 1 1706 10 view .LVU1063
 3668              		.align	2
 3669              	.L268:
 3670 001c 00000000 		.word	.LC22
 3671 0020 00000000 		.word	__func__.1
 3672 0024 09000000 		.word	.LC2
 3673              		.cfi_endproc
 3674              	.LFE55:
 3676              		.section	.rodata.VD1943_GetExpo.str1.1,"aMS",%progbits,1
 3677              	.LC23:
 3678 0000 6472765F 		.ascii	"drv_vd1943_ctx->get_expo\000"
 3678      76643139 
 3678      34335F63 
 3678      74782D3E 
 3678      6765745F 
 3679              		.section	.text.VD1943_GetExpo,"ax",%progbits
 3680              		.align	1
 3681              		.global	VD1943_GetExpo
 3682              		.syntax unified
 3683              		.thumb
 3684              		.thumb_func
 3686              	VD1943_GetExpo:
 3687              	.LVL304:
 3688              	.LFB56:
1708:Lib/Camera_Middleware/sensors/vd1943/vd1943.c **** 
1709:Lib/Camera_Middleware/sensors/vd1943/vd1943.c **** int VD1943_GetExpo(VD1943_Ctx_t *ctx, unsigned int *expo_in_us)
1710:Lib/Camera_Middleware/sensors/vd1943/vd1943.c **** {
 3689              		.loc 1 1710 1 is_stmt 1 view -0
 3690              		.cfi_startproc
 3691              		@ args = 0, pretend = 0, frame = 0
 3692              		@ frame_needed = 0, uses_anonymous_args = 0
1711:Lib/Camera_Middleware/sensors/vd1943/vd1943.c ****   struct drv_vd1943_ctx *drv_vd1943_ctx = &ctx->ctx;
 3693              		.loc 1 1711 3 view .LVU1065
1712:Lib/Camera_Middleware/sensors/vd1943/vd1943.c **** 
ARM GAS  C:\Users\DJESSOU\AppData\Local\Temp\cc3eovRL.s 			page 111


1713:Lib/Camera_Middleware/sensors/vd1943/vd1943.c ****   assert(drv_vd1943_ctx->get_expo);
 3694              		.loc 1 1713 3 view .LVU1066
 3695 0000 D0F88830 		ldr	r3, [r0, #136]
1710:Lib/Camera_Middleware/sensors/vd1943/vd1943.c ****   struct drv_vd1943_ctx *drv_vd1943_ctx = &ctx->ctx;
 3696              		.loc 1 1710 1 is_stmt 0 view .LVU1067
 3697 0004 10B5     		push	{r4, lr}
 3698              		.cfi_def_cfa_offset 8
 3699              		.cfi_offset 4, -8
 3700              		.cfi_offset 14, -4
 3701              		.loc 1 1713 3 view .LVU1068
 3702 0006 33B9     		cbnz	r3, .L271
 3703              		.loc 1 1713 3 discriminator 1 view .LVU1069
 3704 0008 40F2B161 		movw	r1, #1713
 3705              	.LVL305:
 3706              		.loc 1 1713 3 discriminator 1 view .LVU1070
 3707 000c 034B     		ldr	r3, .L272
 3708 000e 044A     		ldr	r2, .L272+4
 3709 0010 0448     		ldr	r0, .L272+8
 3710              	.LVL306:
 3711              		.loc 1 1713 3 discriminator 1 view .LVU1071
 3712 0012 FFF7FEFF 		bl	__assert_func
 3713              	.LVL307:
 3714              	.L271:
1714:Lib/Camera_Middleware/sensors/vd1943/vd1943.c ****   return drv_vd1943_ctx->get_expo(ctx, expo_in_us);
 3715              		.loc 1 1714 3 is_stmt 1 view .LVU1072
1715:Lib/Camera_Middleware/sensors/vd1943/vd1943.c **** }
 3716              		.loc 1 1715 1 is_stmt 0 view .LVU1073
 3717 0016 BDE81040 		pop	{r4, lr}
 3718              		.cfi_restore 14
 3719              		.cfi_restore 4
 3720              		.cfi_def_cfa_offset 0
1714:Lib/Camera_Middleware/sensors/vd1943/vd1943.c ****   return drv_vd1943_ctx->get_expo(ctx, expo_in_us);
 3721              		.loc 1 1714 10 view .LVU1074
 3722 001a 1847     		bx	r3
 3723              	.LVL308:
 3724              	.L273:
1714:Lib/Camera_Middleware/sensors/vd1943/vd1943.c ****   return drv_vd1943_ctx->get_expo(ctx, expo_in_us);
 3725              		.loc 1 1714 10 view .LVU1075
 3726              		.align	2
 3727              	.L272:
 3728 001c 00000000 		.word	.LC23
 3729 0020 00000000 		.word	__func__.0
 3730 0024 09000000 		.word	.LC2
 3731              		.cfi_endproc
 3732              	.LFE56:
 3734              		.section	.text.VD1943_GetPixelDepth,"ax",%progbits
 3735              		.align	1
 3736              		.global	VD1943_GetPixelDepth
 3737              		.syntax unified
 3738              		.thumb
 3739              		.thumb_func
 3741              	VD1943_GetPixelDepth:
 3742              	.LVL309:
 3743              	.LFB57:
1716:Lib/Camera_Middleware/sensors/vd1943/vd1943.c **** 
1717:Lib/Camera_Middleware/sensors/vd1943/vd1943.c **** int VD1943_GetPixelDepth(VD1943_Ctx_t *ctx, unsigned int *pixel_depth)
1718:Lib/Camera_Middleware/sensors/vd1943/vd1943.c **** {
ARM GAS  C:\Users\DJESSOU\AppData\Local\Temp\cc3eovRL.s 			page 112


 3744              		.loc 1 1718 1 is_stmt 1 view -0
 3745              		.cfi_startproc
 3746              		@ args = 0, pretend = 0, frame = 0
 3747              		@ frame_needed = 0, uses_anonymous_args = 0
 3748              		@ link register save eliminated.
1719:Lib/Camera_Middleware/sensors/vd1943/vd1943.c ****   switch (ctx->ctx.config_save.image_processing_mode) {
 3749              		.loc 1 1719 3 view .LVU1077
 3750              		.loc 1 1719 31 is_stmt 0 view .LVU1078
 3751 0000 90F84430 		ldrb	r3, [r0, #68]	@ zero_extendqisi2
 3752              		.loc 1 1719 3 view .LVU1079
 3753 0004 042B     		cmp	r3, #4
 3754 0006 0AD8     		bhi	.L275
 3755 0008 13B9     		cbnz	r3, .L276
 3756              	.L284:
 3757 000a 4FF0FF30 		mov	r0, #-1
 3758              	.LVL310:
1720:Lib/Camera_Middleware/sensors/vd1943/vd1943.c ****   case VD1943_GS_SS1_NATIVE_8:
1721:Lib/Camera_Middleware/sensors/vd1943/vd1943.c ****   case VD1943_GS_SS1_SPLIT_NATIVE_8:
1722:Lib/Camera_Middleware/sensors/vd1943/vd1943.c ****   case VD1943_GS_SS1_RGB_8:
1723:Lib/Camera_Middleware/sensors/vd1943/vd1943.c ****   case VD1943_GS_SS1_IR_8:
1724:Lib/Camera_Middleware/sensors/vd1943/vd1943.c ****   case VD1943_GS_SS1_SPLIT_IR_8:
1725:Lib/Camera_Middleware/sensors/vd1943/vd1943.c ****   case VD1943_GS_SS2_MONO_8:
1726:Lib/Camera_Middleware/sensors/vd1943/vd1943.c ****   case VD1943_GS_SS4_MONO_8:
1727:Lib/Camera_Middleware/sensors/vd1943/vd1943.c ****   case VD1943_GS_SS32_MONO_8:
1728:Lib/Camera_Middleware/sensors/vd1943/vd1943.c ****   case VD1943_RS_SDR_NATIVE_8:
1729:Lib/Camera_Middleware/sensors/vd1943/vd1943.c ****   case VD1943_RS_SDR_RGB_8:
1730:Lib/Camera_Middleware/sensors/vd1943/vd1943.c ****     *pixel_depth = 8;
1731:Lib/Camera_Middleware/sensors/vd1943/vd1943.c ****     break;
1732:Lib/Camera_Middleware/sensors/vd1943/vd1943.c ****   case VD1943_GS_SS1_NATIVE_10:
1733:Lib/Camera_Middleware/sensors/vd1943/vd1943.c ****   case VD1943_GS_SS1_SPLIT_NATIVE_10:
1734:Lib/Camera_Middleware/sensors/vd1943/vd1943.c ****   case VD1943_GS_SS1_RGB_10:
1735:Lib/Camera_Middleware/sensors/vd1943/vd1943.c ****   case VD1943_GS_SS1_IR_10:
1736:Lib/Camera_Middleware/sensors/vd1943/vd1943.c ****   case VD1943_GS_SS1_SPLIT_IR_10:
1737:Lib/Camera_Middleware/sensors/vd1943/vd1943.c ****   case VD1943_GS_SS2_MONO_10:
1738:Lib/Camera_Middleware/sensors/vd1943/vd1943.c ****   case VD1943_GS_SS4_MONO_10:
1739:Lib/Camera_Middleware/sensors/vd1943/vd1943.c ****   case VD1943_GS_SS32_MONO_10:
1740:Lib/Camera_Middleware/sensors/vd1943/vd1943.c ****   case VD1943_RS_SDR_NATIVE_10:
1741:Lib/Camera_Middleware/sensors/vd1943/vd1943.c ****   case VD1943_RS_SDR_RGB_10:
1742:Lib/Camera_Middleware/sensors/vd1943/vd1943.c ****   case VD1943_RS_HDR_NATIVE_10:
1743:Lib/Camera_Middleware/sensors/vd1943/vd1943.c ****   case VD1943_RS_HDR_RGB_10:
1744:Lib/Camera_Middleware/sensors/vd1943/vd1943.c ****     *pixel_depth = 10;
1745:Lib/Camera_Middleware/sensors/vd1943/vd1943.c ****     break;
1746:Lib/Camera_Middleware/sensors/vd1943/vd1943.c ****   case VD1943_RS_SDR_NATIVE_12:
1747:Lib/Camera_Middleware/sensors/vd1943/vd1943.c ****   case VD1943_RS_SDR_RGB_12:
1748:Lib/Camera_Middleware/sensors/vd1943/vd1943.c ****   case VD1943_RS_HDR_NATIVE_12:
1749:Lib/Camera_Middleware/sensors/vd1943/vd1943.c ****   case VD1943_RS_HDR_RGB_12:
1750:Lib/Camera_Middleware/sensors/vd1943/vd1943.c ****     *pixel_depth = 12;
1751:Lib/Camera_Middleware/sensors/vd1943/vd1943.c ****     break;
1752:Lib/Camera_Middleware/sensors/vd1943/vd1943.c ****   default:
1753:Lib/Camera_Middleware/sensors/vd1943/vd1943.c ****     return -1;
1754:Lib/Camera_Middleware/sensors/vd1943/vd1943.c ****   }
1755:Lib/Camera_Middleware/sensors/vd1943/vd1943.c **** 
1756:Lib/Camera_Middleware/sensors/vd1943/vd1943.c ****   return 0;
1757:Lib/Camera_Middleware/sensors/vd1943/vd1943.c **** }
 3759              		.loc 1 1757 1 view .LVU1080
 3760 000e 7047     		bx	lr
 3761              	.LVL311:
ARM GAS  C:\Users\DJESSOU\AppData\Local\Temp\cc3eovRL.s 			page 113


 3762              	.L276:
1719:Lib/Camera_Middleware/sensors/vd1943/vd1943.c ****   switch (ctx->ctx.config_save.image_processing_mode) {
 3763              		.loc 1 1719 3 view .LVU1081
 3764 0010 023B     		subs	r3, r3, #2
 3765 0012 022B     		cmp	r3, #2
 3766 0014 15D8     		bhi	.L279
 3767 0016 DFE803F0 		tbb	[pc, r3]
 3768              	.L281:
 3769 001a 18       		.byte	(.L278-.L281)/2
 3770 001b 14       		.byte	(.L279-.L281)/2
 3771 001c 18       		.byte	(.L278-.L281)/2
 3772 001d 00       		.p2align 1
 3773              	.L275:
 3774 001e 053B     		subs	r3, r3, #5
 3775 0020 DBB2     		uxtb	r3, r3
 3776 0022 1E2B     		cmp	r3, #30
 3777 0024 F1D8     		bhi	.L284
 3778 0026 0122     		movs	r2, #1
 3779 0028 02FA03F3 		lsl	r3, r2, r3
 3780 002c 084A     		ldr	r2, .L289
 3781 002e 1A40     		ands	r2, r2, r3
 3782 0030 5AB9     		cbnz	r2, .L278
 3783 0032 084A     		ldr	r2, .L289+4
 3784 0034 1A40     		ands	r2, r2, r3
 3785 0036 22B9     		cbnz	r2, .L279
 3786 0038 13F0A94F 		tst	r3, #1417674752
 3787 003c E5D0     		beq	.L284
1750:Lib/Camera_Middleware/sensors/vd1943/vd1943.c ****     break;
 3788              		.loc 1 1750 5 is_stmt 1 view .LVU1082
1750:Lib/Camera_Middleware/sensors/vd1943/vd1943.c ****     break;
 3789              		.loc 1 1750 18 is_stmt 0 view .LVU1083
 3790 003e 0C23     		movs	r3, #12
 3791 0040 00E0     		b	.L288
 3792              	.L279:
1730:Lib/Camera_Middleware/sensors/vd1943/vd1943.c ****     break;
 3793              		.loc 1 1730 5 is_stmt 1 view .LVU1084
1730:Lib/Camera_Middleware/sensors/vd1943/vd1943.c ****     break;
 3794              		.loc 1 1730 18 is_stmt 0 view .LVU1085
 3795 0042 0823     		movs	r3, #8
 3796              	.L288:
1756:Lib/Camera_Middleware/sensors/vd1943/vd1943.c **** }
 3797              		.loc 1 1756 10 view .LVU1086
 3798 0044 0020     		movs	r0, #0
 3799              	.LVL312:
1730:Lib/Camera_Middleware/sensors/vd1943/vd1943.c ****     break;
 3800              		.loc 1 1730 18 view .LVU1087
 3801 0046 0B60     		str	r3, [r1]
1731:Lib/Camera_Middleware/sensors/vd1943/vd1943.c ****   case VD1943_GS_SS1_NATIVE_10:
 3802              		.loc 1 1731 5 is_stmt 1 view .LVU1088
 3803 0048 7047     		bx	lr
 3804              	.LVL313:
 3805              	.L278:
1744:Lib/Camera_Middleware/sensors/vd1943/vd1943.c ****     break;
 3806              		.loc 1 1744 5 view .LVU1089
1744:Lib/Camera_Middleware/sensors/vd1943/vd1943.c ****     break;
 3807              		.loc 1 1744 18 is_stmt 0 view .LVU1090
 3808 004a 0A23     		movs	r3, #10
ARM GAS  C:\Users\DJESSOU\AppData\Local\Temp\cc3eovRL.s 			page 114


 3809 004c FAE7     		b	.L288
 3810              	.L290:
 3811 004e 00BF     		.align	2
 3812              	.L289:
 3813 0050 A22A402A 		.word	708848290
 3814 0054 51152001 		.word	18879825
 3815              		.cfi_endproc
 3816              	.LFE57:
 3818              		.section	.rodata.VD1943_Start.str1.1,"aMS",%progbits,1
 3819              	.LC24:
 3820 0000 72656374 		.ascii	"rect->left % 4 == 0\000"
 3820      2D3E6C65 
 3820      66742025 
 3820      2034203D 
 3820      3D203000 
 3821              	.LC25:
 3822 0014 72656374 		.ascii	"rect->top % 4 == 0\000"
 3822      2D3E746F 
 3822      70202520 
 3822      34203D3D 
 3822      203000
 3823              	.LC26:
 3824 0027 72656374 		.ascii	"rect->width % 4 == 0\000"
 3824      2D3E7769 
 3824      64746820 
 3824      25203420 
 3824      3D3D2030 
 3825              	.LC27:
 3826 003c 72656374 		.ascii	"rect->height % 4 == 0\000"
 3826      2D3E6865 
 3826      69676874 
 3826      20252034 
 3826      203D3D20 
 3827              	.LC28:
 3828 0052 56443139 		.ascii	"VD1943_DG%d-%d : system pll clock = %d hz\012\000"
 3828      34335F44 
 3828      4725642D 
 3828      2564203A 
 3828      20737973 
 3829              		.global	__aeabi_uldivmod
 3830              		.global	__aeabi_ldivmod
 3831              	.LC29:
 3832 007d 56443139 		.ascii	"VD1943_DG%d-%d : line_length = %d\012\000"
 3832      34335F44 
 3832      4725642D 
 3832      2564203A 
 3832      206C696E 
 3833              	.LC30:
 3834 00a0 56443139 		.ascii	"VD1943_DG%d-%d : Set frame_length to %d to reach %d"
 3834      34335F44 
 3834      4725642D 
 3834      2564203A 
 3834      20536574 
 3835 00d3 20667073 		.ascii	" fps\012\000"
 3835      0A00
 3836              		.section	.text.VD1943_Start,"ax",%progbits
 3837              		.align	1
ARM GAS  C:\Users\DJESSOU\AppData\Local\Temp\cc3eovRL.s 			page 115


 3838              		.global	VD1943_Start
 3839              		.syntax unified
 3840              		.thumb
 3841              		.thumb_func
 3843              	VD1943_Start:
 3844              	.LVL314:
 3845              	.LFB48:
1604:Lib/Camera_Middleware/sensors/vd1943/vd1943.c ****   struct drv_vd1943_ctx *drv_vd1943_ctx = &ctx->ctx;
 3846              		.loc 1 1604 1 is_stmt 1 view -0
 3847              		.cfi_startproc
 3848              		@ args = 0, pretend = 0, frame = 8
 3849              		@ frame_needed = 0, uses_anonymous_args = 0
1605:Lib/Camera_Middleware/sensors/vd1943/vd1943.c ****   int ret;
 3850              		.loc 1 1605 3 view .LVU1092
1606:Lib/Camera_Middleware/sensors/vd1943/vd1943.c **** 
 3851              		.loc 1 1606 3 view .LVU1093
1608:Lib/Camera_Middleware/sensors/vd1943/vd1943.c ****     return -1;
 3852              		.loc 1 1608 3 view .LVU1094
1604:Lib/Camera_Middleware/sensors/vd1943/vd1943.c ****   struct drv_vd1943_ctx *drv_vd1943_ctx = &ctx->ctx;
 3853              		.loc 1 1604 1 is_stmt 0 view .LVU1095
 3854 0000 2DE9F047 		push	{r4, r5, r6, r7, r8, r9, r10, lr}
 3855              		.cfi_def_cfa_offset 32
 3856              		.cfi_offset 4, -32
 3857              		.cfi_offset 5, -28
 3858              		.cfi_offset 6, -24
 3859              		.cfi_offset 7, -20
 3860              		.cfi_offset 8, -16
 3861              		.cfi_offset 9, -12
 3862              		.cfi_offset 10, -8
 3863              		.cfi_offset 14, -4
1608:Lib/Camera_Middleware/sensors/vd1943/vd1943.c ****     return -1;
 3864              		.loc 1 1608 6 view .LVU1096
 3865 0004 C66A     		ldr	r6, [r0, #44]
1604:Lib/Camera_Middleware/sensors/vd1943/vd1943.c ****   struct drv_vd1943_ctx *drv_vd1943_ctx = &ctx->ctx;
 3866              		.loc 1 1604 1 view .LVU1097
 3867 0006 0546     		mov	r5, r0
 3868 0008 86B0     		sub	sp, sp, #24
 3869              		.cfi_def_cfa_offset 56
1608:Lib/Camera_Middleware/sensors/vd1943/vd1943.c ****     return -1;
 3870              		.loc 1 1608 6 view .LVU1098
 3871 000a 2EB1     		cbz	r6, .L292
 3872              	.LVL315:
 3873              	.L370:
 3874              	.LBB142:
 3875              	.LBB143:
 3876              	.LBB144:
 3877              	.LBB145:
 3878              	.LBB146:
 3879              	.LBB147:
 938:Lib/Camera_Middleware/sensors/vd1943/vd1943.c ****   {
 3880              		.loc 1 938 3 view .LVU1099
 3881 000c 4FF0FF34 		mov	r4, #-1
 3882              	.LVL316:
 938:Lib/Camera_Middleware/sensors/vd1943/vd1943.c ****   {
 3883              		.loc 1 938 3 view .LVU1100
 3884              	.LBE147:
 3885              	.LBE146:
ARM GAS  C:\Users\DJESSOU\AppData\Local\Temp\cc3eovRL.s 			page 116


 3886              	.LBE145:
 3887              	.LBE144:
1287:Lib/Camera_Middleware/sensors/vd1943/vd1943.c ****     return ret;
 3888              		.loc 1 1287 3 is_stmt 1 view .LVU1101
 3889              	.L291:
1287:Lib/Camera_Middleware/sensors/vd1943/vd1943.c ****     return ret;
 3890              		.loc 1 1287 3 is_stmt 0 view .LVU1102
 3891              	.LBE143:
 3892              	.LBE142:
1625:Lib/Camera_Middleware/sensors/vd1943/vd1943.c **** 
 3893              		.loc 1 1625 1 view .LVU1103
 3894 0010 2046     		mov	r0, r4
 3895 0012 06B0     		add	sp, sp, #24
 3896              		.cfi_remember_state
 3897              		.cfi_def_cfa_offset 32
 3898              		@ sp needed
 3899 0014 BDE8F087 		pop	{r4, r5, r6, r7, r8, r9, r10, pc}
 3900              	.LVL317:
 3901              	.L292:
 3902              		.cfi_restore_state
1611:Lib/Camera_Middleware/sensors/vd1943/vd1943.c ****   if (ret)
 3903              		.loc 1 1611 3 is_stmt 1 view .LVU1104
 3904              	.LBB216:
 3905              	.LBI142:
1274:Lib/Camera_Middleware/sensors/vd1943/vd1943.c **** {
 3906              		.loc 1 1274 12 view .LVU1105
 3907              	.LBB214:
1276:Lib/Camera_Middleware/sensors/vd1943/vd1943.c **** 
 3908              		.loc 1 1276 3 view .LVU1106
1278:Lib/Camera_Middleware/sensors/vd1943/vd1943.c ****   if (ret)
 3909              		.loc 1 1278 3 view .LVU1107
 3910              	.LBB155:
 3911              	.LBI155:
 851:Lib/Camera_Middleware/sensors/vd1943/vd1943.c **** {
 3912              		.loc 1 851 12 view .LVU1108
 3913              	.LBB156:
 853:Lib/Camera_Middleware/sensors/vd1943/vd1943.c ****   int ret;
 3914              		.loc 1 853 3 view .LVU1109
 854:Lib/Camera_Middleware/sensors/vd1943/vd1943.c **** 
 3915              		.loc 1 854 3 view .LVU1110
 857:Lib/Camera_Middleware/sensors/vd1943/vd1943.c ****   VD1943_TraceError(ctx, ret);
 3916              		.loc 1 857 3 view .LVU1111
 857:Lib/Camera_Middleware/sensors/vd1943/vd1943.c ****   VD1943_TraceError(ctx, ret);
 3917              		.loc 1 857 9 is_stmt 0 view .LVU1112
 3918 0018 4FF43461 		mov	r1, #2880
 3919 001c 8369     		ldr	r3, [r0, #24]
 3920 001e 90F84420 		ldrb	r2, [r0, #68]	@ zero_extendqisi2
 3921 0022 9847     		blx	r3
 3922              	.LVL318:
 858:Lib/Camera_Middleware/sensors/vd1943/vd1943.c **** 
 3923              		.loc 1 858 3 is_stmt 1 view .LVU1113
 858:Lib/Camera_Middleware/sensors/vd1943/vd1943.c **** 
 3924              		.loc 1 858 3 view .LVU1114
 3925 0024 0446     		mov	r4, r0
 3926 0026 D0B9     		cbnz	r0, .L294
 858:Lib/Camera_Middleware/sensors/vd1943/vd1943.c **** 
 3927              		.loc 1 858 3 discriminator 6 view .LVU1115
ARM GAS  C:\Users\DJESSOU\AppData\Local\Temp\cc3eovRL.s 			page 117


 858:Lib/Camera_Middleware/sensors/vd1943/vd1943.c **** 
 3928              		.loc 1 858 3 discriminator 8 view .LVU1116
 863:Lib/Camera_Middleware/sensors/vd1943/vd1943.c ****       ctx->bayer == VD1943_BAYER_BGGR || ctx->bayer == VD1943_BAYER_GBRG)
 3929              		.loc 1 863 3 view .LVU1117
 863:Lib/Camera_Middleware/sensors/vd1943/vd1943.c ****       ctx->bayer == VD1943_BAYER_BGGR || ctx->bayer == VD1943_BAYER_GBRG)
 3930              		.loc 1 863 10 is_stmt 0 view .LVU1118
 3931 0028 95F82820 		ldrb	r2, [r5, #40]	@ zero_extendqisi2
 868:Lib/Camera_Middleware/sensors/vd1943/vd1943.c ****   }
 3932              		.loc 1 868 14 view .LVU1119
 3933 002c 2B69     		ldr	r3, [r5, #16]
 863:Lib/Camera_Middleware/sensors/vd1943/vd1943.c ****       ctx->bayer == VD1943_BAYER_BGGR || ctx->bayer == VD1943_BAYER_GBRG)
 3934              		.loc 1 863 6 view .LVU1120
 3935 002e D11E     		subs	r1, r2, #3
 3936 0030 0129     		cmp	r1, #1
 3937 0032 23D8     		bhi	.L378
 3938              	.L295:
 866:Lib/Camera_Middleware/sensors/vd1943/vd1943.c ****   } else {
 3939              		.loc 1 866 5 is_stmt 1 view .LVU1121
 866:Lib/Camera_Middleware/sensors/vd1943/vd1943.c ****   } else {
 3940              		.loc 1 866 11 is_stmt 0 view .LVU1122
 3941 0034 0222     		movs	r2, #2
 3942              	.L388:
 868:Lib/Camera_Middleware/sensors/vd1943/vd1943.c ****   }
 3943              		.loc 1 868 11 view .LVU1123
 3944 0036 40F6ED21 		movw	r1, #2797
 3945 003a 2846     		mov	r0, r5
 3946              	.LVL319:
 868:Lib/Camera_Middleware/sensors/vd1943/vd1943.c ****   }
 3947              		.loc 1 868 11 view .LVU1124
 3948 003c 9847     		blx	r3
 3949              	.LVL320:
 3950 003e 0446     		mov	r4, r0
 3951              	.LVL321:
 870:Lib/Camera_Middleware/sensors/vd1943/vd1943.c **** 
 3952              		.loc 1 870 3 is_stmt 1 view .LVU1125
 870:Lib/Camera_Middleware/sensors/vd1943/vd1943.c **** 
 3953              		.loc 1 870 3 view .LVU1126
 3954 0040 58BB     		cbnz	r0, .L299
 870:Lib/Camera_Middleware/sensors/vd1943/vd1943.c **** 
 3955              		.loc 1 870 3 discriminator 3 view .LVU1127
 870:Lib/Camera_Middleware/sensors/vd1943/vd1943.c **** 
 3956              		.loc 1 870 3 discriminator 3 view .LVU1128
 870:Lib/Camera_Middleware/sensors/vd1943/vd1943.c **** 
 3957              		.loc 1 870 3 discriminator 6 view .LVU1129
 870:Lib/Camera_Middleware/sensors/vd1943/vd1943.c **** 
 3958              		.loc 1 870 3 discriminator 8 view .LVU1130
 874:Lib/Camera_Middleware/sensors/vd1943/vd1943.c ****   VD1943_TraceError(ctx, ret);
 3959              		.loc 1 874 3 view .LVU1131
 3960 0042 EB6C     		ldr	r3, [r5, #76]
 3961              	.LBB157:
 3962              	.LBI157:
 769:Lib/Camera_Middleware/sensors/vd1943/vd1943.c **** {
 3963              		.loc 1 769 16 view .LVU1132
 3964              	.LVL322:
 3965              	.LBB158:
 771:Lib/Camera_Middleware/sensors/vd1943/vd1943.c ****   case 2:
 3966              		.loc 1 771 3 view .LVU1133
ARM GAS  C:\Users\DJESSOU\AppData\Local\Temp\cc3eovRL.s 			page 118


 3967              	.LBE158:
 3968              	.LBE157:
 874:Lib/Camera_Middleware/sensors/vd1943/vd1943.c ****   VD1943_TraceError(ctx, ret);
 3969              		.loc 1 874 12 is_stmt 0 view .LVU1134
 3970 0044 2E69     		ldr	r6, [r5, #16]
 3971              	.LBB161:
 3972              	.LBB159:
 771:Lib/Camera_Middleware/sensors/vd1943/vd1943.c ****   case 2:
 3973              		.loc 1 771 3 view .LVU1135
 3974 0046 022B     		cmp	r3, #2
 3975 0048 1CD0     		beq	.L359
 3976 004a 042B     		cmp	r3, #4
 3977 004c 0246     		mov	r2, r0
 3978 004e 1AD0     		beq	.L300
 777:Lib/Camera_Middleware/sensors/vd1943/vd1943.c ****   default:
 3979              		.loc 1 777 5 is_stmt 1 view .LVU1136
 779:Lib/Camera_Middleware/sensors/vd1943/vd1943.c ****   }
 3980              		.loc 1 779 5 view .LVU1137
 3981 0050 40F20B31 		movw	r1, #779
 3982 0054 9C4B     		ldr	r3, .L397
 3983 0056 9D4A     		ldr	r2, .L397+4
 3984              	.LVL323:
 3985              	.L392:
 779:Lib/Camera_Middleware/sensors/vd1943/vd1943.c ****   }
 3986              		.loc 1 779 5 is_stmt 0 view .LVU1138
 3987              	.LBE159:
 3988              	.LBE161:
 3989              	.LBB162:
 3990              	.LBB163:
 841:Lib/Camera_Middleware/sensors/vd1943/vd1943.c ****     return -1;
 3991              		.loc 1 841 5 view .LVU1139
 3992 0058 9D48     		ldr	r0, .L397+8
 3993 005a FFF7FEFF 		bl	__assert_func
 3994              	.LVL324:
 3995              	.L294:
 841:Lib/Camera_Middleware/sensors/vd1943/vd1943.c ****     return -1;
 3996              		.loc 1 841 5 view .LVU1140
 3997              	.LBE163:
 3998              	.LBE162:
 858:Lib/Camera_Middleware/sensors/vd1943/vd1943.c **** 
 3999              		.loc 1 858 3 is_stmt 1 discriminator 1 view .LVU1141
 858:Lib/Camera_Middleware/sensors/vd1943/vd1943.c **** 
 4000              		.loc 1 858 3 discriminator 1 view .LVU1142
 4001 005e 40F25A33 		movw	r3, #858
 4002 0062 0290     		str	r0, [sp, #8]
 4003              	.L393:
 870:Lib/Camera_Middleware/sensors/vd1943/vd1943.c **** 
 4004              		.loc 1 870 3 is_stmt 0 discriminator 1 view .LVU1143
 4005 0064 9B4A     		ldr	r2, .L397+12
 4006 0066 0193     		str	r3, [sp, #4]
 4007              	.LVL325:
 4008              	.L390:
 870:Lib/Camera_Middleware/sensors/vd1943/vd1943.c **** 
 4009              		.loc 1 870 3 discriminator 1 view .LVU1144
 4010              	.LBE156:
 4011              	.LBE155:
 4012              	.LBB178:
ARM GAS  C:\Users\DJESSOU\AppData\Local\Temp\cc3eovRL.s 			page 119


 4013              	.LBB179:
1269:Lib/Camera_Middleware/sensors/vd1943/vd1943.c **** 
 4014              		.loc 1 1269 3 discriminator 1 view .LVU1145
 4015 0068 2846     		mov	r0, r5
 4016 006a 0092     		str	r2, [sp]
 4017 006c 0021     		movs	r1, #0
 4018 006e 9A4A     		ldr	r2, .L397+16
 4019 0070 FFF7FEFF 		bl	VD1943_log_impl
 4020              	.LVL326:
1269:Lib/Camera_Middleware/sensors/vd1943/vd1943.c **** 
 4021              		.loc 1 1269 3 is_stmt 1 discriminator 3 view .LVU1146
1269:Lib/Camera_Middleware/sensors/vd1943/vd1943.c **** 
 4022              		.loc 1 1269 3 discriminator 3 view .LVU1147
1269:Lib/Camera_Middleware/sensors/vd1943/vd1943.c **** 
 4023              		.loc 1 1269 3 discriminator 4 view .LVU1148
 4024 0074 2846     		mov	r0, r5
 4025 0076 FFF7FEFF 		bl	display_error
 4026              	.LVL327:
1269:Lib/Camera_Middleware/sensors/vd1943/vd1943.c **** 
 4027              		.loc 1 1269 3 discriminator 6 view .LVU1149
1269:Lib/Camera_Middleware/sensors/vd1943/vd1943.c **** 
 4028              		.loc 1 1269 3 discriminator 7 view .LVU1150
1269:Lib/Camera_Middleware/sensors/vd1943/vd1943.c **** 
 4029              		.loc 1 1269 3 is_stmt 0 discriminator 7 view .LVU1151
 4030              	.LBE179:
 4031              	.LBE178:
 4032              	.LBE214:
 4033              	.LBE216:
1612:Lib/Camera_Middleware/sensors/vd1943/vd1943.c ****     return ret;
 4034              		.loc 1 1612 3 is_stmt 1 view .LVU1152
 4035 007a C9E7     		b	.L291
 4036              	.LVL328:
 4037              	.L378:
 4038              	.LBB217:
 4039              	.LBB215:
 4040              	.LBB182:
 4041              	.LBB177:
 863:Lib/Camera_Middleware/sensors/vd1943/vd1943.c ****       ctx->bayer == VD1943_BAYER_BGGR || ctx->bayer == VD1943_BAYER_GBRG)
 4042              		.loc 1 863 39 is_stmt 0 discriminator 1 view .LVU1153
 4043 007c 012A     		cmp	r2, #1
 4044 007e D9D0     		beq	.L295
 868:Lib/Camera_Middleware/sensors/vd1943/vd1943.c ****   }
 4045              		.loc 1 868 5 is_stmt 1 view .LVU1154
 868:Lib/Camera_Middleware/sensors/vd1943/vd1943.c ****   }
 4046              		.loc 1 868 11 is_stmt 0 view .LVU1155
 4047 0080 0246     		mov	r2, r0
 4048 0082 D8E7     		b	.L388
 4049              	.LVL329:
 4050              	.L359:
 4051              	.LBB165:
 4052              	.LBB160:
 773:Lib/Camera_Middleware/sensors/vd1943/vd1943.c ****     break;
 4053              		.loc 1 773 12 view .LVU1156
 4054 0084 0122     		movs	r2, #1
 4055              	.L300:
 4056              	.LVL330:
 773:Lib/Camera_Middleware/sensors/vd1943/vd1943.c ****     break;
ARM GAS  C:\Users\DJESSOU\AppData\Local\Temp\cc3eovRL.s 			page 120


 4057              		.loc 1 773 12 view .LVU1157
 4058              	.LBE160:
 4059              	.LBE165:
 874:Lib/Camera_Middleware/sensors/vd1943/vd1943.c ****   VD1943_TraceError(ctx, ret);
 4060              		.loc 1 874 9 discriminator 1 view .LVU1158
 4061 0086 40F24371 		movw	r1, #1859
 4062 008a 2846     		mov	r0, r5
 4063              	.LVL331:
 874:Lib/Camera_Middleware/sensors/vd1943/vd1943.c ****   VD1943_TraceError(ctx, ret);
 4064              		.loc 1 874 9 discriminator 1 view .LVU1159
 4065 008c B047     		blx	r6
 4066              	.LVL332:
 875:Lib/Camera_Middleware/sensors/vd1943/vd1943.c ****   /* logical / physical mapping */
 4067              		.loc 1 875 3 is_stmt 1 view .LVU1160
 875:Lib/Camera_Middleware/sensors/vd1943/vd1943.c ****   /* logical / physical mapping */
 4068              		.loc 1 875 3 view .LVU1161
 4069 008e 0446     		mov	r4, r0
 4070 0090 38B1     		cbz	r0, .L379
 875:Lib/Camera_Middleware/sensors/vd1943/vd1943.c ****   /* logical / physical mapping */
 4071              		.loc 1 875 3 discriminator 1 view .LVU1162
 875:Lib/Camera_Middleware/sensors/vd1943/vd1943.c ****   /* logical / physical mapping */
 4072              		.loc 1 875 3 discriminator 1 view .LVU1163
 4073 0092 40F26B33 		movw	r3, #875
 4074 0096 0290     		str	r0, [sp, #8]
 4075 0098 E4E7     		b	.L393
 4076              	.L299:
 870:Lib/Camera_Middleware/sensors/vd1943/vd1943.c **** 
 4077              		.loc 1 870 3 discriminator 1 view .LVU1164
 870:Lib/Camera_Middleware/sensors/vd1943/vd1943.c **** 
 4078              		.loc 1 870 3 discriminator 1 view .LVU1165
 4079 009a 40F26633 		movw	r3, #870
 4080 009e 0290     		str	r0, [sp, #8]
 4081 00a0 E0E7     		b	.L393
 4082              	.L379:
 875:Lib/Camera_Middleware/sensors/vd1943/vd1943.c ****   /* logical / physical mapping */
 4083              		.loc 1 875 3 discriminator 3 view .LVU1166
 875:Lib/Camera_Middleware/sensors/vd1943/vd1943.c ****   /* logical / physical mapping */
 4084              		.loc 1 875 3 discriminator 3 view .LVU1167
 875:Lib/Camera_Middleware/sensors/vd1943/vd1943.c ****   /* logical / physical mapping */
 4085              		.loc 1 875 3 discriminator 6 view .LVU1168
 875:Lib/Camera_Middleware/sensors/vd1943/vd1943.c ****   /* logical / physical mapping */
 4086              		.loc 1 875 3 discriminator 8 view .LVU1169
 877:Lib/Camera_Middleware/sensors/vd1943/vd1943.c ****   VD1943_TraceError(ctx, ret);
 4087              		.loc 1 877 3 view .LVU1170
 4088              	.LVL333:
 4089              	.LBB166:
 4090              	.LBI166:
 785:Lib/Camera_Middleware/sensors/vd1943/vd1943.c **** {
 4091              		.loc 1 785 16 view .LVU1171
 4092              	.LBB167:
 787:Lib/Camera_Middleware/sensors/vd1943/vd1943.c ****          (out_itf->logic_lane_mapping[1] << 2) |
 4093              		.loc 1 787 3 view .LVU1172
 788:Lib/Camera_Middleware/sensors/vd1943/vd1943.c ****          (out_itf->logic_lane_mapping[2] << 4) |
 4094              		.loc 1 788 48 is_stmt 0 view .LVU1173
 4095 00a2 D5E91513 		ldrd	r1, r3, [r5, #84]
 4096 00a6 1A01     		lsls	r2, r3, #4
 787:Lib/Camera_Middleware/sensors/vd1943/vd1943.c ****          (out_itf->logic_lane_mapping[1] << 2) |
ARM GAS  C:\Users\DJESSOU\AppData\Local\Temp\cc3eovRL.s 			page 121


 4097              		.loc 1 787 48 view .LVU1174
 4098 00a8 2B6D     		ldr	r3, [r5, #80]
 788:Lib/Camera_Middleware/sensors/vd1943/vd1943.c ****          (out_itf->logic_lane_mapping[2] << 4) |
 4099              		.loc 1 788 48 view .LVU1175
 4100 00aa 42EA8102 		orr	r2, r2, r1, lsl #2
 4101 00ae 1A43     		orrs	r2, r2, r3
 789:Lib/Camera_Middleware/sensors/vd1943/vd1943.c ****          (out_itf->logic_lane_mapping[3] << 6);
 4102              		.loc 1 789 48 view .LVU1176
 4103 00b0 EB6D     		ldr	r3, [r5, #92]
 4104              	.LBE167:
 4105              	.LBE166:
 877:Lib/Camera_Middleware/sensors/vd1943/vd1943.c ****   VD1943_TraceError(ctx, ret);
 4106              		.loc 1 877 9 discriminator 1 view .LVU1177
 4107 00b2 40F63A11 		movw	r1, #2362
 4108              	.LBB169:
 4109              	.LBB168:
 789:Lib/Camera_Middleware/sensors/vd1943/vd1943.c ****          (out_itf->logic_lane_mapping[3] << 6);
 4110              		.loc 1 789 48 view .LVU1178
 4111 00b6 42EA8312 		orr	r2, r2, r3, lsl #6
 4112              	.LBE168:
 4113              	.LBE169:
 877:Lib/Camera_Middleware/sensors/vd1943/vd1943.c ****   VD1943_TraceError(ctx, ret);
 4114              		.loc 1 877 9 discriminator 1 view .LVU1179
 4115 00ba 2846     		mov	r0, r5
 4116              	.LVL334:
 877:Lib/Camera_Middleware/sensors/vd1943/vd1943.c ****   VD1943_TraceError(ctx, ret);
 4117              		.loc 1 877 9 discriminator 1 view .LVU1180
 4118 00bc 2B69     		ldr	r3, [r5, #16]
 4119 00be D2B2     		uxtb	r2, r2
 4120 00c0 9847     		blx	r3
 4121              	.LVL335:
 878:Lib/Camera_Middleware/sensors/vd1943/vd1943.c ****   /* lane swap */
 4122              		.loc 1 878 3 is_stmt 1 view .LVU1181
 878:Lib/Camera_Middleware/sensors/vd1943/vd1943.c ****   /* lane swap */
 4123              		.loc 1 878 3 view .LVU1182
 4124 00c2 0446     		mov	r4, r0
 4125 00c4 18B1     		cbz	r0, .L380
 878:Lib/Camera_Middleware/sensors/vd1943/vd1943.c ****   /* lane swap */
 4126              		.loc 1 878 3 discriminator 1 view .LVU1183
 878:Lib/Camera_Middleware/sensors/vd1943/vd1943.c ****   /* lane swap */
 4127              		.loc 1 878 3 discriminator 1 view .LVU1184
 4128 00c6 40F26E33 		movw	r3, #878
 4129 00ca 0290     		str	r0, [sp, #8]
 4130 00cc CAE7     		b	.L393
 4131              	.L380:
 878:Lib/Camera_Middleware/sensors/vd1943/vd1943.c ****   /* lane swap */
 4132              		.loc 1 878 3 discriminator 3 view .LVU1185
 878:Lib/Camera_Middleware/sensors/vd1943/vd1943.c ****   /* lane swap */
 4133              		.loc 1 878 3 discriminator 3 view .LVU1186
 878:Lib/Camera_Middleware/sensors/vd1943/vd1943.c ****   /* lane swap */
 4134              		.loc 1 878 3 discriminator 6 view .LVU1187
 878:Lib/Camera_Middleware/sensors/vd1943/vd1943.c ****   /* lane swap */
 4135              		.loc 1 878 3 discriminator 8 view .LVU1188
 880:Lib/Camera_Middleware/sensors/vd1943/vd1943.c ****   VD1943_TraceError(ctx, ret);
 4136              		.loc 1 880 3 view .LVU1189
 4137              	.LVL336:
 4138              	.LBB170:
ARM GAS  C:\Users\DJESSOU\AppData\Local\Temp\cc3eovRL.s 			page 122


 4139              	.LBI170:
 793:Lib/Camera_Middleware/sensors/vd1943/vd1943.c **** {
 4140              		.loc 1 793 16 view .LVU1190
 4141              	.LBB171:
 795:Lib/Camera_Middleware/sensors/vd1943/vd1943.c ****          (out_itf->physical_lane_swap_enable[1] << 1) |
 4142              		.loc 1 795 3 view .LVU1191
 796:Lib/Camera_Middleware/sensors/vd1943/vd1943.c ****          (out_itf->physical_lane_swap_enable[2] << 2) |
 4143              		.loc 1 796 55 is_stmt 0 view .LVU1192
 4144 00ce D5E91A13 		ldrd	r1, r3, [r5, #104]
 4145 00d2 9A00     		lsls	r2, r3, #2
 795:Lib/Camera_Middleware/sensors/vd1943/vd1943.c ****          (out_itf->physical_lane_swap_enable[1] << 1) |
 4146              		.loc 1 795 55 view .LVU1193
 4147 00d4 6B6E     		ldr	r3, [r5, #100]
 796:Lib/Camera_Middleware/sensors/vd1943/vd1943.c ****          (out_itf->physical_lane_swap_enable[2] << 2) |
 4148              		.loc 1 796 55 view .LVU1194
 4149 00d6 42EA4102 		orr	r2, r2, r1, lsl #1
 4150 00da 1A43     		orrs	r2, r2, r3
 797:Lib/Camera_Middleware/sensors/vd1943/vd1943.c ****          (out_itf->physical_lane_swap_enable[3] << 3) |
 4151              		.loc 1 797 55 view .LVU1195
 4152 00dc 2B6F     		ldr	r3, [r5, #112]
 4153              	.LBE171:
 4154              	.LBE170:
 880:Lib/Camera_Middleware/sensors/vd1943/vd1943.c ****   VD1943_TraceError(ctx, ret);
 4155              		.loc 1 880 9 discriminator 1 view .LVU1196
 4156 00de 40F63B11 		movw	r1, #2363
 4157              	.LBB174:
 4158              	.LBB172:
 797:Lib/Camera_Middleware/sensors/vd1943/vd1943.c ****          (out_itf->physical_lane_swap_enable[3] << 3) |
 4159              		.loc 1 797 55 view .LVU1197
 4160 00e2 42EAC302 		orr	r2, r2, r3, lsl #3
 798:Lib/Camera_Middleware/sensors/vd1943/vd1943.c ****          (out_itf->clock_lane_swap_enable << 4);
 4161              		.loc 1 798 55 view .LVU1198
 4162 00e6 2B6E     		ldr	r3, [r5, #96]
 4163              	.LBE172:
 4164              	.LBE174:
 880:Lib/Camera_Middleware/sensors/vd1943/vd1943.c ****   VD1943_TraceError(ctx, ret);
 4165              		.loc 1 880 9 discriminator 1 view .LVU1199
 4166 00e8 2846     		mov	r0, r5
 4167              	.LVL337:
 4168              	.LBB175:
 4169              	.LBB173:
 798:Lib/Camera_Middleware/sensors/vd1943/vd1943.c ****          (out_itf->clock_lane_swap_enable << 4);
 4170              		.loc 1 798 55 view .LVU1200
 4171 00ea 42EA0312 		orr	r2, r2, r3, lsl #4
 4172              	.LBE173:
 4173              	.LBE175:
 880:Lib/Camera_Middleware/sensors/vd1943/vd1943.c ****   VD1943_TraceError(ctx, ret);
 4174              		.loc 1 880 9 discriminator 1 view .LVU1201
 4175 00ee D2B2     		uxtb	r2, r2
 4176 00f0 2B69     		ldr	r3, [r5, #16]
 4177 00f2 9847     		blx	r3
 4178              	.LVL338:
 881:Lib/Camera_Middleware/sensors/vd1943/vd1943.c ****    /* data rate */
 4179              		.loc 1 881 3 is_stmt 1 view .LVU1202
 881:Lib/Camera_Middleware/sensors/vd1943/vd1943.c ****    /* data rate */
 4180              		.loc 1 881 3 view .LVU1203
 4181 00f4 0446     		mov	r4, r0
ARM GAS  C:\Users\DJESSOU\AppData\Local\Temp\cc3eovRL.s 			page 123


 4182 00f6 18B1     		cbz	r0, .L381
 881:Lib/Camera_Middleware/sensors/vd1943/vd1943.c ****    /* data rate */
 4183              		.loc 1 881 3 discriminator 1 view .LVU1204
 881:Lib/Camera_Middleware/sensors/vd1943/vd1943.c ****    /* data rate */
 4184              		.loc 1 881 3 discriminator 1 view .LVU1205
 4185 00f8 40F27133 		movw	r3, #881
 4186 00fc 0290     		str	r0, [sp, #8]
 4187 00fe B1E7     		b	.L393
 4188              	.L381:
 881:Lib/Camera_Middleware/sensors/vd1943/vd1943.c ****    /* data rate */
 4189              		.loc 1 881 3 discriminator 3 view .LVU1206
 881:Lib/Camera_Middleware/sensors/vd1943/vd1943.c ****    /* data rate */
 4190              		.loc 1 881 3 discriminator 3 view .LVU1207
 881:Lib/Camera_Middleware/sensors/vd1943/vd1943.c ****    /* data rate */
 4191              		.loc 1 881 3 discriminator 6 view .LVU1208
 881:Lib/Camera_Middleware/sensors/vd1943/vd1943.c ****    /* data rate */
 4192              		.loc 1 881 3 discriminator 8 view .LVU1209
 883:Lib/Camera_Middleware/sensors/vd1943/vd1943.c ****   VD1943_TraceError(ctx, ret);
 4193              		.loc 1 883 3 view .LVU1210
 883:Lib/Camera_Middleware/sensors/vd1943/vd1943.c ****   VD1943_TraceError(ctx, ret);
 4194              		.loc 1 883 9 is_stmt 0 view .LVU1211
 4195 0100 4FF4E761 		mov	r1, #1848
 4196 0104 2846     		mov	r0, r5
 4197              	.LVL339:
 883:Lib/Camera_Middleware/sensors/vd1943/vd1943.c ****   VD1943_TraceError(ctx, ret);
 4198              		.loc 1 883 9 view .LVU1212
 4199 0106 AB69     		ldr	r3, [r5, #24]
 4200 0108 AA6C     		ldr	r2, [r5, #72]
 4201 010a 9847     		blx	r3
 4202              	.LVL340:
 884:Lib/Camera_Middleware/sensors/vd1943/vd1943.c ****    /* data type / RAW8*/
 4203              		.loc 1 884 3 is_stmt 1 view .LVU1213
 884:Lib/Camera_Middleware/sensors/vd1943/vd1943.c ****    /* data type / RAW8*/
 4204              		.loc 1 884 3 view .LVU1214
 4205 010c 0446     		mov	r4, r0
 4206 010e 18B1     		cbz	r0, .L382
 884:Lib/Camera_Middleware/sensors/vd1943/vd1943.c ****    /* data type / RAW8*/
 4207              		.loc 1 884 3 discriminator 1 view .LVU1215
 884:Lib/Camera_Middleware/sensors/vd1943/vd1943.c ****    /* data type / RAW8*/
 4208              		.loc 1 884 3 discriminator 1 view .LVU1216
 4209 0110 4FF45D73 		mov	r3, #884
 4210 0114 0290     		str	r0, [sp, #8]
 4211 0116 A5E7     		b	.L393
 4212              	.L382:
 884:Lib/Camera_Middleware/sensors/vd1943/vd1943.c ****    /* data type / RAW8*/
 4213              		.loc 1 884 3 discriminator 3 view .LVU1217
 884:Lib/Camera_Middleware/sensors/vd1943/vd1943.c ****    /* data type / RAW8*/
 4214              		.loc 1 884 3 discriminator 3 view .LVU1218
 884:Lib/Camera_Middleware/sensors/vd1943/vd1943.c ****    /* data type / RAW8*/
 4215              		.loc 1 884 3 discriminator 6 view .LVU1219
 884:Lib/Camera_Middleware/sensors/vd1943/vd1943.c ****    /* data type / RAW8*/
 4216              		.loc 1 884 3 discriminator 8 view .LVU1220
 886:Lib/Camera_Middleware/sensors/vd1943/vd1943.c ****   if (ret)
 4217              		.loc 1 886 3 view .LVU1221
 4218              	.LVL341:
 4219              	.LBB176:
 4220              	.LBI162:
ARM GAS  C:\Users\DJESSOU\AppData\Local\Temp\cc3eovRL.s 			page 124


 802:Lib/Camera_Middleware/sensors/vd1943/vd1943.c **** {
 4221              		.loc 1 802 12 view .LVU1222
 4222              	.LBB164:
 804:Lib/Camera_Middleware/sensors/vd1943/vd1943.c ****   int ret;
 4223              		.loc 1 804 3 view .LVU1223
 805:Lib/Camera_Middleware/sensors/vd1943/vd1943.c **** 
 4224              		.loc 1 805 3 view .LVU1224
 807:Lib/Camera_Middleware/sensors/vd1943/vd1943.c ****   case VD1943_GS_SS1_NATIVE_8:
 4225              		.loc 1 807 3 view .LVU1225
 807:Lib/Camera_Middleware/sensors/vd1943/vd1943.c ****   case VD1943_GS_SS1_NATIVE_8:
 4226              		.loc 1 807 31 is_stmt 0 view .LVU1226
 4227 0118 95F84430 		ldrb	r3, [r5, #68]	@ zero_extendqisi2
 807:Lib/Camera_Middleware/sensors/vd1943/vd1943.c ****   case VD1943_GS_SS1_NATIVE_8:
 4228              		.loc 1 807 3 view .LVU1227
 4229 011c 042B     		cmp	r3, #4
 4230 011e 0CD8     		bhi	.L309
 4231 0120 23B9     		cbnz	r3, .L310
 4232              	.L311:
 841:Lib/Camera_Middleware/sensors/vd1943/vd1943.c ****     return -1;
 4233              		.loc 1 841 5 is_stmt 1 view .LVU1228
 4234 0122 40F24931 		movw	r1, #841
 4235 0126 684B     		ldr	r3, .L397
 4236 0128 6C4A     		ldr	r2, .L397+20
 4237 012a 95E7     		b	.L392
 4238              	.L310:
 807:Lib/Camera_Middleware/sensors/vd1943/vd1943.c ****   case VD1943_GS_SS1_NATIVE_8:
 4239              		.loc 1 807 3 is_stmt 0 view .LVU1229
 4240 012c 023B     		subs	r3, r3, #2
 4241 012e 022B     		cmp	r3, #2
 4242 0130 22D8     		bhi	.L362
 4243 0132 DFE803F0 		tbb	[pc, r3]
 4244              	.L314:
 4245 0136 23       		.byte	(.L364-.L314)/2
 4246 0137 21       		.byte	(.L362-.L314)/2
 4247 0138 23       		.byte	(.L364-.L314)/2
 4248 0139 00       		.p2align 1
 4249              	.L309:
 4250 013a 053B     		subs	r3, r3, #5
 4251 013c DBB2     		uxtb	r3, r3
 4252 013e 1E2B     		cmp	r3, #30
 4253 0140 EFD8     		bhi	.L311
 4254 0142 0122     		movs	r2, #1
 4255 0144 02FA03F3 		lsl	r3, r2, r3
 4256 0148 654A     		ldr	r2, .L397+24
 4257 014a 1A40     		ands	r2, r2, r3
 4258 014c B2B9     		cbnz	r2, .L364
 4259 014e 654A     		ldr	r2, .L397+28
 4260 0150 1A40     		ands	r2, r2, r3
 4261 0152 8AB9     		cbnz	r2, .L362
 4262 0154 13F0A94F 		tst	r3, #1417674752
 838:Lib/Camera_Middleware/sensors/vd1943/vd1943.c ****     break;
 4263              		.loc 1 838 8 view .LVU1230
 4264 0158 4FF02C02 		mov	r2, #44
 807:Lib/Camera_Middleware/sensors/vd1943/vd1943.c ****   case VD1943_GS_SS1_NATIVE_8:
 4265              		.loc 1 807 3 view .LVU1231
 4266 015c E1D0     		beq	.L311
 4267              	.L312:
ARM GAS  C:\Users\DJESSOU\AppData\Local\Temp\cc3eovRL.s 			page 125


 4268              	.LVL342:
 845:Lib/Camera_Middleware/sensors/vd1943/vd1943.c ****   VD1943_TraceError(ctx, ret);
 4269              		.loc 1 845 3 is_stmt 1 view .LVU1232
 845:Lib/Camera_Middleware/sensors/vd1943/vd1943.c ****   VD1943_TraceError(ctx, ret);
 4270              		.loc 1 845 9 is_stmt 0 view .LVU1233
 4271 015e 40F61411 		movw	r1, #2324
 4272 0162 2846     		mov	r0, r5
 4273              	.LVL343:
 845:Lib/Camera_Middleware/sensors/vd1943/vd1943.c ****   VD1943_TraceError(ctx, ret);
 4274              		.loc 1 845 9 view .LVU1234
 4275 0164 2B69     		ldr	r3, [r5, #16]
 4276 0166 9847     		blx	r3
 4277              	.LVL344:
 846:Lib/Camera_Middleware/sensors/vd1943/vd1943.c **** 
 4278              		.loc 1 846 3 is_stmt 1 view .LVU1235
 846:Lib/Camera_Middleware/sensors/vd1943/vd1943.c **** 
 4279              		.loc 1 846 3 view .LVU1236
 4280 0168 0446     		mov	r4, r0
 4281              	.LVL345:
 846:Lib/Camera_Middleware/sensors/vd1943/vd1943.c **** 
 4282              		.loc 1 846 3 is_stmt 0 view .LVU1237
 4283 016a 48B1     		cbz	r0, .L316
 846:Lib/Camera_Middleware/sensors/vd1943/vd1943.c **** 
 4284              		.loc 1 846 3 is_stmt 1 discriminator 1 view .LVU1238
 846:Lib/Camera_Middleware/sensors/vd1943/vd1943.c **** 
 4285              		.loc 1 846 3 discriminator 1 view .LVU1239
 4286 016c 40F24E33 		movw	r3, #846
 4287 0170 5A4A     		ldr	r2, .L397+20
 4288 0172 0290     		str	r0, [sp, #8]
 4289 0174 0193     		str	r3, [sp, #4]
 4290 0176 77E7     		b	.L390
 4291              	.LVL346:
 4292              	.L362:
 818:Lib/Camera_Middleware/sensors/vd1943/vd1943.c ****     break;
 4293              		.loc 1 818 8 is_stmt 0 view .LVU1240
 4294 0178 2A22     		movs	r2, #42
 4295 017a F0E7     		b	.L312
 4296              	.L364:
 807:Lib/Camera_Middleware/sensors/vd1943/vd1943.c ****   case VD1943_GS_SS1_NATIVE_8:
 4297              		.loc 1 807 3 view .LVU1241
 4298 017c 2B22     		movs	r2, #43
 4299 017e EEE7     		b	.L312
 4300              	.LVL347:
 4301              	.L316:
 846:Lib/Camera_Middleware/sensors/vd1943/vd1943.c **** 
 4302              		.loc 1 846 3 is_stmt 1 discriminator 6 view .LVU1242
 846:Lib/Camera_Middleware/sensors/vd1943/vd1943.c **** 
 4303              		.loc 1 846 3 is_stmt 0 discriminator 6 view .LVU1243
 4304              	.LBE164:
 4305              	.LBE176:
 887:Lib/Camera_Middleware/sensors/vd1943/vd1943.c ****     return ret;
 4306              		.loc 1 887 3 is_stmt 1 view .LVU1244
 890:Lib/Camera_Middleware/sensors/vd1943/vd1943.c ****   VD1943_TraceError(ctx, ret);
 4307              		.loc 1 890 3 view .LVU1245
 890:Lib/Camera_Middleware/sensors/vd1943/vd1943.c ****   VD1943_TraceError(ctx, ret);
 4308              		.loc 1 890 9 is_stmt 0 view .LVU1246
 4309 0180 1222     		movs	r2, #18
ARM GAS  C:\Users\DJESSOU\AppData\Local\Temp\cc3eovRL.s 			page 126


 4310 0182 40F6FC21 		movw	r1, #2812
 4311 0186 2846     		mov	r0, r5
 4312 0188 2B69     		ldr	r3, [r5, #16]
 4313 018a 9847     		blx	r3
 4314              	.LVL348:
 891:Lib/Camera_Middleware/sensors/vd1943/vd1943.c **** 
 4315              		.loc 1 891 3 is_stmt 1 view .LVU1247
 891:Lib/Camera_Middleware/sensors/vd1943/vd1943.c **** 
 4316              		.loc 1 891 3 view .LVU1248
 4317 018c 0446     		mov	r4, r0
 4318 018e 18B1     		cbz	r0, .L383
 891:Lib/Camera_Middleware/sensors/vd1943/vd1943.c **** 
 4319              		.loc 1 891 3 discriminator 1 view .LVU1249
 891:Lib/Camera_Middleware/sensors/vd1943/vd1943.c **** 
 4320              		.loc 1 891 3 discriminator 1 view .LVU1250
 4321 0190 40F27B33 		movw	r3, #891
 4322 0194 0290     		str	r0, [sp, #8]
 4323 0196 65E7     		b	.L393
 4324              	.L383:
 4325              	.LVL349:
 891:Lib/Camera_Middleware/sensors/vd1943/vd1943.c **** 
 4326              		.loc 1 891 3 is_stmt 0 discriminator 1 view .LVU1251
 4327              	.LBE177:
 4328              	.LBE182:
1279:Lib/Camera_Middleware/sensors/vd1943/vd1943.c ****     return ret;
 4329              		.loc 1 1279 3 is_stmt 1 view .LVU1252
1282:Lib/Camera_Middleware/sensors/vd1943/vd1943.c ****   if (ret)
 4330              		.loc 1 1282 3 view .LVU1253
 4331              	.LBB183:
 4332              	.LBI183:
 896:Lib/Camera_Middleware/sensors/vd1943/vd1943.c **** {
 4333              		.loc 1 896 12 view .LVU1254
 4334              	.LBB184:
 898:Lib/Camera_Middleware/sensors/vd1943/vd1943.c ****   int ss_factor;
 4335              		.loc 1 898 3 view .LVU1255
 898:Lib/Camera_Middleware/sensors/vd1943/vd1943.c ****   int ss_factor;
 4336              		.loc 1 898 80 is_stmt 0 view .LVU1256
 4337 0198 95F83C30 		ldrb	r3, [r5, #60]	@ zero_extendqisi2
 4338              	.LVL350:
 899:Lib/Camera_Middleware/sensors/vd1943/vd1943.c ****   int ret;
 4339              		.loc 1 899 3 is_stmt 1 view .LVU1257
 900:Lib/Camera_Middleware/sensors/vd1943/vd1943.c **** 
 4340              		.loc 1 900 3 view .LVU1258
 902:Lib/Camera_Middleware/sensors/vd1943/vd1943.c ****   assert(rect->top % 4 == 0);
 4341              		.loc 1 902 3 view .LVU1259
 4342 019c 524F     		ldr	r7, .L397+32
 4343 019e 1A01     		lsls	r2, r3, #4
 4344 01a0 BA58     		ldr	r2, [r7, r2]
 4345 01a2 07EB0313 		add	r3, r7, r3, lsl #4
 4346              	.LVL351:
 902:Lib/Camera_Middleware/sensors/vd1943/vd1943.c ****   assert(rect->top % 4 == 0);
 4347              		.loc 1 902 3 is_stmt 0 view .LVU1260
 4348 01a6 9107     		lsls	r1, r2, #30
 4349 01a8 04D0     		beq	.L319
 902:Lib/Camera_Middleware/sensors/vd1943/vd1943.c ****   assert(rect->top % 4 == 0);
 4350              		.loc 1 902 3 discriminator 1 view .LVU1261
 4351 01aa 40F28631 		movw	r1, #902
ARM GAS  C:\Users\DJESSOU\AppData\Local\Temp\cc3eovRL.s 			page 127


 4352 01ae 4F4B     		ldr	r3, .L397+36
 4353              	.LVL352:
 902:Lib/Camera_Middleware/sensors/vd1943/vd1943.c ****   assert(rect->top % 4 == 0);
 4354              		.loc 1 902 3 discriminator 1 view .LVU1262
 4355 01b0 4F4A     		ldr	r2, .L397+40
 4356 01b2 51E7     		b	.L392
 4357              	.LVL353:
 4358              	.L319:
 903:Lib/Camera_Middleware/sensors/vd1943/vd1943.c ****   assert(rect->width % 4 == 0);
 4359              		.loc 1 903 3 is_stmt 1 view .LVU1263
 4360 01b4 D3F804A0 		ldr	r10, [r3, #4]
 4361 01b8 1AF0030F 		tst	r10, #3
 4362 01bc 04D0     		beq	.L320
 903:Lib/Camera_Middleware/sensors/vd1943/vd1943.c ****   assert(rect->width % 4 == 0);
 4363              		.loc 1 903 3 is_stmt 0 discriminator 1 view .LVU1264
 4364 01be 40F28731 		movw	r1, #903
 4365 01c2 4C4B     		ldr	r3, .L397+44
 4366              	.LVL354:
 903:Lib/Camera_Middleware/sensors/vd1943/vd1943.c ****   assert(rect->width % 4 == 0);
 4367              		.loc 1 903 3 discriminator 1 view .LVU1265
 4368 01c4 4A4A     		ldr	r2, .L397+40
 4369 01c6 47E7     		b	.L392
 4370              	.LVL355:
 4371              	.L320:
 904:Lib/Camera_Middleware/sensors/vd1943/vd1943.c ****   assert(rect->height % 4 == 0);
 4372              		.loc 1 904 3 is_stmt 1 view .LVU1266
 4373 01c8 D3F80890 		ldr	r9, [r3, #8]
 4374 01cc 19F0030F 		tst	r9, #3
 4375 01d0 04D0     		beq	.L321
 904:Lib/Camera_Middleware/sensors/vd1943/vd1943.c ****   assert(rect->height % 4 == 0);
 4376              		.loc 1 904 3 is_stmt 0 discriminator 1 view .LVU1267
 4377 01d2 4FF46271 		mov	r1, #904
 4378 01d6 484B     		ldr	r3, .L397+48
 4379              	.LVL356:
 904:Lib/Camera_Middleware/sensors/vd1943/vd1943.c ****   assert(rect->height % 4 == 0);
 4380              		.loc 1 904 3 discriminator 1 view .LVU1268
 4381 01d8 454A     		ldr	r2, .L397+40
 4382 01da 3DE7     		b	.L392
 4383              	.LVL357:
 4384              	.L321:
 905:Lib/Camera_Middleware/sensors/vd1943/vd1943.c **** 
 4385              		.loc 1 905 3 is_stmt 1 view .LVU1269
 4386 01dc DE68     		ldr	r6, [r3, #12]
 4387 01de B307     		lsls	r3, r6, #30
 4388              	.LVL358:
 905:Lib/Camera_Middleware/sensors/vd1943/vd1943.c **** 
 4389              		.loc 1 905 3 is_stmt 0 view .LVU1270
 4390 01e0 04D0     		beq	.L322
 905:Lib/Camera_Middleware/sensors/vd1943/vd1943.c **** 
 4391              		.loc 1 905 3 discriminator 1 view .LVU1271
 4392 01e2 40F28931 		movw	r1, #905
 4393 01e6 454B     		ldr	r3, .L397+52
 4394 01e8 414A     		ldr	r2, .L397+40
 4395 01ea 35E7     		b	.L392
 4396              	.L322:
 907:Lib/Camera_Middleware/sensors/vd1943/vd1943.c ****   if (ret)
 4397              		.loc 1 907 3 is_stmt 1 view .LVU1272
ARM GAS  C:\Users\DJESSOU\AppData\Local\Temp\cc3eovRL.s 			page 128


 4398              	.LVL359:
 4399              	.LBB185:
 4400              	.LBI185:
 702:Lib/Camera_Middleware/sensors/vd1943/vd1943.c **** {
 4401              		.loc 1 702 12 view .LVU1273
 4402              	.LBB186:
 704:Lib/Camera_Middleware/sensors/vd1943/vd1943.c **** 
 4403              		.loc 1 704 3 view .LVU1274
 706:Lib/Camera_Middleware/sensors/vd1943/vd1943.c ****   case VD1943_GS_SS32_MONO_8:
 4404              		.loc 1 706 3 view .LVU1275
 706:Lib/Camera_Middleware/sensors/vd1943/vd1943.c ****   case VD1943_GS_SS32_MONO_8:
 4405              		.loc 1 706 38 is_stmt 0 view .LVU1276
 4406 01ec 95F84430 		ldrb	r3, [r5, #68]	@ zero_extendqisi2
 706:Lib/Camera_Middleware/sensors/vd1943/vd1943.c ****   case VD1943_GS_SS32_MONO_8:
 4407              		.loc 1 706 3 view .LVU1277
 4408 01f0 0C2B     		cmp	r3, #12
 4409 01f2 17D8     		bhi	.L323
 4410 01f4 0A2B     		cmp	r3, #10
 4411 01f6 1BD8     		bhi	.L365
 4412 01f8 093B     		subs	r3, r3, #9
 720:Lib/Camera_Middleware/sensors/vd1943/vd1943.c ****   }
 4413              		.loc 1 720 16 view .LVU1278
 4414 01fa 012B     		cmp	r3, #1
 4415 01fc 98BF     		it	ls
 4416 01fe 4FF00208 		movls	r8, #2
 4417              	.L389:
 720:Lib/Camera_Middleware/sensors/vd1943/vd1943.c ****   }
 4418              		.loc 1 720 16 view .LVU1279
 4419 0202 88BF     		it	hi
 4420 0204 4FF00108 		movhi	r8, #1
 4421              	.L324:
 4422              	.LVL360:
 723:Lib/Camera_Middleware/sensors/vd1943/vd1943.c **** }
 4423              		.loc 1 723 3 is_stmt 1 view .LVU1280
 723:Lib/Camera_Middleware/sensors/vd1943/vd1943.c **** }
 4424              		.loc 1 723 3 is_stmt 0 view .LVU1281
 4425              	.LBE186:
 4426              	.LBE185:
 908:Lib/Camera_Middleware/sensors/vd1943/vd1943.c ****     return ret;
 4427              		.loc 1 908 3 is_stmt 1 view .LVU1282
 911:Lib/Camera_Middleware/sensors/vd1943/vd1943.c ****   VD1943_TraceError(ctx, ret);
 4428              		.loc 1 911 3 view .LVU1283
 911:Lib/Camera_Middleware/sensors/vd1943/vd1943.c ****   VD1943_TraceError(ctx, ret);
 4429              		.loc 1 911 9 is_stmt 0 view .LVU1284
 4430 0208 40F60C11 		movw	r1, #2316
 4431 020c 2846     		mov	r0, r5
 4432 020e 6B69     		ldr	r3, [r5, #20]
 4433 0210 92B2     		uxth	r2, r2
 4434 0212 9847     		blx	r3
 4435              	.LVL361:
 912:Lib/Camera_Middleware/sensors/vd1943/vd1943.c ****   ret = ctx->write16(ctx, VD1943_REG_ROI_A_HEIGHT_OFFSET, rect->top);
 4436              		.loc 1 912 3 is_stmt 1 view .LVU1285
 912:Lib/Camera_Middleware/sensors/vd1943/vd1943.c ****   ret = ctx->write16(ctx, VD1943_REG_ROI_A_HEIGHT_OFFSET, rect->top);
 4437              		.loc 1 912 3 view .LVU1286
 4438 0214 0446     		mov	r4, r0
 4439 0216 70B1     		cbz	r0, .L325
 912:Lib/Camera_Middleware/sensors/vd1943/vd1943.c ****   ret = ctx->write16(ctx, VD1943_REG_ROI_A_HEIGHT_OFFSET, rect->top);
ARM GAS  C:\Users\DJESSOU\AppData\Local\Temp\cc3eovRL.s 			page 129


 4440              		.loc 1 912 3 discriminator 1 view .LVU1287
 912:Lib/Camera_Middleware/sensors/vd1943/vd1943.c ****   ret = ctx->write16(ctx, VD1943_REG_ROI_A_HEIGHT_OFFSET, rect->top);
 4441              		.loc 1 912 3 discriminator 1 view .LVU1288
 4442 0218 4FF46473 		mov	r3, #912
 4443 021c 0290     		str	r0, [sp, #8]
 4444              	.L395:
 918:Lib/Camera_Middleware/sensors/vd1943/vd1943.c **** 
 4445              		.loc 1 918 3 is_stmt 0 discriminator 1 view .LVU1289
 4446 021e 344A     		ldr	r2, .L397+40
 4447 0220 0193     		str	r3, [sp, #4]
 4448 0222 21E7     		b	.L390
 4449              	.LVL362:
 4450              	.L323:
 4451              	.LBB188:
 4452              	.LBB187:
 706:Lib/Camera_Middleware/sensors/vd1943/vd1943.c ****   case VD1943_GS_SS32_MONO_8:
 4453              		.loc 1 706 3 view .LVU1290
 4454 0224 0D3B     		subs	r3, r3, #13
 720:Lib/Camera_Middleware/sensors/vd1943/vd1943.c ****   }
 4455              		.loc 1 720 16 view .LVU1291
 4456 0226 012B     		cmp	r3, #1
 4457 0228 98BF     		it	ls
 4458 022a 4FF02008 		movls	r8, #32
 4459 022e E8E7     		b	.L389
 4460              	.L365:
 717:Lib/Camera_Middleware/sensors/vd1943/vd1943.c ****     break;
 4461              		.loc 1 717 16 view .LVU1292
 4462 0230 4FF00408 		mov	r8, #4
 4463 0234 E8E7     		b	.L324
 4464              	.LVL363:
 4465              	.L325:
 717:Lib/Camera_Middleware/sensors/vd1943/vd1943.c ****     break;
 4466              		.loc 1 717 16 view .LVU1293
 4467              	.LBE187:
 4468              	.LBE188:
 912:Lib/Camera_Middleware/sensors/vd1943/vd1943.c ****   ret = ctx->write16(ctx, VD1943_REG_ROI_A_HEIGHT_OFFSET, rect->top);
 4469              		.loc 1 912 3 is_stmt 1 discriminator 6 view .LVU1294
 912:Lib/Camera_Middleware/sensors/vd1943/vd1943.c ****   ret = ctx->write16(ctx, VD1943_REG_ROI_A_HEIGHT_OFFSET, rect->top);
 4470              		.loc 1 912 3 discriminator 8 view .LVU1295
 913:Lib/Camera_Middleware/sensors/vd1943/vd1943.c ****   VD1943_TraceError(ctx, ret);
 4471              		.loc 1 913 3 view .LVU1296
 913:Lib/Camera_Middleware/sensors/vd1943/vd1943.c ****   VD1943_TraceError(ctx, ret);
 4472              		.loc 1 913 9 is_stmt 0 view .LVU1297
 4473 0236 40F60E11 		movw	r1, #2318
 4474 023a 2846     		mov	r0, r5
 4475              	.LVL364:
 913:Lib/Camera_Middleware/sensors/vd1943/vd1943.c ****   VD1943_TraceError(ctx, ret);
 4476              		.loc 1 913 9 view .LVU1298
 4477 023c 6B69     		ldr	r3, [r5, #20]
 4478 023e 1FFA8AF2 		uxth	r2, r10
 4479 0242 9847     		blx	r3
 4480              	.LVL365:
 914:Lib/Camera_Middleware/sensors/vd1943/vd1943.c ****   ret = ctx->write16(ctx, VD1943_REG_ROI_A_WIDTH, rect->width / ss_factor);
 4481              		.loc 1 914 3 is_stmt 1 view .LVU1299
 914:Lib/Camera_Middleware/sensors/vd1943/vd1943.c ****   ret = ctx->write16(ctx, VD1943_REG_ROI_A_WIDTH, rect->width / ss_factor);
 4482              		.loc 1 914 3 view .LVU1300
 4483 0244 0446     		mov	r4, r0
ARM GAS  C:\Users\DJESSOU\AppData\Local\Temp\cc3eovRL.s 			page 130


 4484 0246 68B9     		cbnz	r0, .L326
 914:Lib/Camera_Middleware/sensors/vd1943/vd1943.c ****   ret = ctx->write16(ctx, VD1943_REG_ROI_A_WIDTH, rect->width / ss_factor);
 4485              		.loc 1 914 3 discriminator 3 view .LVU1301
 914:Lib/Camera_Middleware/sensors/vd1943/vd1943.c ****   ret = ctx->write16(ctx, VD1943_REG_ROI_A_WIDTH, rect->width / ss_factor);
 4486              		.loc 1 914 3 discriminator 3 view .LVU1302
 914:Lib/Camera_Middleware/sensors/vd1943/vd1943.c ****   ret = ctx->write16(ctx, VD1943_REG_ROI_A_WIDTH, rect->width / ss_factor);
 4487              		.loc 1 914 3 discriminator 6 view .LVU1303
 914:Lib/Camera_Middleware/sensors/vd1943/vd1943.c ****   ret = ctx->write16(ctx, VD1943_REG_ROI_A_WIDTH, rect->width / ss_factor);
 4488              		.loc 1 914 3 discriminator 8 view .LVU1304
 915:Lib/Camera_Middleware/sensors/vd1943/vd1943.c ****   VD1943_TraceError(ctx, ret);
 4489              		.loc 1 915 3 view .LVU1305
 915:Lib/Camera_Middleware/sensors/vd1943/vd1943.c ****   VD1943_TraceError(ctx, ret);
 4490              		.loc 1 915 63 is_stmt 0 view .LVU1306
 4491 0248 B9FBF8F2 		udiv	r2, r9, r8
 915:Lib/Camera_Middleware/sensors/vd1943/vd1943.c ****   VD1943_TraceError(ctx, ret);
 4492              		.loc 1 915 9 view .LVU1307
 4493 024c 4FF41161 		mov	r1, #2320
 4494 0250 2846     		mov	r0, r5
 4495              	.LVL366:
 915:Lib/Camera_Middleware/sensors/vd1943/vd1943.c ****   VD1943_TraceError(ctx, ret);
 4496              		.loc 1 915 9 view .LVU1308
 4497 0252 6B69     		ldr	r3, [r5, #20]
 4498 0254 92B2     		uxth	r2, r2
 4499 0256 9847     		blx	r3
 4500              	.LVL367:
 916:Lib/Camera_Middleware/sensors/vd1943/vd1943.c ****   ret = ctx->write16(ctx, VD1943_REG_ROI_A_HEIGHT, rect->height / ss_factor);
 4501              		.loc 1 916 3 is_stmt 1 view .LVU1309
 916:Lib/Camera_Middleware/sensors/vd1943/vd1943.c ****   ret = ctx->write16(ctx, VD1943_REG_ROI_A_HEIGHT, rect->height / ss_factor);
 4502              		.loc 1 916 3 view .LVU1310
 4503 0258 0446     		mov	r4, r0
 4504 025a 38B1     		cbz	r0, .L384
 916:Lib/Camera_Middleware/sensors/vd1943/vd1943.c ****   ret = ctx->write16(ctx, VD1943_REG_ROI_A_HEIGHT, rect->height / ss_factor);
 4505              		.loc 1 916 3 discriminator 1 view .LVU1311
 916:Lib/Camera_Middleware/sensors/vd1943/vd1943.c ****   ret = ctx->write16(ctx, VD1943_REG_ROI_A_HEIGHT, rect->height / ss_factor);
 4506              		.loc 1 916 3 discriminator 1 view .LVU1312
 4507 025c 4FF46573 		mov	r3, #916
 4508 0260 0290     		str	r0, [sp, #8]
 4509 0262 DCE7     		b	.L395
 4510              	.L326:
 914:Lib/Camera_Middleware/sensors/vd1943/vd1943.c ****   ret = ctx->write16(ctx, VD1943_REG_ROI_A_WIDTH, rect->width / ss_factor);
 4511              		.loc 1 914 3 discriminator 1 view .LVU1313
 914:Lib/Camera_Middleware/sensors/vd1943/vd1943.c ****   ret = ctx->write16(ctx, VD1943_REG_ROI_A_WIDTH, rect->width / ss_factor);
 4512              		.loc 1 914 3 discriminator 1 view .LVU1314
 4513 0264 40F29233 		movw	r3, #914
 4514 0268 0290     		str	r0, [sp, #8]
 4515 026a D8E7     		b	.L395
 4516              	.L384:
 916:Lib/Camera_Middleware/sensors/vd1943/vd1943.c ****   ret = ctx->write16(ctx, VD1943_REG_ROI_A_HEIGHT, rect->height / ss_factor);
 4517              		.loc 1 916 3 discriminator 3 view .LVU1315
 916:Lib/Camera_Middleware/sensors/vd1943/vd1943.c ****   ret = ctx->write16(ctx, VD1943_REG_ROI_A_HEIGHT, rect->height / ss_factor);
 4518              		.loc 1 916 3 discriminator 3 view .LVU1316
 916:Lib/Camera_Middleware/sensors/vd1943/vd1943.c ****   ret = ctx->write16(ctx, VD1943_REG_ROI_A_HEIGHT, rect->height / ss_factor);
 4519              		.loc 1 916 3 discriminator 6 view .LVU1317
 916:Lib/Camera_Middleware/sensors/vd1943/vd1943.c ****   ret = ctx->write16(ctx, VD1943_REG_ROI_A_HEIGHT, rect->height / ss_factor);
 4520              		.loc 1 916 3 discriminator 8 view .LVU1318
 917:Lib/Camera_Middleware/sensors/vd1943/vd1943.c ****   VD1943_TraceError(ctx, ret);
 4521              		.loc 1 917 3 view .LVU1319
ARM GAS  C:\Users\DJESSOU\AppData\Local\Temp\cc3eovRL.s 			page 131


 917:Lib/Camera_Middleware/sensors/vd1943/vd1943.c ****   VD1943_TraceError(ctx, ret);
 4522              		.loc 1 917 65 is_stmt 0 view .LVU1320
 4523 026c B6FBF8F2 		udiv	r2, r6, r8
 917:Lib/Camera_Middleware/sensors/vd1943/vd1943.c ****   VD1943_TraceError(ctx, ret);
 4524              		.loc 1 917 9 view .LVU1321
 4525 0270 40F61211 		movw	r1, #2322
 4526 0274 2846     		mov	r0, r5
 4527              	.LVL368:
 917:Lib/Camera_Middleware/sensors/vd1943/vd1943.c ****   VD1943_TraceError(ctx, ret);
 4528              		.loc 1 917 9 view .LVU1322
 4529 0276 6B69     		ldr	r3, [r5, #20]
 4530 0278 92B2     		uxth	r2, r2
 4531 027a 9847     		blx	r3
 4532              	.LVL369:
 918:Lib/Camera_Middleware/sensors/vd1943/vd1943.c **** 
 4533              		.loc 1 918 3 is_stmt 1 view .LVU1323
 918:Lib/Camera_Middleware/sensors/vd1943/vd1943.c **** 
 4534              		.loc 1 918 3 view .LVU1324
 4535 027c 0446     		mov	r4, r0
 4536 027e F8B9     		cbnz	r0, .L329
 4537              	.LVL370:
 918:Lib/Camera_Middleware/sensors/vd1943/vd1943.c **** 
 4538              		.loc 1 918 3 is_stmt 0 view .LVU1325
 4539              	.LBE184:
 4540              	.LBE183:
1283:Lib/Camera_Middleware/sensors/vd1943/vd1943.c ****     return ret;
 4541              		.loc 1 1283 3 is_stmt 1 view .LVU1326
1286:Lib/Camera_Middleware/sensors/vd1943/vd1943.c ****   if (ret)
 4542              		.loc 1 1286 3 view .LVU1327
 4543              	.LBB190:
 4544              	.LBI144:
1090:Lib/Camera_Middleware/sensors/vd1943/vd1943.c **** {
 4545              		.loc 1 1090 12 view .LVU1328
 4546              	.LBB152:
1092:Lib/Camera_Middleware/sensors/vd1943/vd1943.c ****   uint16_t frame_length;
 4547              		.loc 1 1092 3 view .LVU1329
1093:Lib/Camera_Middleware/sensors/vd1943/vd1943.c ****   int ret;
 4548              		.loc 1 1093 3 view .LVU1330
1094:Lib/Camera_Middleware/sensors/vd1943/vd1943.c **** 
 4549              		.loc 1 1094 3 view .LVU1331
1096:Lib/Camera_Middleware/sensors/vd1943/vd1943.c ****   if (ret)
 4550              		.loc 1 1096 3 view .LVU1332
 4551              	.LBB150:
 4552              	.LBI146:
 923:Lib/Camera_Middleware/sensors/vd1943/vd1943.c **** {
 4553              		.loc 1 923 12 view .LVU1333
 4554              	.LBB148:
 925:Lib/Camera_Middleware/sensors/vd1943/vd1943.c ****   uint32_t system_pll_clk;
 4555              		.loc 1 925 3 view .LVU1334
 926:Lib/Camera_Middleware/sensors/vd1943/vd1943.c ****   uint32_t vt_pixelrate;
 4556              		.loc 1 926 3 view .LVU1335
 927:Lib/Camera_Middleware/sensors/vd1943/vd1943.c ****   unsigned int bpp;
 4557              		.loc 1 927 3 view .LVU1336
 928:Lib/Camera_Middleware/sensors/vd1943/vd1943.c ****   uint32_t mipi_bandwidth;
 4558              		.loc 1 928 3 view .LVU1337
 929:Lib/Camera_Middleware/sensors/vd1943/vd1943.c ****   uint32_t mipi_pixelrate;
 4559              		.loc 1 929 3 view .LVU1338
ARM GAS  C:\Users\DJESSOU\AppData\Local\Temp\cc3eovRL.s 			page 132


 930:Lib/Camera_Middleware/sensors/vd1943/vd1943.c ****   uint16_t line_length;
 4560              		.loc 1 930 3 view .LVU1339
 931:Lib/Camera_Middleware/sensors/vd1943/vd1943.c ****   uint32_t mipi_transition_cst_in_px;
 4561              		.loc 1 931 3 view .LVU1340
 932:Lib/Camera_Middleware/sensors/vd1943/vd1943.c ****   uint32_t mipi_interpacket_delay_in_px;
 4562              		.loc 1 932 3 view .LVU1341
 933:Lib/Camera_Middleware/sensors/vd1943/vd1943.c ****   uint64_t mipi_virtual_linelength = 0;
 4563              		.loc 1 933 3 view .LVU1342
 934:Lib/Camera_Middleware/sensors/vd1943/vd1943.c ****   int ret;
 4564              		.loc 1 934 3 view .LVU1343
 935:Lib/Camera_Middleware/sensors/vd1943/vd1943.c **** 
 4565              		.loc 1 935 3 view .LVU1344
 938:Lib/Camera_Middleware/sensors/vd1943/vd1943.c ****   {
 4566              		.loc 1 938 3 view .LVU1345
 938:Lib/Camera_Middleware/sensors/vd1943/vd1943.c ****   {
 4567              		.loc 1 938 31 is_stmt 0 view .LVU1346
 4568 0280 95F84430 		ldrb	r3, [r5, #68]	@ zero_extendqisi2
 938:Lib/Camera_Middleware/sensors/vd1943/vd1943.c ****   {
 4569              		.loc 1 938 3 view .LVU1347
 4570 0284 122B     		cmp	r3, #18
 4571 0286 08D8     		bhi	.L330
 4572 0288 082B     		cmp	r3, #8
 4573 028a 03D8     		bhi	.L368
 4574 028c 013B     		subs	r3, r3, #1
 4575 028e 052B     		cmp	r3, #5
 4576 0290 3FF6BCAE 		bhi	.L370
 4577              	.L368:
 956:Lib/Camera_Middleware/sensors/vd1943/vd1943.c ****     break;
 4578              		.loc 1 956 13 view .LVU1348
 4579 0294 4FF00108 		mov	r8, #1
 4580 0298 04E0     		b	.L331
 4581              	.L330:
 938:Lib/Camera_Middleware/sensors/vd1943/vd1943.c ****   {
 4582              		.loc 1 938 3 view .LVU1349
 4583 029a 1A3B     		subs	r3, r3, #26
 4584 029c 092B     		cmp	r3, #9
 4585 029e 3FF6B5AE 		bhi	.L370
 4586 02a2 8046     		mov	r8, r0
 4587              	.L331:
 4588              	.LVL371:
 974:Lib/Camera_Middleware/sensors/vd1943/vd1943.c ****   VD1943_TraceError(ctx, ret);
 4589              		.loc 1 974 3 is_stmt 1 view .LVU1350
 974:Lib/Camera_Middleware/sensors/vd1943/vd1943.c ****   VD1943_TraceError(ctx, ret);
 4590              		.loc 1 974 9 is_stmt 0 view .LVU1351
 4591 02a4 4FF40A71 		mov	r1, #552
 4592 02a8 2846     		mov	r0, r5
 4593 02aa EB68     		ldr	r3, [r5, #12]
 4594 02ac 04AA     		add	r2, sp, #16
 4595 02ae 9847     		blx	r3
 4596              	.LVL372:
 975:Lib/Camera_Middleware/sensors/vd1943/vd1943.c ****   VD1943_dbg(ctx, 0, "system pll clock = %d hz\n", system_pll_clk);
 4597              		.loc 1 975 3 is_stmt 1 view .LVU1352
 975:Lib/Camera_Middleware/sensors/vd1943/vd1943.c ****   VD1943_dbg(ctx, 0, "system pll clock = %d hz\n", system_pll_clk);
 4598              		.loc 1 975 3 view .LVU1353
 4599 02b0 0446     		mov	r4, r0
 4600 02b2 38B3     		cbz	r0, .L333
 975:Lib/Camera_Middleware/sensors/vd1943/vd1943.c ****   VD1943_dbg(ctx, 0, "system pll clock = %d hz\n", system_pll_clk);
ARM GAS  C:\Users\DJESSOU\AppData\Local\Temp\cc3eovRL.s 			page 133


 4601              		.loc 1 975 3 discriminator 1 view .LVU1354
 975:Lib/Camera_Middleware/sensors/vd1943/vd1943.c ****   VD1943_dbg(ctx, 0, "system pll clock = %d hz\n", system_pll_clk);
 4602              		.loc 1 975 3 discriminator 1 view .LVU1355
 4603 02b4 40F2CF33 		movw	r3, #975
 4604 02b8 0290     		str	r0, [sp, #8]
 4605              	.LVL373:
 4606              	.L396:
1018:Lib/Camera_Middleware/sensors/vd1943/vd1943.c **** 
 4607              		.loc 1 1018 3 is_stmt 0 discriminator 1 view .LVU1356
 4608 02ba 114A     		ldr	r2, .L397+56
 4609 02bc 0193     		str	r3, [sp, #4]
 4610 02be D3E6     		b	.L390
 4611              	.LVL374:
 4612              	.L329:
1018:Lib/Camera_Middleware/sensors/vd1943/vd1943.c **** 
 4613              		.loc 1 1018 3 discriminator 1 view .LVU1357
 4614              	.LBE148:
 4615              	.LBE150:
 4616              	.LBE152:
 4617              	.LBE190:
 4618              	.LBB191:
 4619              	.LBB189:
 918:Lib/Camera_Middleware/sensors/vd1943/vd1943.c **** 
 4620              		.loc 1 918 3 is_stmt 1 discriminator 1 view .LVU1358
 918:Lib/Camera_Middleware/sensors/vd1943/vd1943.c **** 
 4621              		.loc 1 918 3 discriminator 1 view .LVU1359
 4622 02c0 40F29633 		movw	r3, #918
 4623 02c4 0290     		str	r0, [sp, #8]
 4624 02c6 AAE7     		b	.L395
 4625              	.L398:
 4626              		.align	2
 4627              	.L397:
 4628 02c8 B1000000 		.word	.LC13
 4629 02cc 00000000 		.word	__func__.15
 4630 02d0 09000000 		.word	.LC2
 4631 02d4 00000000 		.word	__func__.16
 4632 02d8 00000000 		.word	.LC4
 4633 02dc 00000000 		.word	__func__.14
 4634 02e0 A22A402A 		.word	708848290
 4635 02e4 51152001 		.word	18879825
 4636 02e8 00000000 		.word	vd1943_supported_modes
 4637 02ec 00000000 		.word	.LC24
 4638 02f0 00000000 		.word	__func__.13
 4639 02f4 14000000 		.word	.LC25
 4640 02f8 27000000 		.word	.LC26
 4641 02fc 3C000000 		.word	.LC27
 4642 0300 00000000 		.word	__func__.11
 4643              	.LVL375:
 4644              	.L333:
 918:Lib/Camera_Middleware/sensors/vd1943/vd1943.c **** 
 4645              		.loc 1 918 3 is_stmt 0 discriminator 1 view .LVU1360
 4646              	.LBE189:
 4647              	.LBE191:
 4648              	.LBB192:
 4649              	.LBB153:
 4650              	.LBB151:
 4651              	.LBB149:
ARM GAS  C:\Users\DJESSOU\AppData\Local\Temp\cc3eovRL.s 			page 134


 975:Lib/Camera_Middleware/sensors/vd1943/vd1943.c ****   VD1943_dbg(ctx, 0, "system pll clock = %d hz\n", system_pll_clk);
 4652              		.loc 1 975 3 is_stmt 1 discriminator 6 view .LVU1361
 975:Lib/Camera_Middleware/sensors/vd1943/vd1943.c ****   VD1943_dbg(ctx, 0, "system pll clock = %d hz\n", system_pll_clk);
 4653              		.loc 1 975 3 discriminator 8 view .LVU1362
 976:Lib/Camera_Middleware/sensors/vd1943/vd1943.c **** 
 4654              		.loc 1 976 3 view .LVU1363
 976:Lib/Camera_Middleware/sensors/vd1943/vd1943.c **** 
 4655              		.loc 1 976 3 view .LVU1364
 4656 0304 049B     		ldr	r3, [sp, #16]
 4657 0306 0321     		movs	r1, #3
 4658 0308 0193     		str	r3, [sp, #4]
 4659 030a 4FF47473 		mov	r3, #976
 4660 030e 954A     		ldr	r2, .L399
 4661 0310 0093     		str	r3, [sp]
 4662 0312 0346     		mov	r3, r0
 4663 0314 2846     		mov	r0, r5
 4664              	.LVL376:
 976:Lib/Camera_Middleware/sensors/vd1943/vd1943.c **** 
 4665              		.loc 1 976 3 is_stmt 0 view .LVU1365
 4666 0316 FFF7FEFF 		bl	VD1943_log_impl
 4667              	.LVL377:
 976:Lib/Camera_Middleware/sensors/vd1943/vd1943.c **** 
 4668              		.loc 1 976 3 is_stmt 1 discriminator 1 view .LVU1366
 979:Lib/Camera_Middleware/sensors/vd1943/vd1943.c ****   {
 4669              		.loc 1 979 3 view .LVU1367
 4670 031a 049E     		ldr	r6, [sp, #16]
 981:Lib/Camera_Middleware/sensors/vd1943/vd1943.c ****   }
 4671              		.loc 1 981 18 is_stmt 0 view .LVU1368
 4672 031c B8F1000F 		cmp	r8, #0
 4673 0320 4FEA5603 		lsr	r3, r6, #1
 989:Lib/Camera_Middleware/sensors/vd1943/vd1943.c ****   if (ret)
 4674              		.loc 1 989 9 view .LVU1369
 4675 0324 2846     		mov	r0, r5
 4676 0326 05A9     		add	r1, sp, #20
 981:Lib/Camera_Middleware/sensors/vd1943/vd1943.c ****   }
 4677              		.loc 1 981 18 view .LVU1370
 4678 0328 4FEA9606 		lsr	r6, r6, #2
 4679 032c 18BF     		it	ne
 4680 032e 1E46     		movne	r6, r3
 4681              	.LVL378:
 989:Lib/Camera_Middleware/sensors/vd1943/vd1943.c ****   if (ret)
 4682              		.loc 1 989 3 is_stmt 1 view .LVU1371
 989:Lib/Camera_Middleware/sensors/vd1943/vd1943.c ****   if (ret)
 4683              		.loc 1 989 9 is_stmt 0 view .LVU1372
 4684 0330 FFF7FEFF 		bl	VD1943_GetPixelDepth
 4685              	.LVL379:
 990:Lib/Camera_Middleware/sensors/vd1943/vd1943.c ****     return ret;
 4686              		.loc 1 990 3 is_stmt 1 view .LVU1373
 990:Lib/Camera_Middleware/sensors/vd1943/vd1943.c ****     return ret;
 4687              		.loc 1 990 6 is_stmt 0 view .LVU1374
 4688 0334 0446     		mov	r4, r0
 4689 0336 0028     		cmp	r0, #0
 4690 0338 7FF46AAE 		bne	.L291
 993:Lib/Camera_Middleware/sensors/vd1943/vd1943.c ****   mipi_pixelrate = mipi_bandwidth / bpp;
 4691              		.loc 1 993 3 is_stmt 1 view .LVU1375
 993:Lib/Camera_Middleware/sensors/vd1943/vd1943.c ****   mipi_pixelrate = mipi_bandwidth / bpp;
 4692              		.loc 1 993 96 is_stmt 0 view .LVU1376
ARM GAS  C:\Users\DJESSOU\AppData\Local\Temp\cc3eovRL.s 			page 135


 4693 033c EB6C     		ldr	r3, [r5, #76]
 4694              	.LVL380:
 994:Lib/Camera_Middleware/sensors/vd1943/vd1943.c **** 
 4695              		.loc 1 994 3 is_stmt 1 view .LVU1377
 993:Lib/Camera_Middleware/sensors/vd1943/vd1943.c ****   mipi_pixelrate = mipi_bandwidth / bpp;
 4696              		.loc 1 993 66 is_stmt 0 view .LVU1378
 4697 033e AA6C     		ldr	r2, [r5, #72]
 994:Lib/Camera_Middleware/sensors/vd1943/vd1943.c **** 
 4698              		.loc 1 994 35 view .LVU1379
 4699 0340 0599     		ldr	r1, [sp, #20]
 993:Lib/Camera_Middleware/sensors/vd1943/vd1943.c ****   mipi_pixelrate = mipi_bandwidth / bpp;
 4700              		.loc 1 993 66 view .LVU1380
 4701 0342 5A43     		muls	r2, r3, r2
 4702              	.LVL381:
 994:Lib/Camera_Middleware/sensors/vd1943/vd1943.c **** 
 4703              		.loc 1 994 18 view .LVU1381
 4704 0344 B2FBF1F2 		udiv	r2, r2, r1
 4705              	.LVL382:
 997:Lib/Camera_Middleware/sensors/vd1943/vd1943.c ****   {
 4706              		.loc 1 997 3 is_stmt 1 view .LVU1382
 997:Lib/Camera_Middleware/sensors/vd1943/vd1943.c ****   {
 4707              		.loc 1 997 6 is_stmt 0 view .LVU1383
 4708 0348 B242     		cmp	r2, r6
 4709 034a 12D2     		bcs	.L336
1003:Lib/Camera_Middleware/sensors/vd1943/vd1943.c ****     mipi_interpacket_delay_in_px = 30 * 8 * ctx->ctx.config_save.out_itf.datalane_nb / bpp;
 4710              		.loc 1 1003 5 is_stmt 1 view .LVU1384
 4711              	.LVL383:
1004:Lib/Camera_Middleware/sensors/vd1943/vd1943.c ****     mipi_virtual_linelength = mipi_transition_cst_in_px +
 4712              		.loc 1 1004 5 view .LVU1385
1005:Lib/Camera_Middleware/sensors/vd1943/vd1943.c ****                               vd1943_supported_modes[ctx->ctx.config_save.resolution].width +
 4713              		.loc 1 1005 5 view .LVU1386
1008:Lib/Camera_Middleware/sensors/vd1943/vd1943.c ****   }
 4714              		.loc 1 1008 5 view .LVU1387
1004:Lib/Camera_Middleware/sensors/vd1943/vd1943.c ****     mipi_virtual_linelength = mipi_transition_cst_in_px +
 4715              		.loc 1 1004 43 is_stmt 0 view .LVU1388
 4716 034c F020     		movs	r0, #240
 4717              	.LVL384:
1004:Lib/Camera_Middleware/sensors/vd1943/vd1943.c ****     mipi_virtual_linelength = mipi_transition_cst_in_px +
 4718              		.loc 1 1004 43 view .LVU1389
 4719 034e 5843     		muls	r0, r3, r0
 4720              	.LVL385:
1004:Lib/Camera_Middleware/sensors/vd1943/vd1943.c ****     mipi_virtual_linelength = mipi_transition_cst_in_px +
 4721              		.loc 1 1004 34 view .LVU1390
 4722 0350 B0FBF1F0 		udiv	r0, r0, r1
 4723              	.LVL386:
1006:Lib/Camera_Middleware/sensors/vd1943/vd1943.c ****                               mipi_interpacket_delay_in_px;
 4724              		.loc 1 1006 74 view .LVU1391
 4725 0354 95F83C30 		ldrb	r3, [r5, #60]	@ zero_extendqisi2
 4726              	.LVL387:
1006:Lib/Camera_Middleware/sensors/vd1943/vd1943.c ****                               mipi_interpacket_delay_in_px;
 4727              		.loc 1 1006 86 view .LVU1392
 4728 0358 07EB0317 		add	r7, r7, r3, lsl #4
1006:Lib/Camera_Middleware/sensors/vd1943/vd1943.c ****                               mipi_interpacket_delay_in_px;
 4729              		.loc 1 1006 93 view .LVU1393
 4730 035c BB68     		ldr	r3, [r7, #8]
 4731 035e 1844     		add	r0, r0, r3
 4732              	.LVL388:
ARM GAS  C:\Users\DJESSOU\AppData\Local\Temp\cc3eovRL.s 			page 136


1003:Lib/Camera_Middleware/sensors/vd1943/vd1943.c ****     mipi_interpacket_delay_in_px = 30 * 8 * ctx->ctx.config_save.out_itf.datalane_nb / bpp;
 4733              		.loc 1 1003 31 view .LVU1394
 4734 0360 814B     		ldr	r3, .L399+4
 4735 0362 B2FBF3F3 		udiv	r3, r2, r3
 4736              	.LVL389:
1006:Lib/Camera_Middleware/sensors/vd1943/vd1943.c ****                               mipi_interpacket_delay_in_px;
 4737              		.loc 1 1006 93 view .LVU1395
 4738 0366 1844     		add	r0, r0, r3
1008:Lib/Camera_Middleware/sensors/vd1943/vd1943.c ****   }
 4739              		.loc 1 1008 29 view .LVU1396
 4740 0368 A0FB0601 		umull	r0, r1, r0, r6
 4741              	.LVL390:
1008:Lib/Camera_Middleware/sensors/vd1943/vd1943.c ****   }
 4742              		.loc 1 1008 29 view .LVU1397
 4743 036c 2346     		mov	r3, r4
 4744              	.LVL391:
1008:Lib/Camera_Middleware/sensors/vd1943/vd1943.c ****   }
 4745              		.loc 1 1008 29 view .LVU1398
 4746 036e FFF7FEFF 		bl	__aeabi_uldivmod
 4747              	.LVL392:
 4748              	.L336:
1010:Lib/Camera_Middleware/sensors/vd1943/vd1943.c **** 
 4749              		.loc 1 1010 3 is_stmt 1 view .LVU1399
1013:Lib/Camera_Middleware/sensors/vd1943/vd1943.c **** 
 4750              		.loc 1 1013 3 view .LVU1400
1013:Lib/Camera_Middleware/sensors/vd1943/vd1943.c **** 
 4751              		.loc 1 1013 31 is_stmt 0 view .LVU1401
 4752 0372 40F62F53 		movw	r3, #3375
1010:Lib/Camera_Middleware/sensors/vd1943/vd1943.c **** 
 4753              		.loc 1 1010 15 view .LVU1402
 4754 0376 80B2     		uxth	r0, r0
1013:Lib/Camera_Middleware/sensors/vd1943/vd1943.c **** 
 4755              		.loc 1 1013 31 view .LVU1403
 4756 0378 9842     		cmp	r0, r3
 4757 037a 38BF     		it	cc
 4758 037c 1846     		movcc	r0, r3
 4759              	.LVL393:
1013:Lib/Camera_Middleware/sensors/vd1943/vd1943.c **** 
 4760              		.loc 1 1013 15 view .LVU1404
 4761 037e 4FF6FC74 		movw	r4, #65532
 4762              	.LVL394:
1015:Lib/Camera_Middleware/sensors/vd1943/vd1943.c **** 
 4763              		.loc 1 1015 3 view .LVU1405
 4764 0382 40F2F733 		movw	r3, #1015
1013:Lib/Camera_Middleware/sensors/vd1943/vd1943.c **** 
 4765              		.loc 1 1013 31 view .LVU1406
 4766 0386 0330     		adds	r0, r0, #3
1013:Lib/Camera_Middleware/sensors/vd1943/vd1943.c **** 
 4767              		.loc 1 1013 15 view .LVU1407
 4768 0388 0440     		ands	r4, r4, r0
 4769              	.LVL395:
1015:Lib/Camera_Middleware/sensors/vd1943/vd1943.c **** 
 4770              		.loc 1 1015 3 is_stmt 1 view .LVU1408
1015:Lib/Camera_Middleware/sensors/vd1943/vd1943.c **** 
 4771              		.loc 1 1015 3 view .LVU1409
 4772 038a 0321     		movs	r1, #3
 4773 038c 2846     		mov	r0, r5
ARM GAS  C:\Users\DJESSOU\AppData\Local\Temp\cc3eovRL.s 			page 137


 4774 038e 774A     		ldr	r2, .L399+8
 4775 0390 0194     		str	r4, [sp, #4]
 4776 0392 0093     		str	r3, [sp]
 4777 0394 0023     		movs	r3, #0
 4778 0396 FFF7FEFF 		bl	VD1943_log_impl
 4779              	.LVL396:
1015:Lib/Camera_Middleware/sensors/vd1943/vd1943.c **** 
 4780              		.loc 1 1015 3 discriminator 1 view .LVU1410
1017:Lib/Camera_Middleware/sensors/vd1943/vd1943.c ****   VD1943_TraceError(ctx, ret);
 4781              		.loc 1 1017 3 view .LVU1411
1017:Lib/Camera_Middleware/sensors/vd1943/vd1943.c ****   VD1943_TraceError(ctx, ret);
 4782              		.loc 1 1017 9 is_stmt 0 view .LVU1412
 4783 039a 2246     		mov	r2, r4
 4784 039c 40F63411 		movw	r1, #2356
 4785 03a0 2846     		mov	r0, r5
 4786 03a2 6B69     		ldr	r3, [r5, #20]
 4787 03a4 9847     		blx	r3
 4788              	.LVL397:
1018:Lib/Camera_Middleware/sensors/vd1943/vd1943.c **** 
 4789              		.loc 1 1018 3 is_stmt 1 view .LVU1413
1018:Lib/Camera_Middleware/sensors/vd1943/vd1943.c **** 
 4790              		.loc 1 1018 3 view .LVU1414
 4791 03a6 0446     		mov	r4, r0
 4792              	.LVL398:
1018:Lib/Camera_Middleware/sensors/vd1943/vd1943.c **** 
 4793              		.loc 1 1018 3 is_stmt 0 view .LVU1415
 4794 03a8 18B1     		cbz	r0, .L337
1018:Lib/Camera_Middleware/sensors/vd1943/vd1943.c **** 
 4795              		.loc 1 1018 3 is_stmt 1 discriminator 1 view .LVU1416
1018:Lib/Camera_Middleware/sensors/vd1943/vd1943.c **** 
 4796              		.loc 1 1018 3 discriminator 1 view .LVU1417
 4797 03aa 40F2FA33 		movw	r3, #1018
 4798 03ae 0290     		str	r0, [sp, #8]
 4799 03b0 83E7     		b	.L396
 4800              	.L337:
 4801              	.LVL399:
1018:Lib/Camera_Middleware/sensors/vd1943/vd1943.c **** 
 4802              		.loc 1 1018 3 is_stmt 0 discriminator 1 view .LVU1418
 4803              	.LBE149:
 4804              	.LBE151:
1097:Lib/Camera_Middleware/sensors/vd1943/vd1943.c ****     return ret;
 4805              		.loc 1 1097 3 is_stmt 1 view .LVU1419
1100:Lib/Camera_Middleware/sensors/vd1943/vd1943.c ****   if (ret)
 4806              		.loc 1 1100 3 view .LVU1420
1100:Lib/Camera_Middleware/sensors/vd1943/vd1943.c ****   if (ret)
 4807              		.loc 1 1100 9 is_stmt 0 view .LVU1421
 4808 03b2 2846     		mov	r0, r5
 4809 03b4 296C     		ldr	r1, [r5, #64]
 4810 03b6 05AA     		add	r2, sp, #20
 4811 03b8 FFF7FEFF 		bl	VD1943_ComputeFrameLength
 4812              	.LVL400:
1101:Lib/Camera_Middleware/sensors/vd1943/vd1943.c ****     return ret;
 4813              		.loc 1 1101 3 is_stmt 1 view .LVU1422
1101:Lib/Camera_Middleware/sensors/vd1943/vd1943.c ****     return ret;
 4814              		.loc 1 1101 6 is_stmt 0 view .LVU1423
 4815 03bc 0446     		mov	r4, r0
 4816 03be 0028     		cmp	r0, #0
ARM GAS  C:\Users\DJESSOU\AppData\Local\Temp\cc3eovRL.s 			page 138


 4817 03c0 7FF426AE 		bne	.L291
1104:Lib/Camera_Middleware/sensors/vd1943/vd1943.c ****   ret = ctx->write16(ctx, VD1943_REG_FRAME_LENGTH(0), frame_length);
 4818              		.loc 1 1104 3 is_stmt 1 view .LVU1424
1104:Lib/Camera_Middleware/sensors/vd1943/vd1943.c ****   ret = ctx->write16(ctx, VD1943_REG_FRAME_LENGTH(0), frame_length);
 4819              		.loc 1 1104 3 view .LVU1425
 4820 03c4 2B6C     		ldr	r3, [r5, #64]
 4821 03c6 BDF81460 		ldrh	r6, [sp, #20]
 4822 03ca 0321     		movs	r1, #3
 4823 03cc CDE90163 		strd	r6, r3, [sp, #4]
 4824 03d0 4FF48A63 		mov	r3, #1104
 4825 03d4 664A     		ldr	r2, .L399+12
 4826 03d6 0093     		str	r3, [sp]
 4827 03d8 0346     		mov	r3, r0
 4828 03da 2846     		mov	r0, r5
 4829              	.LVL401:
1104:Lib/Camera_Middleware/sensors/vd1943/vd1943.c ****   ret = ctx->write16(ctx, VD1943_REG_FRAME_LENGTH(0), frame_length);
 4830              		.loc 1 1104 3 is_stmt 0 view .LVU1426
 4831 03dc FFF7FEFF 		bl	VD1943_log_impl
 4832              	.LVL402:
1104:Lib/Camera_Middleware/sensors/vd1943/vd1943.c ****   ret = ctx->write16(ctx, VD1943_REG_FRAME_LENGTH(0), frame_length);
 4833              		.loc 1 1104 3 is_stmt 1 discriminator 1 view .LVU1427
1105:Lib/Camera_Middleware/sensors/vd1943/vd1943.c ****   VD1943_TraceError(ctx, ret);
 4834              		.loc 1 1105 3 view .LVU1428
1105:Lib/Camera_Middleware/sensors/vd1943/vd1943.c ****   VD1943_TraceError(ctx, ret);
 4835              		.loc 1 1105 9 is_stmt 0 view .LVU1429
 4836 03e0 3246     		mov	r2, r6
 4837 03e2 40F64631 		movw	r1, #2886
 4838 03e6 2846     		mov	r0, r5
 4839 03e8 6B69     		ldr	r3, [r5, #20]
 4840 03ea 9847     		blx	r3
 4841              	.LVL403:
1106:Lib/Camera_Middleware/sensors/vd1943/vd1943.c **** 
 4842              		.loc 1 1106 3 is_stmt 1 view .LVU1430
1106:Lib/Camera_Middleware/sensors/vd1943/vd1943.c **** 
 4843              		.loc 1 1106 3 view .LVU1431
 4844 03ec 0446     		mov	r4, r0
 4845 03ee 10BB     		cbnz	r0, .L339
 4846              	.LVL404:
1106:Lib/Camera_Middleware/sensors/vd1943/vd1943.c **** 
 4847              		.loc 1 1106 3 is_stmt 0 view .LVU1432
 4848              	.LBE153:
 4849              	.LBE192:
1287:Lib/Camera_Middleware/sensors/vd1943/vd1943.c ****     return ret;
 4850              		.loc 1 1287 3 is_stmt 1 view .LVU1433
1290:Lib/Camera_Middleware/sensors/vd1943/vd1943.c ****   if (ret)
 4851              		.loc 1 1290 3 view .LVU1434
 4852              	.LBB193:
 4853              	.LBI193:
1162:Lib/Camera_Middleware/sensors/vd1943/vd1943.c **** {
 4854              		.loc 1 1162 12 view .LVU1435
 4855              	.LBB194:
1164:Lib/Camera_Middleware/sensors/vd1943/vd1943.c ****   uint8_t mode;
 4856              		.loc 1 1164 3 view .LVU1436
1165:Lib/Camera_Middleware/sensors/vd1943/vd1943.c ****   int ret;
 4857              		.loc 1 1165 3 view .LVU1437
1166:Lib/Camera_Middleware/sensors/vd1943/vd1943.c **** 
 4858              		.loc 1 1166 3 view .LVU1438
ARM GAS  C:\Users\DJESSOU\AppData\Local\Temp\cc3eovRL.s 			page 139


1168:Lib/Camera_Middleware/sensors/vd1943/vd1943.c ****   case VD1943_MIRROR_FLIP_NONE:
 4859              		.loc 1 1168 3 view .LVU1439
1168:Lib/Camera_Middleware/sensors/vd1943/vd1943.c ****   case VD1943_MIRROR_FLIP_NONE:
 4860              		.loc 1 1168 38 is_stmt 0 view .LVU1440
 4861 03f0 95F84530 		ldrb	r3, [r5, #69]	@ zero_extendqisi2
 4862 03f4 032B     		cmp	r3, #3
 4863 03f6 3FF609AE 		bhi	.L370
 4864              	.LVL405:
1185:Lib/Camera_Middleware/sensors/vd1943/vd1943.c ****   VD1943_TraceError(ctx, ret);
 4865              		.loc 1 1185 3 is_stmt 1 view .LVU1441
1185:Lib/Camera_Middleware/sensors/vd1943/vd1943.c ****   VD1943_TraceError(ctx, ret);
 4866              		.loc 1 1185 9 is_stmt 0 view .LVU1442
 4867 03fa 5E4A     		ldr	r2, .L399+16
 4868 03fc 2C69     		ldr	r4, [r5, #16]
 4869 03fe 40F63711 		movw	r1, #2359
 4870 0402 2846     		mov	r0, r5
 4871 0404 D25C     		ldrb	r2, [r2, r3]	@ zero_extendqisi2
 4872 0406 A047     		blx	r4
 4873              	.LVL406:
1186:Lib/Camera_Middleware/sensors/vd1943/vd1943.c **** 
 4874              		.loc 1 1186 3 is_stmt 1 view .LVU1443
1186:Lib/Camera_Middleware/sensors/vd1943/vd1943.c **** 
 4875              		.loc 1 1186 3 view .LVU1444
 4876 0408 0446     		mov	r4, r0
 4877 040a D0B9     		cbnz	r0, .L342
 4878              	.LVL407:
1186:Lib/Camera_Middleware/sensors/vd1943/vd1943.c **** 
 4879              		.loc 1 1186 3 is_stmt 0 view .LVU1445
 4880              	.LBE194:
 4881              	.LBE193:
1291:Lib/Camera_Middleware/sensors/vd1943/vd1943.c ****     return ret;
 4882              		.loc 1 1291 3 is_stmt 1 view .LVU1446
1294:Lib/Camera_Middleware/sensors/vd1943/vd1943.c ****   if (ret)
 4883              		.loc 1 1294 3 view .LVU1447
 4884              	.LBB196:
 4885              	.LBI196:
1191:Lib/Camera_Middleware/sensors/vd1943/vd1943.c **** {
 4886              		.loc 1 1191 12 view .LVU1448
 4887              	.LBB197:
1193:Lib/Camera_Middleware/sensors/vd1943/vd1943.c ****   uint16_t reg16;
 4888              		.loc 1 1193 3 view .LVU1449
1194:Lib/Camera_Middleware/sensors/vd1943/vd1943.c ****   int ret;
 4889              		.loc 1 1194 3 view .LVU1450
1195:Lib/Camera_Middleware/sensors/vd1943/vd1943.c **** 
 4890              		.loc 1 1195 3 view .LVU1451
1197:Lib/Camera_Middleware/sensors/vd1943/vd1943.c ****   case VD1943_PATGEN_DISABLE:
 4891              		.loc 1 1197 3 view .LVU1452
1197:Lib/Camera_Middleware/sensors/vd1943/vd1943.c ****   case VD1943_PATGEN_DISABLE:
 4892              		.loc 1 1197 38 is_stmt 0 view .LVU1453
 4893 040c 95F84630 		ldrb	r3, [r5, #70]	@ zero_extendqisi2
 4894 0410 022B     		cmp	r3, #2
 4895 0412 3FF6FBAD 		bhi	.L370
 4896              	.LVL408:
1211:Lib/Camera_Middleware/sensors/vd1943/vd1943.c ****   VD1943_TraceError(ctx, ret);
 4897              		.loc 1 1211 3 is_stmt 1 view .LVU1454
1211:Lib/Camera_Middleware/sensors/vd1943/vd1943.c ****   VD1943_TraceError(ctx, ret);
 4898              		.loc 1 1211 9 is_stmt 0 view .LVU1455
ARM GAS  C:\Users\DJESSOU\AppData\Local\Temp\cc3eovRL.s 			page 140


 4899 0416 584A     		ldr	r2, .L399+20
 4900 0418 6C69     		ldr	r4, [r5, #20]
 4901 041a 40F63811 		movw	r1, #2360
 4902 041e 2846     		mov	r0, r5
 4903 0420 32F81320 		ldrh	r2, [r2, r3, lsl #1]
 4904 0424 A047     		blx	r4
 4905              	.LVL409:
1212:Lib/Camera_Middleware/sensors/vd1943/vd1943.c **** 
 4906              		.loc 1 1212 3 is_stmt 1 view .LVU1456
1212:Lib/Camera_Middleware/sensors/vd1943/vd1943.c **** 
 4907              		.loc 1 1212 3 view .LVU1457
 4908 0426 0446     		mov	r4, r0
 4909 0428 88B1     		cbz	r0, .L344
1212:Lib/Camera_Middleware/sensors/vd1943/vd1943.c **** 
 4910              		.loc 1 1212 3 discriminator 1 view .LVU1458
1212:Lib/Camera_Middleware/sensors/vd1943/vd1943.c **** 
 4911              		.loc 1 1212 3 discriminator 1 view .LVU1459
 4912 042a 40F2BC43 		movw	r3, #1212
 4913 042e 534A     		ldr	r2, .L399+24
 4914 0430 0290     		str	r0, [sp, #8]
 4915 0432 0193     		str	r3, [sp, #4]
 4916 0434 18E6     		b	.L390
 4917              	.LVL410:
 4918              	.L339:
1212:Lib/Camera_Middleware/sensors/vd1943/vd1943.c **** 
 4919              		.loc 1 1212 3 is_stmt 0 discriminator 1 view .LVU1460
 4920              	.LBE197:
 4921              	.LBE196:
 4922              	.LBB199:
 4923              	.LBB154:
1106:Lib/Camera_Middleware/sensors/vd1943/vd1943.c **** 
 4924              		.loc 1 1106 3 is_stmt 1 discriminator 1 view .LVU1461
1106:Lib/Camera_Middleware/sensors/vd1943/vd1943.c **** 
 4925              		.loc 1 1106 3 discriminator 1 view .LVU1462
 4926 0436 40F25243 		movw	r3, #1106
 4927 043a 514A     		ldr	r2, .L399+28
 4928 043c 0290     		str	r0, [sp, #8]
 4929 043e 0193     		str	r3, [sp, #4]
 4930 0440 12E6     		b	.L390
 4931              	.LVL411:
 4932              	.L342:
1106:Lib/Camera_Middleware/sensors/vd1943/vd1943.c **** 
 4933              		.loc 1 1106 3 is_stmt 0 discriminator 1 view .LVU1463
 4934              	.LBE154:
 4935              	.LBE199:
 4936              	.LBB200:
 4937              	.LBB195:
1186:Lib/Camera_Middleware/sensors/vd1943/vd1943.c **** 
 4938              		.loc 1 1186 3 is_stmt 1 discriminator 1 view .LVU1464
1186:Lib/Camera_Middleware/sensors/vd1943/vd1943.c **** 
 4939              		.loc 1 1186 3 discriminator 1 view .LVU1465
 4940 0442 40F2A243 		movw	r3, #1186
 4941 0446 4F4A     		ldr	r2, .L399+32
 4942 0448 0290     		str	r0, [sp, #8]
 4943 044a 0193     		str	r3, [sp, #4]
 4944 044c 0CE6     		b	.L390
 4945              	.LVL412:
ARM GAS  C:\Users\DJESSOU\AppData\Local\Temp\cc3eovRL.s 			page 141


 4946              	.L344:
1186:Lib/Camera_Middleware/sensors/vd1943/vd1943.c **** 
 4947              		.loc 1 1186 3 is_stmt 0 discriminator 1 view .LVU1466
 4948 044e 2F46     		mov	r7, r5
 4949              	.LBE195:
 4950              	.LBE200:
 4951              	.LBB201:
 4952              	.LBB198:
1212:Lib/Camera_Middleware/sensors/vd1943/vd1943.c **** 
 4953              		.loc 1 1212 3 view .LVU1467
 4954 0450 A946     		mov	r9, r5
 4955 0452 40F6D426 		movw	r6, #2772
 4956              	.LBE198:
 4957              	.LBE201:
 4958              	.LBB202:
 4959              	.LBB203:
1223:Lib/Camera_Middleware/sensors/vd1943/vd1943.c ****     ret = ctx->write8(ctx, VD1943_REG_GPIO_x_CTRL(i), drv_vd1943_ctx->config_save.gpios[i].gpio_ctr
 4960              		.loc 1 1223 17 discriminator 1 view .LVU1468
 4961 0456 40F6D828 		movw	r8, #2776
 4962              	.LVL413:
 4963              	.L347:
1224:Lib/Camera_Middleware/sensors/vd1943/vd1943.c ****     VD1943_TraceError(ctx, ret);
 4964              		.loc 1 1224 5 is_stmt 1 view .LVU1469
1224:Lib/Camera_Middleware/sensors/vd1943/vd1943.c ****     VD1943_TraceError(ctx, ret);
 4965              		.loc 1 1224 11 is_stmt 0 view .LVU1470
 4966 045a 3146     		mov	r1, r6
 4967 045c 2846     		mov	r0, r5
 4968 045e 2B69     		ldr	r3, [r5, #16]
 4969 0460 99F87520 		ldrb	r2, [r9, #117]	@ zero_extendqisi2
 4970 0464 9847     		blx	r3
 4971              	.LVL414:
1225:Lib/Camera_Middleware/sensors/vd1943/vd1943.c ****     ret = ctx->write8(ctx, VD1943_REG_GPIO_CTRL(0), drv_vd1943_ctx->config_save.gpios[i].enable);
 4972              		.loc 1 1225 5 is_stmt 1 view .LVU1471
1225:Lib/Camera_Middleware/sensors/vd1943/vd1943.c ****     ret = ctx->write8(ctx, VD1943_REG_GPIO_CTRL(0), drv_vd1943_ctx->config_save.gpios[i].enable);
 4973              		.loc 1 1225 5 view .LVU1472
 4974 0466 0446     		mov	r4, r0
 4975 0468 28B1     		cbz	r0, .L345
1225:Lib/Camera_Middleware/sensors/vd1943/vd1943.c ****     ret = ctx->write8(ctx, VD1943_REG_GPIO_CTRL(0), drv_vd1943_ctx->config_save.gpios[i].enable);
 4976              		.loc 1 1225 5 discriminator 1 view .LVU1473
1225:Lib/Camera_Middleware/sensors/vd1943/vd1943.c ****     ret = ctx->write8(ctx, VD1943_REG_GPIO_CTRL(0), drv_vd1943_ctx->config_save.gpios[i].enable);
 4977              		.loc 1 1225 5 discriminator 1 view .LVU1474
 4978 046a 40F2C943 		movw	r3, #1225
 4979 046e 0290     		str	r0, [sp, #8]
 4980              	.L394:
1227:Lib/Camera_Middleware/sensors/vd1943/vd1943.c ****   }
 4981              		.loc 1 1227 5 is_stmt 0 discriminator 1 view .LVU1475
 4982 0470 454A     		ldr	r2, .L399+36
 4983 0472 0193     		str	r3, [sp, #4]
 4984 0474 F8E5     		b	.L390
 4985              	.L345:
1225:Lib/Camera_Middleware/sensors/vd1943/vd1943.c ****     ret = ctx->write8(ctx, VD1943_REG_GPIO_CTRL(0), drv_vd1943_ctx->config_save.gpios[i].enable);
 4986              		.loc 1 1225 5 is_stmt 1 discriminator 6 view .LVU1476
1225:Lib/Camera_Middleware/sensors/vd1943/vd1943.c ****     ret = ctx->write8(ctx, VD1943_REG_GPIO_CTRL(0), drv_vd1943_ctx->config_save.gpios[i].enable);
 4987              		.loc 1 1225 5 discriminator 8 view .LVU1477
1226:Lib/Camera_Middleware/sensors/vd1943/vd1943.c ****     VD1943_TraceError(ctx, ret);
 4988              		.loc 1 1226 5 view .LVU1478
1226:Lib/Camera_Middleware/sensors/vd1943/vd1943.c ****     VD1943_TraceError(ctx, ret);
ARM GAS  C:\Users\DJESSOU\AppData\Local\Temp\cc3eovRL.s 			page 142


 4989              		.loc 1 1226 11 is_stmt 0 view .LVU1479
 4990 0476 40F64931 		movw	r1, #2889
 4991 047a 2846     		mov	r0, r5
 4992              	.LVL415:
1226:Lib/Camera_Middleware/sensors/vd1943/vd1943.c ****     VD1943_TraceError(ctx, ret);
 4993              		.loc 1 1226 11 view .LVU1480
 4994 047c 2B69     		ldr	r3, [r5, #16]
 4995 047e 99F87620 		ldrb	r2, [r9, #118]	@ zero_extendqisi2
 4996 0482 9847     		blx	r3
 4997              	.LVL416:
1227:Lib/Camera_Middleware/sensors/vd1943/vd1943.c ****   }
 4998              		.loc 1 1227 5 is_stmt 1 view .LVU1481
1227:Lib/Camera_Middleware/sensors/vd1943/vd1943.c ****   }
 4999              		.loc 1 1227 5 view .LVU1482
 5000 0484 0446     		mov	r4, r0
 5001 0486 C8B9     		cbnz	r0, .L346
1227:Lib/Camera_Middleware/sensors/vd1943/vd1943.c ****   }
 5002              		.loc 1 1227 5 discriminator 3 view .LVU1483
1227:Lib/Camera_Middleware/sensors/vd1943/vd1943.c ****   }
 5003              		.loc 1 1227 5 discriminator 3 view .LVU1484
1227:Lib/Camera_Middleware/sensors/vd1943/vd1943.c ****   }
 5004              		.loc 1 1227 5 discriminator 6 view .LVU1485
1227:Lib/Camera_Middleware/sensors/vd1943/vd1943.c ****   }
 5005              		.loc 1 1227 5 discriminator 8 view .LVU1486
1223:Lib/Camera_Middleware/sensors/vd1943/vd1943.c ****     ret = ctx->write8(ctx, VD1943_REG_GPIO_x_CTRL(i), drv_vd1943_ctx->config_save.gpios[i].gpio_ctr
 5006              		.loc 1 1223 36 discriminator 2 view .LVU1487
1223:Lib/Camera_Middleware/sensors/vd1943/vd1943.c ****     ret = ctx->write8(ctx, VD1943_REG_GPIO_x_CTRL(i), drv_vd1943_ctx->config_save.gpios[i].gpio_ctr
 5007              		.loc 1 1223 17 discriminator 1 view .LVU1488
 5008 0488 0136     		adds	r6, r6, #1
 5009 048a B6B2     		uxth	r6, r6
 5010 048c 4645     		cmp	r6, r8
 5011 048e 09F10209 		add	r9, r9, #2
 5012 0492 E2D1     		bne	.L347
 5013              	.LVL417:
1223:Lib/Camera_Middleware/sensors/vd1943/vd1943.c ****     ret = ctx->write8(ctx, VD1943_REG_GPIO_x_CTRL(i), drv_vd1943_ctx->config_save.gpios[i].gpio_ctr
 5014              		.loc 1 1223 17 is_stmt 0 discriminator 1 view .LVU1489
 5015              	.LBE203:
 5016              	.LBE202:
1299:Lib/Camera_Middleware/sensors/vd1943/vd1943.c ****     return ret;
 5017              		.loc 1 1299 3 is_stmt 1 view .LVU1490
1302:Lib/Camera_Middleware/sensors/vd1943/vd1943.c ****   if (ret)
 5018              		.loc 1 1302 3 view .LVU1491
 5019              	.LBB205:
 5020              	.LBI205:
1233:Lib/Camera_Middleware/sensors/vd1943/vd1943.c **** {
 5021              		.loc 1 1233 12 view .LVU1492
 5022              	.LBB206:
1235:Lib/Camera_Middleware/sensors/vd1943/vd1943.c ****   int i;
 5023              		.loc 1 1235 3 view .LVU1493
1236:Lib/Camera_Middleware/sensors/vd1943/vd1943.c ****   int ret;
 5024              		.loc 1 1236 3 view .LVU1494
1237:Lib/Camera_Middleware/sensors/vd1943/vd1943.c **** 
 5025              		.loc 1 1237 3 view .LVU1495
1240:Lib/Camera_Middleware/sensors/vd1943/vd1943.c ****     for (i = 0; i < VD1943_GPIO_NB; i++) {
 5026              		.loc 1 1240 3 view .LVU1496
1240:Lib/Camera_Middleware/sensors/vd1943/vd1943.c ****     for (i = 0; i < VD1943_GPIO_NB; i++) {
 5027              		.loc 1 1240 34 is_stmt 0 view .LVU1497
ARM GAS  C:\Users\DJESSOU\AppData\Local\Temp\cc3eovRL.s 			page 143


 5028 0494 95F87420 		ldrb	r2, [r5, #116]	@ zero_extendqisi2
1240:Lib/Camera_Middleware/sensors/vd1943/vd1943.c ****     for (i = 0; i < VD1943_GPIO_NB; i++) {
 5029              		.loc 1 1240 6 view .LVU1498
 5030 0498 012A     		cmp	r2, #1
 5031 049a 13D1     		bne	.L349
 5032 049c 0423     		movs	r3, #4
 5033              	.L351:
1242:Lib/Camera_Middleware/sensors/vd1943/vd1943.c ****         (drv_vd1943_ctx->config_save.gpios[i].enable == VD1943_GPIO_ENABLE)) {
 5034              		.loc 1 1242 7 is_stmt 1 view .LVU1499
1242:Lib/Camera_Middleware/sensors/vd1943/vd1943.c ****         (drv_vd1943_ctx->config_save.gpios[i].enable == VD1943_GPIO_ENABLE)) {
 5035              		.loc 1 1242 10 is_stmt 0 view .LVU1500
 5036 049e 97F87510 		ldrb	r1, [r7, #117]	@ zero_extendqisi2
 5037 04a2 01F00501 		and	r1, r1, #5
 5038 04a6 0529     		cmp	r1, #5
 5039 04a8 03D1     		bne	.L350
1242:Lib/Camera_Middleware/sensors/vd1943/vd1943.c ****         (drv_vd1943_ctx->config_save.gpios[i].enable == VD1943_GPIO_ENABLE)) {
 5040              		.loc 1 1242 109 discriminator 1 view .LVU1501
 5041 04aa 97F87610 		ldrb	r1, [r7, #118]	@ zero_extendqisi2
 5042 04ae 0129     		cmp	r1, #1
 5043 04b0 08D0     		beq	.L349
 5044              	.L350:
1241:Lib/Camera_Middleware/sensors/vd1943/vd1943.c ****       if (((drv_vd1943_ctx->config_save.gpios[i].gpio_ctrl & VD1943_GPIO_FSYNC_IN) == VD1943_GPIO_F
 5045              		.loc 1 1241 38 is_stmt 1 discriminator 2 view .LVU1502
1241:Lib/Camera_Middleware/sensors/vd1943/vd1943.c ****       if (((drv_vd1943_ctx->config_save.gpios[i].gpio_ctrl & VD1943_GPIO_FSYNC_IN) == VD1943_GPIO_F
 5046              		.loc 1 1241 19 discriminator 1 view .LVU1503
 5047 04b2 013B     		subs	r3, r3, #1
 5048 04b4 07F10207 		add	r7, r7, #2
 5049 04b8 F1D1     		bne	.L351
 5050 04ba A7E5     		b	.L370
 5051              	.LVL418:
 5052              	.L346:
1241:Lib/Camera_Middleware/sensors/vd1943/vd1943.c ****       if (((drv_vd1943_ctx->config_save.gpios[i].gpio_ctrl & VD1943_GPIO_FSYNC_IN) == VD1943_GPIO_F
 5053              		.loc 1 1241 19 is_stmt 0 discriminator 1 view .LVU1504
 5054              	.LBE206:
 5055              	.LBE205:
 5056              	.LBB209:
 5057              	.LBB204:
1227:Lib/Camera_Middleware/sensors/vd1943/vd1943.c ****   }
 5058              		.loc 1 1227 5 is_stmt 1 discriminator 1 view .LVU1505
1227:Lib/Camera_Middleware/sensors/vd1943/vd1943.c ****   }
 5059              		.loc 1 1227 5 discriminator 1 view .LVU1506
 5060 04bc 40F2CB43 		movw	r3, #1227
 5061 04c0 0290     		str	r0, [sp, #8]
 5062 04c2 D5E7     		b	.L394
 5063              	.LVL419:
 5064              	.L349:
1227:Lib/Camera_Middleware/sensors/vd1943/vd1943.c ****   }
 5065              		.loc 1 1227 5 is_stmt 0 discriminator 1 view .LVU1507
 5066              	.LBE204:
 5067              	.LBE209:
 5068              	.LBB210:
 5069              	.LBB207:
1254:Lib/Camera_Middleware/sensors/vd1943/vd1943.c ****   VD1943_TraceError(ctx, ret);
 5070              		.loc 1 1254 3 is_stmt 1 view .LVU1508
1254:Lib/Camera_Middleware/sensors/vd1943/vd1943.c ****   VD1943_TraceError(ctx, ret);
 5071              		.loc 1 1254 9 is_stmt 0 view .LVU1509
 5072 04c4 40F6C621 		movw	r1, #2758
ARM GAS  C:\Users\DJESSOU\AppData\Local\Temp\cc3eovRL.s 			page 144


 5073 04c8 2846     		mov	r0, r5
 5074 04ca 2B69     		ldr	r3, [r5, #16]
 5075 04cc 9847     		blx	r3
 5076              	.LVL420:
1255:Lib/Camera_Middleware/sensors/vd1943/vd1943.c **** 
 5077              		.loc 1 1255 3 is_stmt 1 view .LVU1510
1255:Lib/Camera_Middleware/sensors/vd1943/vd1943.c **** 
 5078              		.loc 1 1255 3 view .LVU1511
 5079 04ce 0446     		mov	r4, r0
 5080 04d0 68B9     		cbnz	r0, .L352
 5081              	.LVL421:
1255:Lib/Camera_Middleware/sensors/vd1943/vd1943.c **** 
 5082              		.loc 1 1255 3 is_stmt 0 view .LVU1512
 5083              	.LBE207:
 5084              	.LBE210:
1303:Lib/Camera_Middleware/sensors/vd1943/vd1943.c ****     return ret;
 5085              		.loc 1 1303 3 is_stmt 1 view .LVU1513
1306:Lib/Camera_Middleware/sensors/vd1943/vd1943.c ****   if (ret)
 5086              		.loc 1 1306 3 view .LVU1514
 5087              	.LBB211:
 5088              	.LBI178:
1260:Lib/Camera_Middleware/sensors/vd1943/vd1943.c **** {
 5089              		.loc 1 1260 12 view .LVU1515
 5090              	.LBB180:
1262:Lib/Camera_Middleware/sensors/vd1943/vd1943.c **** 
 5091              		.loc 1 1262 3 view .LVU1516
1264:Lib/Camera_Middleware/sensors/vd1943/vd1943.c ****   VD1943_TraceError(ctx, ret);
 5092              		.loc 1 1264 3 view .LVU1517
1264:Lib/Camera_Middleware/sensors/vd1943/vd1943.c ****   VD1943_TraceError(ctx, ret);
 5093              		.loc 1 1264 9 is_stmt 0 view .LVU1518
 5094 04d2 0122     		movs	r2, #1
 5095 04d4 40F28D71 		movw	r1, #1933
 5096 04d8 2846     		mov	r0, r5
 5097 04da 2B69     		ldr	r3, [r5, #16]
 5098 04dc 9847     		blx	r3
 5099              	.LVL422:
1265:Lib/Camera_Middleware/sensors/vd1943/vd1943.c ****   ret = ctx->write8(ctx, VD1943_REG_DIAG_DISABLE_FW_1_ERR, VD1943_DIAG_DISABLE_FW_1_ERR_TASK_MONITO
 5100              		.loc 1 1265 3 is_stmt 1 view .LVU1519
1265:Lib/Camera_Middleware/sensors/vd1943/vd1943.c ****   ret = ctx->write8(ctx, VD1943_REG_DIAG_DISABLE_FW_1_ERR, VD1943_DIAG_DISABLE_FW_1_ERR_TASK_MONITO
 5101              		.loc 1 1265 3 view .LVU1520
 5102 04de 0446     		mov	r4, r0
 5103 04e0 58B1     		cbz	r0, .L386
1265:Lib/Camera_Middleware/sensors/vd1943/vd1943.c ****   ret = ctx->write8(ctx, VD1943_REG_DIAG_DISABLE_FW_1_ERR, VD1943_DIAG_DISABLE_FW_1_ERR_TASK_MONITO
 5104              		.loc 1 1265 3 discriminator 1 view .LVU1521
1265:Lib/Camera_Middleware/sensors/vd1943/vd1943.c ****   ret = ctx->write8(ctx, VD1943_REG_DIAG_DISABLE_FW_1_ERR, VD1943_DIAG_DISABLE_FW_1_ERR_TASK_MONITO
 5105              		.loc 1 1265 3 discriminator 1 view .LVU1522
 5106 04e2 40F2F143 		movw	r3, #1265
 5107 04e6 0290     		str	r0, [sp, #8]
 5108              	.L391:
1269:Lib/Camera_Middleware/sensors/vd1943/vd1943.c **** 
 5109              		.loc 1 1269 3 is_stmt 0 discriminator 1 view .LVU1523
 5110 04e8 284A     		ldr	r2, .L399+40
 5111 04ea 0193     		str	r3, [sp, #4]
 5112 04ec BCE5     		b	.L390
 5113              	.LVL423:
 5114              	.L352:
1269:Lib/Camera_Middleware/sensors/vd1943/vd1943.c **** 
ARM GAS  C:\Users\DJESSOU\AppData\Local\Temp\cc3eovRL.s 			page 145


 5115              		.loc 1 1269 3 discriminator 1 view .LVU1524
 5116              	.LBE180:
 5117              	.LBE211:
 5118              	.LBB212:
 5119              	.LBB208:
1255:Lib/Camera_Middleware/sensors/vd1943/vd1943.c **** 
 5120              		.loc 1 1255 3 is_stmt 1 discriminator 1 view .LVU1525
1255:Lib/Camera_Middleware/sensors/vd1943/vd1943.c **** 
 5121              		.loc 1 1255 3 discriminator 1 view .LVU1526
 5122 04ee 40F2E743 		movw	r3, #1255
 5123 04f2 274A     		ldr	r2, .L399+44
 5124 04f4 0290     		str	r0, [sp, #8]
 5125 04f6 0193     		str	r3, [sp, #4]
 5126 04f8 B6E5     		b	.L390
 5127              	.LVL424:
 5128              	.L386:
1255:Lib/Camera_Middleware/sensors/vd1943/vd1943.c **** 
 5129              		.loc 1 1255 3 is_stmt 0 discriminator 1 view .LVU1527
 5130              	.LBE208:
 5131              	.LBE212:
 5132              	.LBB213:
 5133              	.LBB181:
1265:Lib/Camera_Middleware/sensors/vd1943/vd1943.c ****   ret = ctx->write8(ctx, VD1943_REG_DIAG_DISABLE_FW_1_ERR, VD1943_DIAG_DISABLE_FW_1_ERR_TASK_MONITO
 5134              		.loc 1 1265 3 is_stmt 1 discriminator 6 view .LVU1528
1265:Lib/Camera_Middleware/sensors/vd1943/vd1943.c ****   ret = ctx->write8(ctx, VD1943_REG_DIAG_DISABLE_FW_1_ERR, VD1943_DIAG_DISABLE_FW_1_ERR_TASK_MONITO
 5135              		.loc 1 1265 3 discriminator 8 view .LVU1529
1266:Lib/Camera_Middleware/sensors/vd1943/vd1943.c ****   VD1943_TraceError(ctx, ret);
 5136              		.loc 1 1266 3 view .LVU1530
1266:Lib/Camera_Middleware/sensors/vd1943/vd1943.c ****   VD1943_TraceError(ctx, ret);
 5137              		.loc 1 1266 9 is_stmt 0 view .LVU1531
 5138 04fa 0422     		movs	r2, #4
 5139 04fc 40F28E71 		movw	r1, #1934
 5140 0500 2846     		mov	r0, r5
 5141              	.LVL425:
1266:Lib/Camera_Middleware/sensors/vd1943/vd1943.c ****   VD1943_TraceError(ctx, ret);
 5142              		.loc 1 1266 9 view .LVU1532
 5143 0502 2B69     		ldr	r3, [r5, #16]
 5144 0504 9847     		blx	r3
 5145              	.LVL426:
1267:Lib/Camera_Middleware/sensors/vd1943/vd1943.c ****   ret = ctx->write8(ctx, VD1943_REG_DIAG_DISABLE_STREAMING_ERR, VD1943_DIAG_DISABLE_STREAMING_ERR_A
 5146              		.loc 1 1267 3 is_stmt 1 view .LVU1533
1267:Lib/Camera_Middleware/sensors/vd1943/vd1943.c ****   ret = ctx->write8(ctx, VD1943_REG_DIAG_DISABLE_STREAMING_ERR, VD1943_DIAG_DISABLE_STREAMING_ERR_A
 5147              		.loc 1 1267 3 view .LVU1534
 5148 0506 0446     		mov	r4, r0
 5149 0508 58B9     		cbnz	r0, .L355
1267:Lib/Camera_Middleware/sensors/vd1943/vd1943.c ****   ret = ctx->write8(ctx, VD1943_REG_DIAG_DISABLE_STREAMING_ERR, VD1943_DIAG_DISABLE_STREAMING_ERR_A
 5150              		.loc 1 1267 3 discriminator 3 view .LVU1535
1267:Lib/Camera_Middleware/sensors/vd1943/vd1943.c ****   ret = ctx->write8(ctx, VD1943_REG_DIAG_DISABLE_STREAMING_ERR, VD1943_DIAG_DISABLE_STREAMING_ERR_A
 5151              		.loc 1 1267 3 discriminator 3 view .LVU1536
1267:Lib/Camera_Middleware/sensors/vd1943/vd1943.c ****   ret = ctx->write8(ctx, VD1943_REG_DIAG_DISABLE_STREAMING_ERR, VD1943_DIAG_DISABLE_STREAMING_ERR_A
 5152              		.loc 1 1267 3 discriminator 6 view .LVU1537
1267:Lib/Camera_Middleware/sensors/vd1943/vd1943.c ****   ret = ctx->write8(ctx, VD1943_REG_DIAG_DISABLE_STREAMING_ERR, VD1943_DIAG_DISABLE_STREAMING_ERR_A
 5153              		.loc 1 1267 3 discriminator 8 view .LVU1538
1268:Lib/Camera_Middleware/sensors/vd1943/vd1943.c ****   VD1943_TraceError(ctx, ret);
 5154              		.loc 1 1268 3 view .LVU1539
1268:Lib/Camera_Middleware/sensors/vd1943/vd1943.c ****   VD1943_TraceError(ctx, ret);
 5155              		.loc 1 1268 9 is_stmt 0 view .LVU1540
ARM GAS  C:\Users\DJESSOU\AppData\Local\Temp\cc3eovRL.s 			page 146


 5156 050a FF22     		movs	r2, #255
 5157 050c 40F28F71 		movw	r1, #1935
 5158 0510 2846     		mov	r0, r5
 5159              	.LVL427:
1268:Lib/Camera_Middleware/sensors/vd1943/vd1943.c ****   VD1943_TraceError(ctx, ret);
 5160              		.loc 1 1268 9 view .LVU1541
 5161 0512 2B69     		ldr	r3, [r5, #16]
 5162 0514 9847     		blx	r3
 5163              	.LVL428:
1269:Lib/Camera_Middleware/sensors/vd1943/vd1943.c **** 
 5164              		.loc 1 1269 3 is_stmt 1 view .LVU1542
1269:Lib/Camera_Middleware/sensors/vd1943/vd1943.c **** 
 5165              		.loc 1 1269 3 view .LVU1543
 5166 0516 0446     		mov	r4, r0
 5167 0518 38B1     		cbz	r0, .L387
1269:Lib/Camera_Middleware/sensors/vd1943/vd1943.c **** 
 5168              		.loc 1 1269 3 discriminator 1 view .LVU1544
1269:Lib/Camera_Middleware/sensors/vd1943/vd1943.c **** 
 5169              		.loc 1 1269 3 discriminator 1 view .LVU1545
 5170 051a 40F2F543 		movw	r3, #1269
 5171 051e 0290     		str	r0, [sp, #8]
 5172 0520 E2E7     		b	.L391
 5173              	.L355:
1267:Lib/Camera_Middleware/sensors/vd1943/vd1943.c ****   ret = ctx->write8(ctx, VD1943_REG_DIAG_DISABLE_STREAMING_ERR, VD1943_DIAG_DISABLE_STREAMING_ERR_A
 5174              		.loc 1 1267 3 discriminator 1 view .LVU1546
1267:Lib/Camera_Middleware/sensors/vd1943/vd1943.c ****   ret = ctx->write8(ctx, VD1943_REG_DIAG_DISABLE_STREAMING_ERR, VD1943_DIAG_DISABLE_STREAMING_ERR_A
 5175              		.loc 1 1267 3 discriminator 1 view .LVU1547
 5176 0522 40F2F343 		movw	r3, #1267
 5177 0526 0290     		str	r0, [sp, #8]
 5178 0528 DEE7     		b	.L391
 5179              	.L387:
 5180              	.LVL429:
1267:Lib/Camera_Middleware/sensors/vd1943/vd1943.c ****   ret = ctx->write8(ctx, VD1943_REG_DIAG_DISABLE_STREAMING_ERR, VD1943_DIAG_DISABLE_STREAMING_ERR_A
 5181              		.loc 1 1267 3 is_stmt 0 discriminator 1 view .LVU1548
 5182              	.LBE181:
 5183              	.LBE213:
 5184              	.LBE215:
 5185              	.LBE217:
1612:Lib/Camera_Middleware/sensors/vd1943/vd1943.c ****     return ret;
 5186              		.loc 1 1612 3 is_stmt 1 view .LVU1549
1615:Lib/Camera_Middleware/sensors/vd1943/vd1943.c ****   if (ret)
 5187              		.loc 1 1615 3 view .LVU1550
 5188              	.LBB218:
 5189              	.LBI218:
1313:Lib/Camera_Middleware/sensors/vd1943/vd1943.c **** {
 5190              		.loc 1 1313 12 view .LVU1551
 5191              	.LBB219:
1315:Lib/Camera_Middleware/sensors/vd1943/vd1943.c **** 
 5192              		.loc 1 1315 3 view .LVU1552
1317:Lib/Camera_Middleware/sensors/vd1943/vd1943.c ****   if (ret)
 5193              		.loc 1 1317 3 view .LVU1553
1317:Lib/Camera_Middleware/sensors/vd1943/vd1943.c ****   if (ret)
 5194              		.loc 1 1317 9 is_stmt 0 view .LVU1554
 5195 052a 0122     		movs	r2, #1
 5196 052c 40F21651 		movw	r1, #1302
 5197 0530 2846     		mov	r0, r5
 5198 0532 FFF7FEFF 		bl	VD1943_ApplyCmdAndWait
ARM GAS  C:\Users\DJESSOU\AppData\Local\Temp\cc3eovRL.s 			page 147


 5199              	.LVL430:
1318:Lib/Camera_Middleware/sensors/vd1943/vd1943.c ****     return ret;
 5200              		.loc 1 1318 3 is_stmt 1 view .LVU1555
1318:Lib/Camera_Middleware/sensors/vd1943/vd1943.c ****     return ret;
 5201              		.loc 1 1318 6 is_stmt 0 view .LVU1556
 5202 0536 0446     		mov	r4, r0
 5203 0538 0028     		cmp	r0, #0
 5204 053a 7FF469AD 		bne	.L291
1321:Lib/Camera_Middleware/sensors/vd1943/vd1943.c ****   if (ret)
 5205              		.loc 1 1321 3 is_stmt 1 view .LVU1557
1321:Lib/Camera_Middleware/sensors/vd1943/vd1943.c ****   if (ret)
 5206              		.loc 1 1321 9 is_stmt 0 view .LVU1558
 5207 053e 0421     		movs	r1, #4
 5208 0540 2846     		mov	r0, r5
 5209              	.LVL431:
1321:Lib/Camera_Middleware/sensors/vd1943/vd1943.c ****   if (ret)
 5210              		.loc 1 1321 9 view .LVU1559
 5211 0542 FFF7FEFF 		bl	VD1943_WaitState
 5212              	.LVL432:
1322:Lib/Camera_Middleware/sensors/vd1943/vd1943.c ****     return ret;
 5213              		.loc 1 1322 3 is_stmt 1 view .LVU1560
1322:Lib/Camera_Middleware/sensors/vd1943/vd1943.c ****     return ret;
 5214              		.loc 1 1322 6 is_stmt 0 view .LVU1561
 5215 0546 0446     		mov	r4, r0
 5216 0548 0028     		cmp	r0, #0
 5217 054a 7FF461AD 		bne	.L291
1325:Lib/Camera_Middleware/sensors/vd1943/vd1943.c **** 
 5218              		.loc 1 1325 3 is_stmt 1 view .LVU1562
1325:Lib/Camera_Middleware/sensors/vd1943/vd1943.c **** 
 5219              		.loc 1 1325 3 view .LVU1563
 5220 054e 40F22D53 		movw	r3, #1325
 5221 0552 0221     		movs	r1, #2
 5222 0554 2846     		mov	r0, r5
 5223              	.LVL433:
1325:Lib/Camera_Middleware/sensors/vd1943/vd1943.c **** 
 5224              		.loc 1 1325 3 is_stmt 0 view .LVU1564
 5225 0556 0F4A     		ldr	r2, .L399+48
 5226 0558 FFF7FEFF 		bl	VD1943_log_impl
 5227              	.LVL434:
1325:Lib/Camera_Middleware/sensors/vd1943/vd1943.c **** 
 5228              		.loc 1 1325 3 is_stmt 1 discriminator 1 view .LVU1565
1327:Lib/Camera_Middleware/sensors/vd1943/vd1943.c **** }
 5229              		.loc 1 1327 3 view .LVU1566
1327:Lib/Camera_Middleware/sensors/vd1943/vd1943.c **** }
 5230              		.loc 1 1327 3 is_stmt 0 view .LVU1567
 5231              	.LBE219:
 5232              	.LBE218:
1616:Lib/Camera_Middleware/sensors/vd1943/vd1943.c ****     return ret;
 5233              		.loc 1 1616 3 is_stmt 1 view .LVU1568
1618:Lib/Camera_Middleware/sensors/vd1943/vd1943.c **** 
 5234              		.loc 1 1618 3 view .LVU1569
1618:Lib/Camera_Middleware/sensors/vd1943/vd1943.c **** 
 5235              		.loc 1 1618 25 is_stmt 0 view .LVU1570
 5236 055c 0123     		movs	r3, #1
 5237 055e EB62     		str	r3, [r5, #44]
1624:Lib/Camera_Middleware/sensors/vd1943/vd1943.c **** }
 5238              		.loc 1 1624 3 is_stmt 1 view .LVU1571
ARM GAS  C:\Users\DJESSOU\AppData\Local\Temp\cc3eovRL.s 			page 148


 5239              	.LVL435:
1624:Lib/Camera_Middleware/sensors/vd1943/vd1943.c **** }
 5240              		.loc 1 1624 10 is_stmt 0 view .LVU1572
 5241 0560 56E5     		b	.L291
 5242              	.L400:
 5243 0562 00BF     		.align	2
 5244              	.L399:
 5245 0564 52000000 		.word	.LC28
 5246 0568 00093D00 		.word	4000000
 5247 056c 7D000000 		.word	.LC29
 5248 0570 A0000000 		.word	.LC30
 5249 0574 00000000 		.word	CSWTCH.67
 5250 0578 00000000 		.word	CSWTCH.69
 5251 057c 00000000 		.word	__func__.9
 5252 0580 00000000 		.word	__func__.12
 5253 0584 00000000 		.word	__func__.10
 5254 0588 00000000 		.word	__func__.8
 5255 058c 00000000 		.word	__func__.6
 5256 0590 00000000 		.word	__func__.7
 5257 0594 00000000 		.word	.LC20
 5258              		.cfi_endproc
 5259              	.LFE48:
 5261              		.section	.rodata.CSWTCH.69,"a"
 5262              		.align	1
 5265              	CSWTCH.69:
 5266 0000 0000     		.short	0
 5267 0002 0122     		.short	8705
 5268 0004 0128     		.short	10241
 5269              		.section	.rodata.CSWTCH.67,"a"
 5272              	CSWTCH.67:
 5273 0000 00       		.byte	0
 5274 0001 02       		.byte	2
 5275 0002 01       		.byte	1
 5276 0003 03       		.byte	3
 5277              		.section	.rodata.__func__.0,"a"
 5280              	__func__.0:
 5281 0000 56443139 		.ascii	"VD1943_GetExpo\000"
 5281      34335F47 
 5281      65744578 
 5281      706F00
 5282              		.section	.rodata.__func__.1,"a"
 5285              	__func__.1:
 5286 0000 56443139 		.ascii	"VD1943_SetExpo\000"
 5286      34335F53 
 5286      65744578 
 5286      706F00
 5287              		.section	.rodata.__func__.2,"a"
 5290              	__func__.2:
 5291 0000 56443139 		.ascii	"VD1943_SetDigitalGain\000"
 5291      34335F53 
 5291      65744469 
 5291      67697461 
 5291      6C476169 
 5292              		.section	.rodata.__func__.3,"a"
 5295              	__func__.3:
 5296 0000 56443139 		.ascii	"VD1943_GetAnalogGain\000"
 5296      34335F47 
ARM GAS  C:\Users\DJESSOU\AppData\Local\Temp\cc3eovRL.s 			page 149


 5296      6574416E 
 5296      616C6F67 
 5296      4761696E 
 5297              		.section	.rodata.__func__.4,"a"
 5300              	__func__.4:
 5301 0000 56443139 		.ascii	"VD1943_SetAnalogGain\000"
 5301      34335F53 
 5301      6574416E 
 5301      616C6F67 
 5301      4761696E 
 5302              		.section	.rodata.__func__.5,"a"
 5305              	__func__.5:
 5306 0000 56443139 		.ascii	"VD1943_Hold\000"
 5306      34335F48 
 5306      6F6C6400 
 5307              		.section	.rodata.__func__.6,"a"
 5310              	__func__.6:
 5311 0000 56443139 		.ascii	"VD1943_SafetyDisable\000"
 5311      34335F53 
 5311      61666574 
 5311      79446973 
 5311      61626C65 
 5312              		.section	.rodata.__func__.7,"a"
 5315              	__func__.7:
 5316 0000 56443139 		.ascii	"VD1943_VT_Sync\000"
 5316      34335F56 
 5316      545F5379 
 5316      6E6300
 5317              		.section	.rodata.__func__.8,"a"
 5320              	__func__.8:
 5321 0000 56443139 		.ascii	"VD1943_Gpios\000"
 5321      34335F47 
 5321      70696F73 
 5321      00
 5322              		.section	.rodata.__func__.9,"a"
 5325              	__func__.9:
 5326 0000 56443139 		.ascii	"VD1943_SetupPatGen\000"
 5326      34335F53 
 5326      65747570 
 5326      50617447 
 5326      656E00
 5327              		.section	.rodata.__func__.10,"a"
 5330              	__func__.10:
 5331 0000 56443139 		.ascii	"VD1943_SetupMirrorFlip\000"
 5331      34335F53 
 5331      65747570 
 5331      4D697272 
 5331      6F72466C 
 5332              		.section	.rodata.__func__.11,"a"
 5335              	__func__.11:
 5336 0000 56443139 		.ascii	"VD1943_SetupLineLen\000"
 5336      34335F53 
 5336      65747570 
 5336      4C696E65 
 5336      4C656E00 
 5337              		.section	.rodata.__func__.12,"a"
 5340              	__func__.12:
ARM GAS  C:\Users\DJESSOU\AppData\Local\Temp\cc3eovRL.s 			page 150


 5341 0000 56443139 		.ascii	"VD1943_SetupFrameRate\000"
 5341      34335F53 
 5341      65747570 
 5341      4672616D 
 5341      65526174 
 5342              		.section	.rodata.__func__.13,"a"
 5345              	__func__.13:
 5346 0000 56443139 		.ascii	"VD1943_SetupSize\000"
 5346      34335F53 
 5346      65747570 
 5346      53697A65 
 5346      00
 5347              		.section	.rodata.__func__.14,"a"
 5350              	__func__.14:
 5351 0000 56443139 		.ascii	"VD1943_SetupOutputDataType\000"
 5351      34335F53 
 5351      65747570 
 5351      4F757470 
 5351      75744461 
 5352              		.section	.rodata.__func__.15,"a"
 5355              	__func__.15:
 5356 0000 56443139 		.ascii	"VD1943_GetLaneNb\000"
 5356      34335F47 
 5356      65744C61 
 5356      6E654E62 
 5356      00
 5357              		.section	.rodata.__func__.16,"a"
 5360              	__func__.16:
 5361 0000 56443139 		.ascii	"VD1943_SetupOutput\000"
 5361      34335F53 
 5361      65747570 
 5361      4F757470 
 5361      757400
 5362              		.section	.rodata.__func__.17,"a"
 5365              	__func__.17:
 5366 0000 56443139 		.ascii	"VD1943_SetBayerType_RGBNIR\000"
 5366      34335F53 
 5366      65744261 
 5366      79657254 
 5366      7970655F 
 5367              		.section	.rodata.__func__.18,"a"
 5370              	__func__.18:
 5371 0000 56443139 		.ascii	"VD1943_SetBayerType_RGB\000"
 5371      34335F53 
 5371      65744261 
 5371      79657254 
 5371      7970655F 
 5372              		.section	.rodata.__func__.19,"a"
 5375              	__func__.19:
 5376 0000 56443139 		.ascii	"VD1943_SetBayerType\000"
 5376      34335F53 
 5376      65744261 
 5376      79657254 
 5376      79706500 
 5377              		.section	.rodata.__func__.20,"a"
 5380              	__func__.20:
 5381 0000 56443139 		.ascii	"VD1943_ApplyVTPatch\000"
ARM GAS  C:\Users\DJESSOU\AppData\Local\Temp\cc3eovRL.s 			page 151


 5381      34335F41 
 5381      70706C79 
 5381      56545061 
 5381      74636800 
 5382              		.section	.rodata.__func__.21,"a"
 5385              	__func__.21:
 5386 0000 56443139 		.ascii	"VD1943_GoToStandbyState\000"
 5386      34335F47 
 5386      6F546F53 
 5386      74616E64 
 5386      62795374 
 5387              		.section	.rodata.__func__.22,"a"
 5390              	__func__.22:
 5391 0000 56443139 		.ascii	"VD1943_ApplyFwPatch\000"
 5391      34335F41 
 5391      70706C79 
 5391      46775061 
 5391      74636800 
 5392              		.section	.rodata.__func__.23,"a"
 5395              	__func__.23:
 5396 0000 56443139 		.ascii	"VD1943_ApplyCertificate\000"
 5396      34335F41 
 5396      70706C79 
 5396      43657274 
 5396      69666963 
 5397              		.section	.rodata.__func__.24,"a"
 5400              	__func__.24:
 5401 0000 56443139 		.ascii	"VD1943_ApplyCmdAndWait\000"
 5401      34335F41 
 5401      70706C79 
 5401      436D6441 
 5401      6E645761 
 5402              		.section	.rodata.__func__.25,"a"
 5405              	__func__.25:
 5406 0000 56443139 		.ascii	"VD1943_CheckModelId\000"
 5406      34335F43 
 5406      6865636B 
 5406      4D6F6465 
 5406      6C496400 
 5407              		.section	.rodata.__func__.26,"a"
 5410              	__func__.26:
 5411 0000 56443139 		.ascii	"VD1943_SetExpo_GS\000"
 5411      34335F53 
 5411      65744578 
 5411      706F5F47 
 5411      5300
 5412              		.section	.rodata.__func__.27,"a"
 5415              	__func__.27:
 5416 0000 56443139 		.ascii	"VD1943_SetExpoSplit_GS\000"
 5416      34335F53 
 5416      65744578 
 5416      706F5370 
 5416      6C69745F 
 5417              		.section	.rodata.__func__.28,"a"
 5420              	__func__.28:
 5421 0000 56443139 		.ascii	"VD1943_SetDigitalGain_RGB\000"
 5421      34335F53 
ARM GAS  C:\Users\DJESSOU\AppData\Local\Temp\cc3eovRL.s 			page 152


 5421      65744469 
 5421      67697461 
 5421      6C476169 
 5422              		.section	.rodata.__func__.29,"a"
 5425              	__func__.29:
 5426 0000 56443139 		.ascii	"VD1943_SetDigitalGain_IR\000"
 5426      34335F53 
 5426      65744469 
 5426      67697461 
 5426      6C476169 
 5427              		.section	.rodata.__func__.30,"a"
 5430              	__func__.30:
 5431 0000 56443139 		.ascii	"VD1943_SetExpo_RS\000"
 5431      34335F53 
 5431      65744578 
 5431      706F5F52 
 5431      5300
 5432              		.section	.rodata.__func__.31,"a"
 5435              	__func__.31:
 5436 0000 56443139 		.ascii	"VD1943_GetExpoCommon\000"
 5436      34335F47 
 5436      65744578 
 5436      706F436F 
 5436      6D6D6F6E 
 5437              		.section	.rodata.__func__.32,"a"
 5440              	__func__.32:
 5441 0000 56443139 		.ascii	"VD1943_SetExpo_RS_HDR\000"
 5441      34335F53 
 5441      65744578 
 5441      706F5F52 
 5441      535F4844 
 5442              		.section	.rodata.__func__.33,"a"
 5445              	__func__.33:
 5446 0000 56443139 		.ascii	"VD1943_SetFctPtr\000"
 5446      34335F53 
 5446      65744663 
 5446      74507472 
 5446      00
 5447              		.section	.rodata.__func__.34,"a"
 5450              	__func__.34:
 5451 0000 64697370 		.ascii	"display_error\000"
 5451      6C61795F 
 5451      6572726F 
 5451      7200
 5452              		.section	.rodata.__func__.35,"a"
 5455              	__func__.35:
 5456 0000 56443139 		.ascii	"VD1943_ComputeFrameLength\000"
 5456      34335F43 
 5456      6F6D7075 
 5456      74654672 
 5456      616D654C 
 5457              		.section	.rodata.vd1943_supported_modes,"a"
 5458              		.align	2
 5461              	vd1943_supported_modes:
 5462 0000 60040000 		.word	1120
 5463 0004 68030000 		.word	872
 5464 0008 40010000 		.word	320
ARM GAS  C:\Users\DJESSOU\AppData\Local\Temp\cc3eovRL.s 			page 153


 5465 000c F0000000 		.word	240
 5466 0010 C0030000 		.word	960
 5467 0014 F0020000 		.word	752
 5468 0018 80020000 		.word	640
 5469 001c E0010000 		.word	480
 5470 0020 70030000 		.word	880
 5471 0024 B4020000 		.word	692
 5472 0028 20030000 		.word	800
 5473 002c 58020000 		.word	600
 5474 0030 00030000 		.word	768
 5475 0034 60020000 		.word	608
 5476 0038 00040000 		.word	1024
 5477 003c 00030000 		.word	768
 5478 0040 80020000 		.word	640
 5479 0044 78020000 		.word	632
 5480 0048 00050000 		.word	1280
 5481 004c D0020000 		.word	720
 5482 0050 80020000 		.word	640
 5483 0054 E0010000 		.word	480
 5484 0058 00050000 		.word	1280
 5485 005c 00040000 		.word	1024
 5486 0060 40010000 		.word	320
 5487 0064 C4010000 		.word	452
 5488 0068 80070000 		.word	1920
 5489 006c 38040000 		.word	1080
 5490 0070 00010000 		.word	256
 5491 0074 E0000000 		.word	224
 5492 0078 00080000 		.word	2048
 5493 007c 00060000 		.word	1536
 5494 0080 00000000 		.word	0
 5495 0084 20000000 		.word	32
 5496 0088 000A0000 		.word	2560
 5497 008c 80070000 		.word	1920
 5498 0090 00000000 		.word	0
 5499 0094 00000000 		.word	0
 5500 0098 000A0000 		.word	2560
 5501 009c C0070000 		.word	1984
 5502              		.section	.rodata.rd_ram_seq1_content,"a"
 5505              	rd_ram_seq1_content:
 5506 0000 DF990000 		.ascii	"\337\231\000\000E\003\322\000\000\000\000\000\000\000"
 5506      4503D200 
 5506      00000000 
 5506      0000
 5507 000e 00008000 		.ascii	"\000\000\200\000\000\000\002\001\000\000\200\001\000"
 5507      00000201 
 5507      00008001 
 5507      00
 5508 001b 00000200 		.ascii	"\000\000\002\000\000\200\002\000\000\001\003\000\000"
 5508      00800200 
 5508      00010300 
 5508      00
 5509 0028 80030000 		.ascii	"\200\003\000\000\000\004\000\000\202\004\000\000\000"
 5509      00040000 
 5509      82040000 
 5509      00
 5510 0035 04000000 		.ascii	"\004\000\000\000\005\000\000\202\005\000\000\012\005"
 5510      05000082 
ARM GAS  C:\Users\DJESSOU\AppData\Local\Temp\cc3eovRL.s 			page 154


 5510      0500000A 
 5510      05
 5511 0042 00000006 		.ascii	"\000\000\000\006\000\000\202\006\000\000\013\006\000"
 5511      00008206 
 5511      00000B06 
 5511      00
 5512 004f 00040700 		.ascii	"\000\004\007\000\000\202\007\000\000\002\010\000\000"
 5512      00820700 
 5512      00020800 
 5512      00
 5513 005c 82080000 		.ascii	"\202\010\000\000\004\011\000\000\202\011\000\000\212"
 5513      04090000 
 5513      82090000 
 5513      8A
 5514 0069 08000000 		.ascii	"\010\000\000\000\012\000\000\202\012\000\000\000\012"
 5514      0A000082 
 5514      0A000000 
 5514      0A
 5515 0076 00008008 		.ascii	"\000\000\200\010\000\000\002\013\000\000\200\010\000"
 5515      0000020B 
 5515      00008008 
 5515      00
 5516 0083 00800820 		.ascii	"\000\200\010 \000\201\010\000\000\212\013\000\000\000"
 5516      00810800 
 5516      008A0B00 
 5516      0000
 5517 0091 0C000082 		.ascii	"\014\000\000\202\014\000\000\013\014\000\000\002\015"
 5517      0C00000B 
 5517      0C000002 
 5517      0D
 5518 009e 0000000C 		.ascii	"\000\000\000\014\000\000\200\015\000\000\002\016\000"
 5518      0000800D 
 5518      0000020E 
 5518      00
 5519 00ab 00A70D00 		.ascii	"\000\247\015\000\000\253\016\000\000\002\017\000\000"
 5519      00AB0E00 
 5519      00020F00 
 5519      00
 5520 00b8 890F0000 		.ascii	"\211\017\000\000\002\020\000\000\202\020\000\000\002"
 5520      02100000 
 5520      82100000 
 5520      02
 5521 00c5 10000082 		.ascii	"\020\000\000\202\020\000\000\002\020\000\000\202\020"
 5521      10000002 
 5521      10000082 
 5521      10
 5522 00d2 00000110 		.ascii	"\000\000\001\020\000\000\252\017\000\000\002\021\000"
 5522      0000AA0F 
 5522      00000211 
 5522      00
 5523 00df 00801100 		.ascii	"\000\200\021\000\000\201\021\021\000\001\021\021\000"
 5523      00811111 
 5523      00011111 
 5523      00
 5524 00ec 03111000 		.ascii	"\003\021\020\000\003\021\017\000\003\021\016\000\003"
 5524      03110F00 
 5524      03110E00 
ARM GAS  C:\Users\DJESSOU\AppData\Local\Temp\cc3eovRL.s 			page 155


 5524      03
 5525 00f9 110D0027 		.ascii	"\021\015\000'\021\014\000\000\022\014\000\200\022\014"
 5525      110C0000 
 5525      120C0080 
 5525      120C
 5526 0107 0000130C 		.ascii	"\000\000\023\014\000\200\023\014\000\000\024\014\000"
 5526      0080130C 
 5526      0000140C 
 5526      00
 5527 0114 80140C00 		.ascii	"\200\024\014\000\000\025\014\000\200\025\014\000\000"
 5527      00150C00 
 5527      80150C00 
 5527      00
 5528 0121 160C0082 		.ascii	"\026\014\000\202\026\014\000\001\026\014\000\000\027"
 5528      160C0001 
 5528      160C0000 
 5528      17
 5529 012e 0C008117 		.ascii	"\014\000\201\027\014\000\000\030\014\000\200\030\014"
 5529      0C000018 
 5529      0C008018 
 5529      0C
 5530 013b 0000190C 		.ascii	"\000\000\031\014\000\201\031\014\000\035\032\014\000"
 5530      0081190C 
 5530      001D1A0C 
 5530      00
 5531 0148 801A0C00 		.ascii	"\200\032\014\000\002\033\014\000\212\032\014\000\200"
 5531      021B0C00 
 5531      8A1A0C00 
 5531      80
 5532 0155 1B0C0002 		.ascii	"\033\014\000\002\034\014\000\214\034\014\000\011\035"
 5532      1C0C008C 
 5532      1C0C0009 
 5532      1D
 5533 0162 0C00881D 		.ascii	"\014\000\210\035\014\000\005\036\014\000\202\036\014"
 5533      0C00051E 
 5533      0C00821E 
 5533      0C
 5534 016f 00051F0C 		.ascii	"\000\005\037\014\000\211\037\014\000\010 \014\000\265"
 5534      00891F0C 
 5534      0008200C 
 5534      00B5
 5535 017d 200C0002 		.ascii	" \014\000\002!\014\000\237!\014\000\002\"\014\000\202"
 5535      210C009F 
 5535      210C0002 
 5535      220C0082 
 5536 018d 220C0002 		.ascii	"\"\014\000\002\"\014\000\002#\014\000\003\"\014\000"
 5536      220C0002 
 5536      230C0003 
 5536      220C00
 5537 019c 04220400 		.ascii	"\004\"\004\000\202#\004\000\003\"\004\000\004\"\005"
 5537      82230400 
 5537      03220400 
 5537      042205
 5538 01ab 00822305 		.ascii	"\000\202#\005\000\003\"\005\000\004\"\006\000\002$\006"
 5538      00032205 
 5538      00042206 
 5538      00022406 
ARM GAS  C:\Users\DJESSOU\AppData\Local\Temp\cc3eovRL.s 			page 156


 5539 01bb 00032206 		.ascii	"\000\003\"\006\000\004\"\007\000\002$\007\000\003\""
 5539      00042207 
 5539      00022407 
 5539      000322
 5540 01ca 07000422 		.ascii	"\007\000\004\"\010\000\202$\010\000\003\"\010\000\004"
 5540      08008224 
 5540      08000322 
 5540      080004
 5541 01d9 22090082 		.ascii	"\"\011\000\202$\011\000\003\"\011\000\004\"\012\000"
 5541      24090003 
 5541      22090004 
 5541      220A00
 5542 01e8 02240A00 		.ascii	"\002$\012\000\003\"\012\000\004\"\013\000\202$\013\000"
 5542      03220A00 
 5542      04220B00 
 5542      82240B00 
 5543 01f8 39220B00 		.ascii	"9\"\013\000!%\013\000\200%\013\000\001&\013\000\200"
 5543      21250B00 
 5543      80250B00 
 5543      01260B00 
 5543      80
 5544 0209 260B0001 		.ascii	"&\013\000\001'\013\000\200'\013\000\000&\013\000\000"
 5544      270B0080 
 5544      270B0000 
 5544      260B0000 
 5545 0219 280B0082 		.ascii	"(\013\000\202(\013\000\000(\013\000\000)\013\000\200"
 5545      280B0000 
 5545      280B0000 
 5545      290B0080 
 5546 0229 290B0001 		.ascii	")\013\000\001*\013\000\200*\013\000\001)\013\000\002"
 5546      2A0B0080 
 5546      2A0B0001 
 5546      290B0002 
 5547 0239 2B0B0083 		.ascii	"+\013\000\203+\013\000\204+\002\000\002,\002\000\203"
 5547      2B0B0084 
 5547      2B020002 
 5547      2C020083 
 5548 0249 2B020082 		.ascii	"+\002\000\202,\003\000\201+\003\000\001-\003\000\200"
 5548      2C030081 
 5548      2B030001 
 5548      2D030080 
 5549 0259 2D030001 		.ascii	"-\003\000\001.\003\000\202.\003\000\001/\003\000\204"
 5549      2E030082 
 5549      2E030001 
 5549      2F030084 
 5550 0269 2F030000 		.ascii	"/\003\000\000\000\203\001"
 5550      008301
 5551              		.section	.rodata.rd_ram_pat_content,"a"
 5554              	rd_ram_pat_content:
 5555 0000 27836000 		.ascii	"'\203`\000\000\000\000\000\000\000\000\000\000\000\000"
 5555      00000000 
 5555      00000000 
 5555      000000
 5556 000f 00860280 		.ascii	"\000\206\002\200\000\000\000\320\006\000\004\000\000"
 5556      000000D0 
 5556      06000400 
 5556      00
ARM GAS  C:\Users\DJESSOU\AppData\Local\Temp\cc3eovRL.s 			page 157


 5557 001c 00000000 		.ascii	"\000\000\000\000\206\002\200\300\001\000\320\006\000"
 5557      860280C0 
 5557      0100D006 
 5557      00
 5558 0029 04000000 		.ascii	"\004\000\000\000\000\000\000\266\002\201\300\001\000"
 5558      000000B6 
 5558      0281C001 
 5558      00
 5559 0036 D0060004 		.ascii	"\320\006\000\004\000\000\000\000\000\000\266\000\200"
 5559      00000000 
 5559      0000B600 
 5559      80
 5560 0043 C00100D0 		.ascii	"\300\001\000\320\006\000\004\000\001\000\000\000\000"
 5560      06000400 
 5560      01000000 
 5560      00
 5561 0050 B6008020 		.ascii	"\266\000\200 \000\000\320\006\000\004\000\001\000\000"
 5561      0000D006 
 5561      00040001 
 5561      0000
 5562 005e 0000F600 		.ascii	"\000\000\366\000\204 \000\000\320\006\000\004\000\001"
 5562      84200000 
 5562      D0060004 
 5562      0001
 5563 006c 00000000 		.ascii	"\000\000\000\000\366\000\204 \000\000\320\006\002\004"
 5563      F6008420 
 5563      0000D006 
 5563      0204
 5564 007a 00000000 		.ascii	"\000\000\000\000\000\000\366\000\200 \000\000\320\006"
 5564      0000F600 
 5564      80200000 
 5564      D006
 5565 0088 02040000 		.ascii	"\002\004\000\000\000\000\000\000\366\000\200\200\000"
 5565      00000000 
 5565      F6008080 
 5565      00
 5566 0095 00D00602 		.ascii	"\000\320\006\002\004\000\000\000\000\000\000\366\000"
 5566      04000000 
 5566      000000F6 
 5566      00
 5567 00a2 A0800000 		.ascii	"\240\200\000\000\320\006\002\004\000\000\000\000\000"
 5567      D0060204 
 5567      00000000 
 5567      00
 5568 00af 00F60080 		.ascii	"\000\366\000\200@\000\000\320\006\002\004\000\000\000"
 5568      400000D0 
 5568      06020400 
 5568      0000
 5569 00bd 000000F6 		.ascii	"\000\000\000\366\024\200@\000\000\320\006\002\004\000"
 5569      14804000 
 5569      00D00602 
 5569      0400
 5570 00cb 00000000 		.ascii	"\000\000\000\000\000\366\000\200\200\001\000\320\006"
 5570      00F60080 
 5570      800100D0 
 5570      06
 5571 00d8 02040000 		.ascii	"\002\004\000\000\000\000\000\000\366@\200\200\001\000"
ARM GAS  C:\Users\DJESSOU\AppData\Local\Temp\cc3eovRL.s 			page 158


 5571      00000000 
 5571      F6408080 
 5571      0100
 5572 00e6 D0060204 		.ascii	"\320\006\002\004\000\000\000\000\000\000\366\000\200"
 5572      00000000 
 5572      0000F600 
 5572      80
 5573 00f3 800100D0 		.ascii	"\200\001\000\320\006\000\004\000\000\000\000\000\000"
 5573      06000400 
 5573      00000000 
 5573      00
 5574 0100 76008080 		.ascii	"v\000\200\200\001\000\320\006\000\004\000\000\000\000"
 5574      0100D006 
 5574      00040000 
 5574      0000
 5575 010e 00007600 		.ascii	"\000\000v\000\200\200\001\000\320\004\000\004\000\000"
 5575      80800100 
 5575      D0040004 
 5575      0000
 5576 011c 00000000 		.ascii	"\000\000\000\000v\000\200\200\001\000\320\004\000\000"
 5576      76008080 
 5576      0100D004 
 5576      0000
 5577 012a 00000000 		.ascii	"\000\000\000\000\000\000v\000\300\200\001\000\320\004"
 5577      00007600 
 5577      C0800100 
 5577      D004
 5578 0138 00000000 		.ascii	"\000\000\000\000\000\000\000\000v\200\300\200\001\000"
 5578      00000000 
 5578      7680C080 
 5578      0100
 5579 0146 D0040000 		.ascii	"\320\004\000\000\000\000\000\000\000\000v\000\200\300"
 5579      00000000 
 5579      00007600 
 5579      80C0
 5580 0154 0100D004 		.ascii	"\001\000\320\004\000\000\000\000\000\000\000\000v(\220"
 5580      00000000 
 5580      00000000 
 5580      762890
 5581 0163 C00100D0 		.ascii	"\300\001\000\320\004\000\000\000\000\000\000\000\000"
 5581      04000000 
 5581      00000000 
 5581      00
 5582 0170 76008280 		.ascii	"v\000\202\200\001\000\320\004\000\000\000\000\000\000"
 5582      0100D004 
 5582      00000000 
 5582      0000
 5583 017e 00007600 		.ascii	"\000\000v\000\200\200\001\000\330\004\000\000\000\000"
 5583      80800100 
 5583      D8040000 
 5583      0000
 5584 018c 00000000 		.ascii	"\000\000\000\000v\000\200 \000\000\330\004\000\000\000"
 5584      76008020 
 5584      0000D804 
 5584      000000
 5585 019b 00000000 		.ascii	"\000\000\000\000\000v\000\240 \000\000\330\004\000\000"
 5585      007600A0 
ARM GAS  C:\Users\DJESSOU\AppData\Local\Temp\cc3eovRL.s 			page 159


 5585      200000D8 
 5585      040000
 5586 01aa 00000000 		.ascii	"\000\000\000\000\000\000v\004\200 \000\000\330\004\000"
 5586      00007604 
 5586      80200000 
 5586      D80400
 5587 01b9 00000000 		.ascii	"\000\000\000\000\000\000\000v\000\200@\000\000\330\004"
 5587      00000076 
 5587      00804000 
 5587      00D804
 5588 01c8 00000000 		.ascii	"\000\000\000\000\000\000\000\000v\000\240@\000\000\330"
 5588      00000000 
 5588      7600A040 
 5588      0000D8
 5589 01d7 04000000 		.ascii	"\004\000\000\000\000\000\000\000\000v\000\200@`\000"
 5589      00000000 
 5589      00760080 
 5589      406000
 5590 01e6 D8040100 		.ascii	"\330\004\001\000\000\000\000\000\000\000r\000\200@`"
 5590      00000000 
 5590      00007200 
 5590      804060
 5591 01f5 00D80401 		.ascii	"\000\330\004\001\000\000\000\000\000\000\000p\000\200"
 5591      00000000 
 5591      00000070 
 5591      0080
 5592 0203 40600098 		.ascii	"@`\000\230\004\001\000\000\000\000\000\000\000p\000"
 5592      04010000 
 5592      00000000 
 5592      007000
 5593 0212 80406000 		.ascii	"\200@`\000\230\024\001\000\000\000\000\000\000\000p"
 5593      98140100 
 5593      00000000 
 5593      000070
 5594 0221 00804060 		.ascii	"\000\200@`\000\230T\001\000\000\000\000\000\000\000"
 5594      00985401 
 5594      00000000 
 5594      000000
 5595 0230 F0018040 		.ascii	"\360\001\200@`\000\230\004\001\000\000\000\000\000\000"
 5595      60009804 
 5595      01000000 
 5595      000000
 5596 023f 00F00180 		.ascii	"\000\360\001\200@`\000\230\204\001\000\000\000\000\000"
 5596      40600098 
 5596      84010000 
 5596      000000
 5597 024e 0000F001 		.ascii	"\000\000\360\001\200@`\000\010\024\001\000\000\000\000"
 5597      80406000 
 5597      08140100 
 5597      000000
 5598 025d 000000F0 		.ascii	"\000\000\000\360\001\200@`\000\010\024\001\004\000\000"
 5598      01804060 
 5598      00081401 
 5598      040000
 5599 026c 00000000 		.ascii	"\000\000\000\000\360\001\200 `\000\010\024\001\004\000"
 5599      F0018020 
 5599      60000814 
ARM GAS  C:\Users\DJESSOU\AppData\Local\Temp\cc3eovRL.s 			page 160


 5599      010400
 5600 027b 00000000 		.ascii	"\000\000\000\000\000\361\011\200 `\000(T\001\004\000"
 5600      00F10980 
 5600      20600028 
 5600      54010400 
 5601 028b 00000000 		.ascii	"\000\000\000\000\000q\011\200 `\000(T\001\004\000\000"
 5601      00710980 
 5601      20600028 
 5601      54010400 
 5601      00
 5602 029c 00000000 		.ascii	"\000\000\000\000q\011\200 `\000(U\001\004\000\000\000"
 5602      71098020 
 5602      60002855 
 5602      01040000 
 5602      00
 5603 02ad 00000071 		.ascii	"\000\000\000q\001\200 `\000(\025\001\004\000\000\000"
 5603      01802060 
 5603      00281501 
 5603      04000000 
 5604 02bd 00000071 		.ascii	"\000\000\000q\001\200 `\000(\027\001\004\000\000\000"
 5604      01802060 
 5604      00281701 
 5604      04000000 
 5605 02cd 00000071 		.ascii	"\000\000\000q\000\200 `\000(\027\001\004\000\000\000"
 5605      00802060 
 5605      00281701 
 5605      04000000 
 5606 02dd 00000071 		.ascii	"\000\000\000q\000\200 `\000(W\001\004\000\000\000\000"
 5606      00802060 
 5606      00285701 
 5606      04000000 
 5606      00
 5607 02ee 00007100 		.ascii	"\000\000q\000\220 `\000(\027\001\004\000\000\000\000"
 5607      90206000 
 5607      28170104 
 5607      00000000 
 5608 02fe 00003100 		.ascii	"\000\0001\000\220 `\000(W\001\004\000\000\000\000\000"
 5608      90206000 
 5608      28570104 
 5608      00000000 
 5608      00
 5609 030f 00310080 		.ascii	"\0001\000\200 `\000(W\001\004\000\000\000\000\000\000"
 5609      20600028 
 5609      57010400 
 5609      00000000 
 5609      00
 5610 0320 31008040 		.ascii	"1\000\200@`\000(\027\001\004\000\000\000\000\000\000"
 5610      60002817 
 5610      01040000 
 5610      00000000 
 5611 0330 31408040 		.ascii	"1@\200@`\000(\027\001\004\360\000\000\000\000\0001@"
 5611      60002817 
 5611      0104F000 
 5611      00000000 
 5611      3140
 5612 0342 80406000 		.ascii	"\200@`\000(\007\001\004\360\000\000\000\000\0001\000"
 5612      28070104 
ARM GAS  C:\Users\DJESSOU\AppData\Local\Temp\cc3eovRL.s 			page 161


 5612      F0000000 
 5612      00003100 
 5613 0352 80406000 		.ascii	"\200@`\000(\007\001\004\360\000\000\000\000\0001\000"
 5613      28070104 
 5613      F0000000 
 5613      00003100 
 5614 0362 80606000 		.ascii	"\200``\000(\007\001\004\360\000\000\000\000\0001\200"
 5614      28070104 
 5614      F0000000 
 5614      00003180 
 5615 0372 A0606000 		.ascii	"\240``\000(\007\001\004\360\000\000\000\000\0001\000"
 5615      28070104 
 5615      F0000000 
 5615      00003100 
 5616 0382 80206000 		.ascii	"\200 `\000(\007\001\004\360\000\000\000\000\0001\020"
 5616      28070104 
 5616      F0000000 
 5616      00003110 
 5617 0392 80206000 		.ascii	"\200 `\000(\007\001\004\377\000\000\000\000\0001\000"
 5617      28070104 
 5617      FF000000 
 5617      00003100 
 5618 03a2 80206000 		.ascii	"\200 `\000(\007\001\004\377\000\000\000\000\0001\000"
 5618      28070104 
 5618      FF000000 
 5618      00003100 
 5619 03b2 80206000 		.ascii	"\200 `\000(\007\001\004\357\000\000\000\000\0001\000"
 5619      28070104 
 5619      EF000000 
 5619      00003100 
 5620 03c2 80206000 		.ascii	"\200 `\000(\007\001\004\317\000\000\000\000\0001\000"
 5620      28070104 
 5620      CF000000 
 5620      00003100 
 5621 03d2 80206000 		.ascii	"\200 `\000(\007\001\004\217\000\000\000\000\0001\000"
 5621      28070104 
 5621      8F000000 
 5621      00003100 
 5622 03e2 80206000 		.ascii	"\200 `\000(\007\001\004\216\000\000\000\000\0001\000"
 5622      28070104 
 5622      8E000000 
 5622      00003100 
 5623 03f2 80206000 		.ascii	"\200 `\000(\007\001\004\016\000\000\000\000\0001\000"
 5623      28070104 
 5623      0E000000 
 5623      00003100 
 5624 0402 80206000 		.ascii	"\200 `\000(\007\001\004\014\000\000\000\000\0001\000"
 5624      28070104 
 5624      0C000000 
 5624      00003100 
 5625 0412 80206000 		.ascii	"\200 `\000(\007\001\004\010\000\000\000\000\0001\000"
 5625      28070104 
 5625      08000000 
 5625      00003100 
 5626 0422 80206000 		.ascii	"\200 `\000(\007\001\004\000\000\000\000\000\000\261"
 5626      28070104 
 5626      00000000 
ARM GAS  C:\Users\DJESSOU\AppData\Local\Temp\cc3eovRL.s 			page 162


 5626      0000B1
 5627 0431 00802060 		.ascii	"\000\200 `\000(\007\001\004\000\000\000\000\000\000"
 5627      00280701 
 5627      04000000 
 5627      000000
 5628 0440 B1008020 		.ascii	"\261\000\200 `\000(\007\001\000\000\000\000\000\000"
 5628      60002807 
 5628      01000000 
 5628      000000
 5629 044f 00B10180 		.ascii	"\000\261\001\200 `\000(\007\001\000\000\000\000\000"
 5629      20600028 
 5629      07010000 
 5629      000000
 5630 045e 0000B101 		.ascii	"\000\000\261\001\200 `\000(\207\001\000\000\000\000"
 5630      80206000 
 5630      28870100 
 5630      000000
 5631 046d 000000B1 		.ascii	"\000\000\000\261\001\200<`\000(\007\001\000\000\000"
 5631      01803C60 
 5631      00280701 
 5631      000000
 5632 047c 00000000 		.ascii	"\000\000\000\000\261\001\200 d\000(\007\001\000\000"
 5632      B1018020 
 5632      64002807 
 5632      010000
 5633 048b 00000000 		.ascii	"\000\000\000\000\000\261\001\200 h\000(\007\001\000"
 5633      00B10180 
 5633      20680028 
 5633      070100
 5634 049a 00000000 		.ascii	"\000\000\000\000\000\000\261\001\200 p\000(\007\001"
 5634      0000B101 
 5634      80207000 
 5634      280701
 5635 04a9 00000000 		.ascii	"\000\000\000\000\000\000\000\261\001\200 `\000 \007"
 5635      000000B1 
 5635      01802060 
 5635      002007
 5636 04b8 01000000 		.ascii	"\001\000\000\000\000\000\000\000\261\001\200 `\000 "
 5636      00000000 
 5636      B1018020 
 5636      600020
 5637 04c7 27010000 		.ascii	"'\001\000\000\000\000\000\000\000\261\001\200 `\000"
 5637      00000000 
 5637      00B10180 
 5637      206000
 5638 04d6 20270104 		.ascii	" '\001\004\000\000\000\000\000\000\261\001\200 `\000"
 5638      00000000 
 5638      0000B101 
 5638      80206000 
 5639 04e6 20670104 		.ascii	" g\001\004\000\000\000\000\000\000\261\001\220 `\000"
 5639      00000000 
 5639      0000B101 
 5639      90206000 
 5640 04f6 20670104 		.ascii	" g\001\004\000\000\000\000\000\000\261\001\220 `\000"
 5640      00000000 
 5640      0000B101 
 5640      90206000 
ARM GAS  C:\Users\DJESSOU\AppData\Local\Temp\cc3eovRL.s 			page 163


 5641 0506 20270104 		.ascii	" '\001\004\000\000\000\000\000\000\261\000\200 `\000"
 5641      00000000 
 5641      0000B100 
 5641      80206000 
 5642 0516 20270104 		.ascii	" '\001\004\000\000\000\000\000\000\261\004\200 `\000"
 5642      00000000 
 5642      0000B104 
 5642      80206000 
 5643 0526 20670104 		.ascii	" g\001\004\000\000\000\000\000\000\261\000\200\001`"
 5643      00000000 
 5643      0000B100 
 5643      800160
 5644 0535 00202701 		.ascii	"\000 '\001\004\000\000\000\000\000\000\261\000\220\001"
 5644      04000000 
 5644      000000B1 
 5644      009001
 5645 0544 60002027 		.ascii	"`\000 '\001\004\000\000\000\000\000\000\261\000\220"
 5645      01040000 
 5645      00000000 
 5645      B10090
 5646 0553 01600020 		.ascii	"\001`\000 g\001\004\000\000\000\000\000\000\261\000"
 5646      67010400 
 5646      00000000 
 5646      00B100
 5647 0562 80016000 		.ascii	"\200\001`\000 g\001\004\000\000\000\000\000\000\261"
 5647      20670104 
 5647      00000000 
 5647      0000B1
 5648 0571 00800360 		.ascii	"\000\200\003`\000 \007\001\004\000\000\000\000\000\000"
 5648      00200701 
 5648      04000000 
 5648      000000
 5649 0580 B1008001 		.ascii	"\261\000\200\001`\000 \007\001\004\000\000\000\000\000"
 5649      60002007 
 5649      01040000 
 5649      000000
 5650 058f 00B10080 		.ascii	"\000\261\000\200\001b\000 \007\001\004\000\000\000\000"
 5650      01620020 
 5650      07010400 
 5650      000000
 5651 059e 0000B108 		.ascii	"\000\000\261\010\200\001`\000 \007\001\004\000\000\000"
 5651      80016000 
 5651      20070104 
 5651      000000
 5652 05ad 000000B1 		.ascii	"\000\000\000\261 \200\001b\000 \006\001\004\000\000"
 5652      20800162 
 5652      00200601 
 5652      040000
 5653 05bc 00000000 		.ascii	"\000\000\000\000\261\"\200\001b\000 \006\001\004\000"
 5653      B1228001 
 5653      62002006 
 5653      010400
 5654 05cb 00000000 		.ascii	"\000\000\000\000\000\261\002\200\001`\000 \006\001\004"
 5654      00B10280 
 5654      01600020 
 5654      060104
 5655 05da 00000000 		.ascii	"\000\000\000\000\000\000\206\002\212\001\000\000\300"
ARM GAS  C:\Users\DJESSOU\AppData\Local\Temp\cc3eovRL.s 			page 164


 5655      00008602 
 5655      8A010000 
 5655      C0
 5656 05e7 06000400 		.ascii	"\006\000\004\000\000\000\000\000\000\206\002\200\001"
 5656      00000000 
 5656      00860280 
 5656      01
 5657 05f4 0000C006 		.ascii	"\000\000\300\006\000\004\000\000\000\000\000\000\206"
 5657      00040000 
 5657      00000000 
 5657      86
 5658 0601 02800000 		.ascii	"\002\200\000\000\000\300\006\000\004\000\000\000\000"
 5658      00C00600 
 5658      04000000 
 5658      00
 5659 060e 00000000 		.ascii	"\000\000\000\000\000\000\000\000\000\000"
 5659      00000000 
 5659      0000
 5660              		.section	.rodata.gt_ram_seq4_content,"a"
 5663              	gt_ram_seq4_content:
 5664 0000 20000000 		.ascii	" \000\000\000\307\000\000\000\000\206\000\000\002\007"
 5664      C7000000 
 5664      00860000 
 5664      0207
 5665 000e 000000BA 		.ascii	"\000\000\000\272\000\000\003\003\000\000\000)\000\000"
 5665      00000303 
 5665      00000029 
 5665      0000
 5666 001c 02030000 		.ascii	"\002\003\000\000\334\000\000\000\000\000\000\000\002"
 5666      DC000000 
 5666      00000000 
 5666      02
 5667 0029 10000002 		.ascii	"\020\000\000\002\200\003\000\243\221\003\000.\240\003"
 5667      800300A3 
 5667      9103002E 
 5667      A003
 5668 0037 0002B003 		.ascii	"\000\002\260\003\000\300\304\003\000\273\320\003\000"
 5668      00C0C403 
 5668      00BBD003 
 5668      00
 5669 0044 02E00300 		.ascii	"\002\340\003\000\026\321\003\000\002\360\003\000\270"
 5669      16D10300 
 5669      02F00300 
 5669      B8
 5670 0051 00040002 		.ascii	"\000\004\000\002\020\004\000\026\001\004\000\002 \004"
 5670      10040016 
 5670      01040002 
 5670      2004
 5671 005f 00743104 		.ascii	"\000t1\004\000HA\004\000\031Q\004\000\0311\004\000\002"
 5671      00484104 
 5671      00195104 
 5671      00193104 
 5671      0002
 5672 0071 60040005 		.ascii	"`\004\000\0054\004\000LS\004\000\2730\004\000\002p\004"
 5672      3404004C 
 5672      530400BB 
 5672      30040002 
ARM GAS  C:\Users\DJESSOU\AppData\Local\Temp\cc3eovRL.s 			page 165


 5672      7004
 5673 0083 00453104 		.ascii	"\000E1\004\000\002\200\004\000\026\221\004\000\002\240"
 5673      00028004 
 5673      00169104 
 5673      0002A0
 5674 0092 04000690 		.ascii	"\004\000\006\220\003\000\002P\002\000\006\020\000\000"
 5674      03000250 
 5674      02000610 
 5674      0000
 5675 00a0 00006000 		.ascii	"\000\000`\000"
 5676              		.section	.rodata.gt_ram_seq3_content,"a"
 5679              	gt_ram_seq3_content:
 5680 0000 1F000000 		.ascii	"\037\000\000\000\006\000\000\000\000\036\000\000\002"
 5680      06000000 
 5680      001E0000 
 5680      02
 5681 000d 07000000 		.ascii	"\007\000\000\000\272\000\000\003\003\000\000\000)\000"
 5681      BA000003 
 5681      03000000 
 5681      2900
 5682 001b 00020300 		.ascii	"\000\002\003\000\000\334\000\000\000\000\000\000\000"
 5682      00DC0000 
 5682      00000000 
 5682      00
 5683 0028 02100000 		.ascii	"\002\020\000\000\002\020\003\000\2431\000\000.\220\000"
 5683      02100300 
 5683      A3310000 
 5683      2E9000
 5684 0037 00022003 		.ascii	"\000\002 \003\000\300\264\000\000\273\300\000\000\002"
 5684      00C0B400 
 5684      00BBC000 
 5684      0002
 5685 0045 30030016 		.ascii	"0\003\000\026\301\000\000\002@\003\000\270P\003\000"
 5685      C1000002 
 5685      400300B8 
 5685      500300
 5686 0054 02600300 		.ascii	"\002`\003\000\026Q\003\000\002p\003\000t\001\002\000"
 5686      16510300 
 5686      02700300 
 5686      74010200 
 5687 0064 48F10100 		.ascii	"H\361\001\000\031\341\001\000\031\001\002\000\002\020"
 5687      19E10100 
 5687      19010200 
 5687      0210
 5688 0072 02000504 		.ascii	"\002\000\005\004\002\000L\343\001\000\273\000\002\000"
 5688      02004CE3 
 5688      0100BB00 
 5688      0200
 5689 0080 02200200 		.ascii	"\002 \002\000E\001\002\000\0020\002\000\026A\002\000"
 5689      45010200 
 5689      02300200 
 5689      16410200 
 5690 0090 02800000 		.ascii	"\002\200\000\000\0060\000\000\011\020\000\000\000\000"
 5690      06300000 
 5690      09100000 
 5690      0000
 5691 009e 6000     		.ascii	"`\000"
ARM GAS  C:\Users\DJESSOU\AppData\Local\Temp\cc3eovRL.s 			page 166


 5692              		.section	.rodata.gt_ram_seq2_content,"a"
 5695              	gt_ram_seq2_content:
 5696 0000 2D000000 		.ascii	"-\000\000\000\277\000\000\000\000J\000\000\003!\000"
 5696      BF000000 
 5696      004A0000 
 5696      032100
 5697 000f 00003F00 		.ascii	"\000\000?\000\000\000\036\000\000\000\313\000\000\002"
 5697      00001E00 
 5697      0000CB00 
 5697      0002
 5698 001d 03000074 		.ascii	"\003\000\000t\000\000\000\000\000\000\000\002\020\000"
 5698      00000000 
 5698      00000002 
 5698      1000
 5699 002b 00022000 		.ascii	"\000\002 \000\000\3221\000\000\002`\002\000|u\002\000"
 5699      00D23100 
 5699      00026002 
 5699      007C7502 
 5699      00
 5700 003c 02800200 		.ascii	"\002\200\002\000\225v\002\000\002\220\002\000\300t\002"
 5700      95760200 
 5700      02900200 
 5700      C07402
 5701 004b 00BBA002 		.ascii	"\000\273\240\002\000\002\260\002\000\026\241\002\000"
 5701      0002B002 
 5701      0016A102 
 5701      00
 5702 0058 02C00200 		.ascii	"\002\300\002\000\270\240\002\000\002\320\002\000\026"
 5702      B8A00200 
 5702      02D00200 
 5702      16
 5703 0065 A10200FE 		.ascii	"\241\002\000\376\177\002\000\376\177\002\000\376\177"
 5703      7F0200FE 
 5703      7F0200FE 
 5703      7F
 5704 0072 0200FE7F 		.ascii	"\002\000\376\177\002\000\"s\002\000.\260\000\000\002"
 5704      02002273 
 5704      02002EB0 
 5704      000002
 5705 0081 E0020005 		.ascii	"\340\002\000\005\004\002\000L\343\001\000\273\000\002"
 5705      0402004C 
 5705      E30100BB 
 5705      0002
 5706 008f 0002F002 		.ascii	"\000\002\360\002\000\211\000\002\000H\361\001\000\031"
 5706      00890002 
 5706      0048F101 
 5706      0019
 5707 009d E1010019 		.ascii	"\341\001\000\031\001\002\000\002\020\002\000\005\004"
 5707      01020002 
 5707      10020005 
 5707      04
 5708 00aa 02004CE3 		.ascii	"\002\000L\343\001\000\273\000\002\000\002 \002\000\211"
 5708      0100BB00 
 5708      02000220 
 5708      020089
 5709 00b9 00020002 		.ascii	"\000\002\000\002\000\003\000\026\001\002\000\002\200"
 5709      00030016 
ARM GAS  C:\Users\DJESSOU\AppData\Local\Temp\cc3eovRL.s 			page 167


 5709      01020002 
 5709      80
 5710 00c6 00000630 		.ascii	"\000\000\0060\000\000\002P\002\000Z\020\000\000\000"
 5710      00000250 
 5710      02005A10 
 5710      000000
 5711 00d5 006000   		.ascii	"\000`\000"
 5712              		.section	.rodata.gt_ram_seq1_content,"a"
 5715              	gt_ram_seq1_content:
 5716 0000 42000000 		.ascii	"B\000\000\000)\000\000\000\000\302\000\000\001\023\000"
 5716      29000000 
 5716      00C20000 
 5716      011300
 5717 000f 00002F00 		.ascii	"\000\000/\000\000\000\014\000\000\000\334\000\000\002"
 5717      00000C00 
 5717      0000DC00 
 5717      0002
 5718 001d 03000020 		.ascii	"\003\000\000 \000\000\000\000\000\000\000\002\020\000"
 5718      00000000 
 5718      00000002 
 5718      1000
 5719 002b 00022000 		.ascii	"\000\002 \000\000\3221\000\000\002@\000\000s1\000\000"
 5719      00D23100 
 5719      00024000 
 5719      00733100 
 5719      00
 5720 003c D5510000 		.ascii	"\325Q\000\000\002`\000\000\322Q\000\000\2513\000\000"
 5720      02600000 
 5720      D2510000 
 5720      A9330000 
 5721 004c 02700000 		.ascii	"\002p\000\000\2700\000\000\002\200\000\000\2431\000"
 5721      B8300000 
 5721      02800000 
 5721      A33100
 5722 005b 002E9000 		.ascii	"\000.\220\000\000\002\240\000\000\300\264\000\000\273"
 5722      0002A000 
 5722      00C0B400 
 5722      00BB
 5723 0069 C0000002 		.ascii	"\300\000\000\002\320\000\000\026\301\000\000\002\340"
 5723      D0000016 
 5723      C1000002 
 5723      E0
 5724 0076 0000B8C0 		.ascii	"\000\000\270\300\000\000\002\360\000\000\026\301\000"
 5724      000002F0 
 5724      000016C1 
 5724      00
 5725 0083 00A9B300 		.ascii	"\000\251\263\000\000\002\000\001\000t\261\000\000\002"
 5725      00020001 
 5725      0074B100 
 5725      0002
 5726 0091 A0000005 		.ascii	"\240\000\000\005\264\000\000L\023\001\000\273\260\000"
 5726      B400004C 
 5726      130100BB 
 5726      B000
 5727 009f 00022001 		.ascii	"\000\002 \001\000\211\260\000\000\0311\001\000\273@"
 5727      0089B000 
 5727      00193101 
ARM GAS  C:\Users\DJESSOU\AppData\Local\Temp\cc3eovRL.s 			page 168


 5727      00BB40
 5728 00ae 01000250 		.ascii	"\001\000\002P\001\000\026A\001\000\002`\001\000\322"
 5728      01001641 
 5728      01000260 
 5728      0100D2
 5729 00bd 41010002 		.ascii	"A\001\000\002p\001\000\300D\001\000\273\200\001\000"
 5729      700100C0 
 5729      440100BB 
 5729      800100
 5730 00cc 02900100 		.ascii	"\002\220\001\000\026\201\001\000\002\240\001\000\270"
 5730      16810100 
 5730      02A00100 
 5730      B8
 5731 00d9 B0010002 		.ascii	"\260\001\000\002\300\001\000\271\260\001\000\\\320\001"
 5731      C00100B9 
 5731      B001005C 
 5731      D001
 5732 00e7 00D6E101 		.ascii	"\000\326\341\001\000H\361\001\000\031\341\001\000\031"
 5732      0048F101 
 5732      0019E101 
 5732      0019
 5733 00f5 01020002 		.ascii	"\001\002\000\002\020\002\000\005\004\002\000L\343\001"
 5733      10020005 
 5733      0402004C 
 5733      E301
 5734 0103 00BB0002 		.ascii	"\000\273\000\002\000\002 \002\000\211\000\002\000\002"
 5734      00022002 
 5734      00890002 
 5734      0002
 5735 0111 30020016 		.ascii	"0\002\000\026A\002\000\002\200\000\000\0060\000\000"
 5735      41020002 
 5735      80000006 
 5735      300000
 5736 0120 02500200 		.ascii	"\002P\002\000\006\020\000\000\000\000`\000"
 5736      06100000 
 5736      00006000 
 5737              		.section	.rodata.gt_ram_pat_content,"a"
 5740              	gt_ram_pat_content:
 5741 0000 EC884B00 		.ascii	"\354\210K\000\000\000\000\000\000\000\000\000\000\000"
 5741      00000000 
 5741      00000000 
 5741      0000
 5742 000e 00000000 		.ascii	"\000\000\000\000\000\010\000\000\000\000\000\200\000"
 5742      00080000 
 5742      00000080 
 5742      00
 5743 001b 88080000 		.ascii	"\210\010\000\000\000\000\200\000\010\000\000\000\000"
 5743      00008000 
 5743      08000000 
 5743      00
 5744 0028 20800008 		.ascii	" \200\000\010\000\000\000\000\004\200\000\010\000\000"
 5744      00000000 
 5744      04800008 
 5744      0000
 5745 0036 00000482 		.ascii	"\000\000\004\202\000\010\000\000\000\000@\200\000\010"
 5745      00080000 
 5745      00004080 
ARM GAS  C:\Users\DJESSOU\AppData\Local\Temp\cc3eovRL.s 			page 169


 5745      0008
 5746 0044 00000000 		.ascii	"\000\000\000\000\000\204\000\010\000\000\000\000\000"
 5746      00840008 
 5746      00000000 
 5746      00
 5747 0051 80010800 		.ascii	"\200\001\010\000\000\000\000\010\200\003\010\000\000"
 5747      00000008 
 5747      80030800 
 5747      00
 5748 005e 00000080 		.ascii	"\000\000\000\200\003\010\000\000\000\000\004\200\003"
 5748      03080000 
 5748      00000480 
 5748      03
 5749 006b 08000000 		.ascii	"\010\000\000\000\000\024\200\003\010\000\000\000\000"
 5749      00148003 
 5749      08000000 
 5749      00
 5750 0078 04820308 		.ascii	"\004\202\003\010\000\000\000\000\004\200\003\010\004"
 5750      00000000 
 5750      04800308 
 5750      04
 5751 0085 00000000 		.ascii	"\000\000\000\000\200\003H\000\000\000\000\001\200\003"
 5751      80034800 
 5751      00000001 
 5751      8003
 5752 0093 08000000 		.ascii	"\010\000\000\000\000\020\200\003\010\000\000\000\000"
 5752      00108003 
 5752      08000000 
 5752      00
 5753 00a0 00800308 		.ascii	"\000\200\003\010\002\000\000\000\001\200\003\010\002"
 5753      02000000 
 5753      01800308 
 5753      02
 5754 00ad 00000001 		.ascii	"\000\000\000\001\204\003\010\002\000\000\000\001\200"
 5754      84030802 
 5754      00000001 
 5754      80
 5755 00ba 03080A00 		.ascii	"\003\010\012\000\000\000!\200\003\010\002\000\000\000"
 5755      00002180 
 5755      03080200 
 5755      0000
 5756 00c8 05800308 		.ascii	"\005\200\003\010\002\000\000\000E\200\003\010\002\000"
 5756      02000000 
 5756      45800308 
 5756      0200
 5757 00d6 00000582 		.ascii	"\000\000\005\202\003\014\002\000\000\000\005\200\003"
 5757      030C0200 
 5757      00000580 
 5757      03
 5758 00e3 0C020000 		.ascii	"\014\002\000\000\000\005\200\003\014\006\000\000\000"
 5758      00058003 
 5758      0C060000 
 5758      00
 5759 00f0 0580030C 		.ascii	"\005\200\003\014\000\000\000\000\001\200\003\014\000"
 5759      00000000 
 5759      0180030C 
 5759      00
ARM GAS  C:\Users\DJESSOU\AppData\Local\Temp\cc3eovRL.s 			page 170


 5760 00fd 00000001 		.ascii	"\000\000\000\001\200\003\034\000\000\000\000\000\200"
 5760      80031C00 
 5760      00000000 
 5760      80
 5761 010a 030C0000 		.ascii	"\003\014\000\000\000\000 \200\003\014\000\000\000\000"
 5761      00002080 
 5761      030C0000 
 5761      0000
 5762 0118 4080030C 		.ascii	"@\200\003\014\000\000\000\000\000\200\000,\000\000\000"
 5762      00000000 
 5762      0080002C 
 5762      000000
 5763 0127 00008000 		.ascii	"\000\000\200\000\014\000\000\000\000\000\000\000\010"
 5763      0C000000 
 5763      00000000 
 5763      08
 5764 0134 01000000 		.ascii	"\001\000\000\000\010\200\002\010\000\000\000\000\000"
 5764      08800208 
 5764      00000000 
 5764      00
 5765 0141 80020800 		.ascii	"\200\002\010\000\000\000\000\020\200\002\010\000\000"
 5765      00000010 
 5765      80020800 
 5765      00
 5766 014e 00002080 		.ascii	"\000\000 \200\002\010\000\000\000\000\004\200\002\010"
 5766      02080000 
 5766      00000480 
 5766      0208
 5767 015c 00000000 		.ascii	"\000\000\000\000D\200\002\010\000\000\000\000\004\202"
 5767      44800208 
 5767      00000000 
 5767      0482
 5768 016a 02080000 		.ascii	"\002\010\000\000\000\000\004\200\002\010\004\000\000"
 5768      00000480 
 5768      02080400 
 5768      00
 5769 0177 00088003 		.ascii	"\000\010\200\003\014\000\000\000\000\020\200\003\014"
 5769      0C000000 
 5769      00108003 
 5769      0C
 5770 0184 00000000 		.ascii	"\000\000\000\000\000\200\003,\000\000\000\000\000\200"
 5770      0080032C 
 5770      00000000 
 5770      0080
 5771 0192 00080800 		.ascii	"\000\010\010\000\000\000 \200\003\010\000\000\000\000"
 5771      00002080 
 5771      03080000 
 5771      0000
 5772 01a0 44800308 		.ascii	"D\200\003\010\000\000\000\000\004\202\003\014\000\000"
 5772      00000000 
 5772      0482030C 
 5772      0000
 5773 01ae 00000480 		.ascii	"\000\000\004\200\003\014\000\000\000\000\004\200\003"
 5773      030C0000 
 5773      00000480 
 5773      03
 5774 01bb 0C040000 		.ascii	"\014\004\000\000\000\000\200\003L\000\000\000\000\002"
ARM GAS  C:\Users\DJESSOU\AppData\Local\Temp\cc3eovRL.s 			page 171


 5774      00008003 
 5774      4C000000 
 5774      0002
 5775 01c9 80000808 		.ascii	"\200\000\010\010\000\000\000\002\200\000\010\000\000"
 5775      00000002 
 5775      80000800 
 5775      00
 5776 01d6 00000280 		.ascii	"\000\000\002\200\001\010\000\000\000\000\012\200\003"
 5776      01080000 
 5776      00000A80 
 5776      03
 5777 01e3 08000000 		.ascii	"\010\000\000\000\000\002\200\003\010\000\000\000\000"
 5777      00028003 
 5777      08000000 
 5777      00
 5778 01f0 06800308 		.ascii	"\006\200\003\010\000\000\000\000\026\200\003\010\000"
 5778      00000000 
 5778      16800308 
 5778      00
 5779 01fd 00000006 		.ascii	"\000\000\000\006\202\003\014\000\000\000\000\006\200"
 5779      82030C00 
 5779      00000006 
 5779      80
 5780 020a 030C0000 		.ascii	"\003\014\000\000\000\000\006\200\003\014\004\000\000"
 5780      00000680 
 5780      030C0400 
 5780      00
 5781 0217 00028003 		.ascii	"\000\002\200\003L\000\000\000\000\002\200\003\014\000"
 5781      4C000000 
 5781      00028003 
 5781      0C00
 5782 0225 00000003 		.ascii	"\000\000\000\003\200\003\034\000\000\000\000\003\200"
 5782      80031C00 
 5782      00000003 
 5782      80
 5783 0232 030C0000 		.ascii	"\003\014\000\000\000\000\012\200\003\014\000\000\000"
 5783      00000A80 
 5783      030C0000 
 5783      00
 5784 023f 00128003 		.ascii	"\000\022\200\003\014\000\000\000\000\002\200\000,\000"
 5784      0C000000 
 5784      00028000 
 5784      2C00
 5785 024d 00000002 		.ascii	"\000\000\000\002\200\000\014\000\000\000\000\002\204"
 5785      80000C00 
 5785      00000002 
 5785      84
 5786 025a 00080000 		.ascii	"\000\010\000\000\000\000"
 5786      0000
 5787              		.section	.rodata.fw_patch_13_mono_cert,"a"
 5790              	fw_patch_13_mono_cert:
 5791 0000 3081DA83 		.ascii	"0\201\332\203\001\001\224@y\321\356l\314q\272\367l\034"
 5791      01019440 
 5791      79D1EE6C 
 5791      CC71BAF7 
 5791      6C1C
 5792 0012 334326A4 		.ascii	"3C&\244\000\342y\241w9GB6\204C\261)>p\330\342[\030E"
ARM GAS  C:\Users\DJESSOU\AppData\Local\Temp\cc3eovRL.s 			page 172


 5792      00E279A1 
 5792      77394742 
 5792      368443B1 
 5792      293E70D8 
 5793 002a D09BAEE9 		.ascii	"\320\233\256\351\363,\023\252J\325\313\245\005\261\237"
 5793      F32C13AA 
 5793      4AD5CBA5 
 5793      05B19F
 5794 0039 77DB1D42 		.ascii	"w\333\035Br\312gz\017Q\177\340\260\275\332\212\004S"
 5794      72CA677A 
 5794      0F517FE0 
 5794      B0BDDA8A 
 5794      0453
 5795 004b 3934308B 		.ascii	"940\213\020\275\236\260\226\304\303u//u\335\256\300"
 5795      10BD9EB0 
 5795      96C4C375 
 5795      2F2F75DD 
 5795      AEC0
 5796 005d B679E681 		.ascii	"\266y\346\201\020\000\000\000\000\000\000\000\000\000"
 5796      10000000 
 5796      00000000 
 5796      0000
 5797 006b 00000000 		.ascii	"\000\000\000\000\000\000\000\204\001\255\207 \335}\367"
 5797      00000084 
 5797      01AD8720 
 5797      DD7DF7
 5798 007a EBDDAC58 		.ascii	"\353\335\254Xy\360\202\233\036\177\256\374J\345\330"
 5798      79F0829B 
 5798      1E7FAEFC 
 5798      4AE5D8
 5799 0089 F6DF35C9 		.ascii	"\366\3375\311\223\372\037\300r7<su \222\020\241\247"
 5799      93FA1FC0 
 5799      72373C73 
 5799      75209210 
 5799      A1A7
 5800 009b A4667757 		.ascii	"\244fwW\262p\005\240B\206\000\326\320Y\205\001\000\202"
 5800      B27005A0 
 5800      428600D6 
 5800      D0598501 
 5800      0082
 5801 00ad 01DB302C 		.ascii	"\001\3330,\004\004ettm1$\004\004dbgr\004\004olbt\004"
 5801      04046574 
 5801      746D3124 
 5801      04046462 
 5801      67720404 
 5802 00c6 0470726F 		.ascii	"\004prov\004\004rcaw\004\004sens\004\004vtrp0D\002 "
 5802      76040472 
 5802      63617704 
 5802      0473656E 
 5802      73040476 
 5803 00e1 434AE3D9 		.ascii	"CJ\343\331Y\325\007m\273a\266S\036\236\251\311`$\034"
 5803      59D5076D 
 5803      BB61B653 
 5803      1E9EA9C9 
 5803      60241C
 5804 00f4 E1AFFBE5 		.ascii	"\341\257\373\345\351V@<\2678\3612\261\002 {\225]\251"
 5804      E956403C 
ARM GAS  C:\Users\DJESSOU\AppData\Local\Temp\cc3eovRL.s 			page 173


 5804      B738F132 
 5804      B102207B 
 5804      955DA9
 5805 0107 2331170F 		.ascii	"#1\027\017\037\325:\366w\343O=\250\003\011\375\352\234"
 5805      1FD53AF6 
 5805      77E34F3D 
 5805      A80309FD 
 5805      EA9C
 5806 0119 D20B623B 		.ascii	"\322\013b;\307qH\352\244\2500\201\222\203\001\001\212"
 5806      C77148EA 
 5806      A4A83081 
 5806      92830101 
 5806      8A
 5807 012a 04533934 		.ascii	"\004S940\213\020\275\236\260\226\304\303u//u\335\256"
 5807      308B10BD 
 5807      9EB096C4 
 5807      C3752F2F 
 5807      75DDAE
 5808 013d C0B679E6 		.ascii	"\300\266y\346\201\020\000\000\000\000\000\000\000\000"
 5808      81100000 
 5808      00000000 
 5808      0000
 5809 014b 00000000 		.ascii	"\000\000\000\000\000\000\000\000\204\001\255\207 \335"
 5809      00000000 
 5809      8401AD87 
 5809      20DD
 5810 0159 7DF7EBDD 		.ascii	"}\367\353\335\254Xy\360\202\233\036\177\256\374J\345"
 5810      AC5879F0 
 5810      829B1E7F 
 5810      AEFC4AE5 
 5811 0169 D8F6DF35 		.ascii	"\330\366\3375\311\223\372\037\300r7<su \222\020\241"
 5811      C993FA1F 
 5811      C072373C 
 5811      73752092 
 5811      10A1
 5812 017b A7A46677 		.ascii	"\247\244fwW\262p\005\240B\206\000\326\320Y\205\001\000"
 5812      57B27005 
 5812      A0428600 
 5812      D6D05985 
 5812      0100
 5813 018d 8201DB30 		.ascii	"\202\001\3330&\004\004ettm1\036\004\004dbgr\004\004"
 5813      26040465 
 5813      74746D31 
 5813      1E040464 
 5813      62677204 
 5814 01a2 6F6C6274 		.ascii	"olbt\004\004prov\004\004sens\004\004vtrp0E\002 vb\025"
 5814      04047072 
 5814      6F760404 
 5814      73656E73 
 5814      04047674 
 5815 01bf 75060525 		.ascii	"u\006\005%\016D\030\332\256\367\\'z\231\020\277q\205"
 5815      0E4418DA 
 5815      AEF75C27 
 5815      7A9910BF 
 5815      7185
 5816 01d1 9EEDDBDA 		.ascii	"\236\355\333\332\354\246\360\236\266\275Q\002!\000\247"
 5816      ECA6F09E 
ARM GAS  C:\Users\DJESSOU\AppData\Local\Temp\cc3eovRL.s 			page 174


 5816      B6BD5102 
 5816      2100A7
 5817 01e0 88B1BF12 		.ascii	"\210\261\277\022\325\264\360\0260\367\202\357\327\034"
 5817      D5B4F016 
 5817      30F782EF 
 5817      D71C
 5818 01ee DD4B38B6 		.ascii	"\335K8\2668u\345\277\262\314p%\347B\310Sv"
 5818      3875E5BF 
 5818      B2CC7025 
 5818      E742C853 
 5818      76
 5819              		.section	.rodata.fw_patch_13_mono_array,"a"
 5822              	fw_patch_13_mono_array:
 5823 0000 ECEC6010 		.ascii	"\354\354`\0207\017\340\304\326X\336\271\320_\365\277"
 5823      370FE0C4 
 5823      D658DEB9 
 5823      D05FF5BF 
 5824 0010 C9FAF65B 		.ascii	"\311\372\366[6\310#ZW\020\251\331\344\304\250\275K{"
 5824      36C8235A 
 5824      5710A9D9 
 5824      E4C4A8BD 
 5824      4B7B
 5825 0022 C70F553C 		.ascii	"\307\017U<n\323\372\316:\364\305\010:\267\310\226:`"
 5825      6ED3FACE 
 5825      3AF4C508 
 5825      3AB7C896 
 5825      3A60
 5826 0034 A6C8DCA9 		.ascii	"\246\310\334\251\374\361\200[\333\335\227S\245e\315"
 5826      FCF1805B 
 5826      DBDD9753 
 5826      A565CD
 5827 0043 0F2C15F6 		.ascii	"\017,\025\366\227\3173\233\2075\306Qc\341U'\312\034"
 5827      97CF339B 
 5827      8735C651 
 5827      63E15527 
 5827      CA1C
 5828 0055 9E265501 		.ascii	"\236&U\001k\237\265o\361j\326\233O\317=a\033\015\340"
 5828      6B9FB56F 
 5828      F16AD69B 
 5828      4FCF3D61 
 5828      1B0DE0
 5829 0068 2AFC9E7A 		.ascii	"*\374\236z\322\356\214G~\237\203\334\022\247\017>\003"
 5829      D2EE8C47 
 5829      7E9F83DC 
 5829      12A70F3E 
 5829      03
 5830 0079 64A8FD2C 		.ascii	"d\250\375,R\324 \356\006\030$\201\326U\253\243~C\271"
 5830      52D420EE 
 5830      06182481 
 5830      D655ABA3 
 5830      7E43B9
 5831 008c 94042793 		.ascii	"\224\004'\223\265\0205\357k\036\332\3775Di&n\232pxk"
 5831      B51035EF 
 5831      6B1EDAFF 
 5831      35446926 
 5831      6E9A7078 
 5832 00a1 A904E15E 		.ascii	"\251\004\341^\316\276%nB\223\327\317\235\024N\327V\011"
ARM GAS  C:\Users\DJESSOU\AppData\Local\Temp\cc3eovRL.s 			page 175


 5832      CEBE256E 
 5832      4293D7CF 
 5832      9D144ED7 
 5832      5609
 5833 00b3 E883CF8D 		.ascii	"\350\203\317\215\341\230R\003-\2311\260\361DbV\007\015"
 5833      E1985203 
 5833      2D9931B0 
 5833      F1446256 
 5833      070D
 5834 00c5 BCD18BE1 		.ascii	"\274\321\213\341\230\377\265\177\023\270\364\223)\211"
 5834      98FFB57F 
 5834      13B8F493 
 5834      2989
 5835 00d3 5EEBFE7C 		.ascii	"^\353\376|\271\223\315\245\326JJ/\357d\027\237S4\337"
 5835      B993CDA5 
 5835      D64A4A2F 
 5835      EF64179F 
 5835      5334DF
 5836 00e6 6AC8DF1A 		.ascii	"j\310\337\032\030\210\252\202\205\220\027\213A\306\206"
 5836      1888AA82 
 5836      8590178B 
 5836      41C686
 5837 00f5 18448F0E 		.ascii	"\030D\217\016\375\321=\335\307\034\021\211h\253\011"
 5837      FDD13DDD 
 5837      C71C1189 
 5837      68AB09
 5838 0104 2DD87DE3 		.ascii	"-\330}\343=Z\237 hX\262R\376o;}\034\006qp6\034J\237"
 5838      3D5A9F20 
 5838      6858B252 
 5838      FE6F3B7D 
 5838      1C067170 
 5839 011c D53D10BA 		.ascii	"\325=\020\2723\327\371\251\026\005\021\200\350\235,"
 5839      33D7F9A9 
 5839      16051180 
 5839      E89D2C
 5840 012b E1AFD507 		.ascii	"\341\257\325\007\373oaH\373\336\203\203k\022/\273u\013"
 5840      FB6F6148 
 5840      FBDE8383 
 5840      6B122FBB 
 5840      750B
 5841 013d 9FC4FA2D 		.ascii	"\237\304\372-L\321\242\230)(\276\355\265ko\206,>CH\340"
 5841      4CD1A298 
 5841      2928BEED 
 5841      B56B6F86 
 5841      2C3E4348 
 5842 0152 74B9FD20 		.ascii	"t\271\375 \032f\253?|\335\325`\242\024\030\031\266q"
 5842      1A66AB3F 
 5842      7CDDD560 
 5842      A2141819 
 5842      B671
 5843 0164 29D40C3B 		.ascii	")\324\014;\3755q\330\276\000\013\245!\3557\035A7c*n"
 5843      FD3571D8 
 5843      BE000BA5 
 5843      21ED371D 
 5843      4137632A 
 5844 0179 B1E6531F 		.ascii	"\261\346S\037S\204\340\340z\177\006\366\235\331]\363"
 5844      5384E0E0 
ARM GAS  C:\Users\DJESSOU\AppData\Local\Temp\cc3eovRL.s 			page 176


 5844      7A7F06F6 
 5844      9DD95DF3 
 5845 0189 1C19CCBA 		.ascii	"\034\031\314\272uM-=]F\272\010D~\330\372:(\343Gc%\012"
 5845      754D2D3D 
 5845      5D46BA08 
 5845      447ED8FA 
 5845      3A28E347 
 5846 01a0 2AA5F6BF 		.ascii	"*\245\366\277\361\037\233K\3144\201\367&\"O==\2770a"
 5846      F11F9B4B 
 5846      CC3481F7 
 5846      26224F3D 
 5846      3DBF3061 
 5847 01b4 6EA59995 		.ascii	"n\245\231\225\360\365\031\313\2404\253\202;\006\361"
 5847      F0F519CB 
 5847      A034AB82 
 5847      3B06F1
 5848 01c3 BBD1E55F 		.ascii	"\273\321\345_;I(>w\233\275iJ9\222J]\272\246t\201\321"
 5848      3B49283E 
 5848      779BBD69 
 5848      4A39924A 
 5848      5DBAA674 
 5849 01d9 D0420FAA 		.ascii	"\320B\017\252D\325'\245D\270\261\336\323\360%\010\262"
 5849      44D527A5 
 5849      44B8B1DE 
 5849      D3F02508 
 5849      B2
 5850 01ea 72757D6F 		.ascii	"ru}o\261\3379W\343\202\370\325d\352\236\256L\307'\005"
 5850      B1DF3957 
 5850      E382F8D5 
 5850      64EA9EAE 
 5850      4CC72705 
 5851 01fe BC04F6AE 		.ascii	"\274\004\366\256\260\344\022\267\202\220`$\200\303\036"
 5851      B0E412B7 
 5851      82906024 
 5851      80C31E
 5852 020d 9D6BEA97 		.ascii	"\235k\352\227\324>W\234>\274\031I\203&Y\313\272\364"
 5852      D43E579C 
 5852      3EBC1949 
 5852      832659CB 
 5852      BAF4
 5853 021f 10174B71 		.ascii	"\020\027Kq\011\315\336#^&\253x\036\3342\377\351\323"
 5853      09CDDE23 
 5853      5E26AB78 
 5853      1EDC32FF 
 5853      E9D3
 5854 0231 16A8E71B 		.ascii	"\026\250\347\033h\015J\177\013\253\364u\254\276\344"
 5854      680D4A7F 
 5854      0BABF475 
 5854      ACBEE4
 5855 0240 FDEA740F 		.ascii	"\375\352t\017>x@\337\273\217qS\037\303'\312X\307Hi\237"
 5855      3E7840DF 
 5855      BB8F7153 
 5855      1FC327CA 
 5855      58C74869 
 5856 0255 CB1DBF3A 		.ascii	"\313\035\277:\012\016U*\233\310\253t`/\030nC\025:{\027"
 5856      0A0E552A 
 5856      9BC8AB74 
ARM GAS  C:\Users\DJESSOU\AppData\Local\Temp\cc3eovRL.s 			page 177


 5856      602F186E 
 5856      43153A7B 
 5857 026a 0C8B7BA3 		.ascii	"\014\213{\243\276\231\261\364nK^\007\015\356\242\301"
 5857      BE99B1F4 
 5857      6E4B5E07 
 5857      0DEEA2C1 
 5858 027a D000923F 		.ascii	"\320\000\222?.\335\003\354\315#y-\025\234\265G\001\274"
 5858      2EDD03EC 
 5858      CD23792D 
 5858      159CB547 
 5858      01BC
 5859 028c 0DC3B8E4 		.ascii	"\015\303\270\344\363\324\356\023\230\207O\276\234D\335"
 5859      F3D4EE13 
 5859      98874FBE 
 5859      9C44DD
 5860 029b EFB47CAE 		.ascii	"\357\264|\256\232\247t.G;A\267F$\272\230O\307L\336\344"
 5860      9AA7742E 
 5860      473B41B7 
 5860      4624BA98 
 5860      4FC74CDE 
 5861 02b0 3B860B9D 		.ascii	";\206\013\235\267,\3125F4,\343\353\205\312\030\321}"
 5861      B72CCA35 
 5861      46342CE3 
 5861      EB85CA18 
 5861      D17D
 5862 02c2 FDBAC164 		.ascii	"\375\272\301d\024Y\324\276:\225<\265\0351\371\007\214"
 5862      1459D4BE 
 5862      3A953CB5 
 5862      1D31F907 
 5862      8C
 5863 02d3 E1A67D33 		.ascii	"\341\246}3\326\212WU\373A\265\203}\013\354\033vF\256"
 5863      D68A5755 
 5863      FB41B583 
 5863      7D0BEC1B 
 5863      7646AE
 5864 02e6 8AEBAEEB 		.ascii	"\212\353\256\353@\017\012\257\027\316p\230B\243\227"
 5864      400F0AAF 
 5864      17CE7098 
 5864      42A397
 5865 02f5 19BD407A 		.ascii	"\031\275@z\376\222bt\014\361\036=\002\362J\272}\246"
 5865      FE926274 
 5865      0CF11E3D 
 5865      02F24ABA 
 5865      7DA6
 5866 0307 7D985A51 		.ascii	"}\230ZQ\201\230\305\233\027h\203\3656\242\305`\371\312"
 5866      8198C59B 
 5866      176883F5 
 5866      36A2C560 
 5866      F9CA
 5867 0319 867C8A17 		.ascii	"\206|\212\027\311\032\227\225\372\277\267\031\265\276"
 5867      C91A9795 
 5867      FABFB719 
 5867      B5BE
 5868 0327 6A958A06 		.ascii	"j\225\212\006V\015\232+%\267\220R\011\202\313\364_$"
 5868      560D9A2B 
 5868      25B79052 
 5868      0982CBF4 
ARM GAS  C:\Users\DJESSOU\AppData\Local\Temp\cc3eovRL.s 			page 178


 5868      5F24
 5869 0339 A0F5E747 		.ascii	"\240\365\347G\301H\352_\302\037\350H{\230\207\361n\217"
 5869      C148EA5F 
 5869      C21FE848 
 5869      7B9887F1 
 5869      6E8F
 5870 034b 1BD4BD24 		.ascii	"\033\324\275$Px\241\352\241l%\233\343\241 \212F<9\246"
 5870      5078A1EA 
 5870      A16C259B 
 5870      E3A1208A 
 5870      463C39A6 
 5871 035f A7F3EE92 		.ascii	"\247\363\356\222q6\302Z_\030PY&u\346\254\274$\036\201"
 5871      7136C25A 
 5871      5F185059 
 5871      2675E6AC 
 5871      BC241E81 
 5872 0373 371487A7 		.ascii	"7\024\207\2479\034/S\037\372\013\003\263=\242\207\311"
 5872      391C2F53 
 5872      1FFA0B03 
 5872      B33DA287 
 5872      C9
 5873 0384 CDE759D7 		.ascii	"\315\347Y\327\365\264\326\273\021\335\322\306\202L\017"
 5873      F5B4D6BB 
 5873      11DDD2C6 
 5873      824C0F
 5874 0393 5DB74493 		.ascii	"]\267D\223\343Y\027\224\213,\275\204\214\241{(\377\201"
 5874      E3591794 
 5874      8B2CBD84 
 5874      8CA17B28 
 5874      FF81
 5875 03a5 01620073 		.ascii	"\001b\000s\332\342\357\304R;\364\214\267\332R\325\003"
 5875      DAE2EFC4 
 5875      523BF48C 
 5875      B7DA52D5 
 5875      03
 5876 03b6 DD1442E4 		.ascii	"\335\024B\344\346si\352\241VU\224l\036<\306i9\307'\214"
 5876      E67369EA 
 5876      A1565594 
 5876      6C1E3CC6 
 5876      6939C727 
 5877 03cb 9BACA1CD 		.ascii	"\233\254\241\315\234_\271\272\301\374\207]7g?\243a\264"
 5877      9C5FB9BA 
 5877      C1FC875D 
 5877      37673FA3 
 5877      61B4
 5878 03dd 3665931E 		.ascii	"6e\223\036#i\274\274\245\334\375\244\014\203\006<\376"
 5878      2369BCBC 
 5878      A5DCFDA4 
 5878      0C83063C 
 5878      FE
 5879 03ee 3F5FFA59 		.ascii	"?_\372Y\252X\037\234\270\260nPo\311A}\365l\272\305\223"
 5879      AA581F9C 
 5879      B8B06E50 
 5879      6FC9417D 
 5879      F56CBAC5 
 5880 0403 3CE082CC 		.ascii	"<\340\202\314\015Nq\006\270m\2543dE~H\310\237\3724V"
 5880      0D4E7106 
ARM GAS  C:\Users\DJESSOU\AppData\Local\Temp\cc3eovRL.s 			page 179


 5880      B86DAC33 
 5880      64457E48 
 5880      C89FFA34 
 5881 0418 363B0C58 		.ascii	"6;\014X(\000\320VM1i\322\222^x\270Ft.Y\222\367\011\362"
 5881      2800D056 
 5881      4D3169D2 
 5881      925E78B8 
 5881      46742E59 
 5882 0430 94F36C18 		.ascii	"\224\363l\030\300ly\016\371\232\360\252O9K\352\341!"
 5882      C06C790E 
 5882      F99AF0AA 
 5882      4F394BEA 
 5882      E121
 5883 0442 2396DCAE 		.ascii	"#\226\334\256\320\032\335xagr\232H\035A\245Uy\306n3"
 5883      D01ADD78 
 5883      6167729A 
 5883      481D41A5 
 5883      5579C66E 
 5884 0457 FEEB8826 		.ascii	"\376\353\210&t\334\254\261\227tD\010\017\351\223e\236"
 5884      74DCACB1 
 5884      97744408 
 5884      0FE99365 
 5884      9E
 5885 0468 DF665388 		.ascii	"\337fS\210L\025(\236\340\253\322,;<\321\331\273\274"
 5885      4C15289E 
 5885      E0ABD22C 
 5885      3B3CD1D9 
 5885      BBBC
 5886 047a 8F280289 		.ascii	"\217(\002\211\011\315\034\210\212 \013\2109\265\230"
 5886      09CD1C88 
 5886      8A200B88 
 5886      39B598
 5887 0489 67982495 		.ascii	"g\230$\225N\254\330\334\216\232\001T\336\303\201\231"
 5887      4EACD8DC 
 5887      8E9A0154 
 5887      DEC38199 
 5888 0499 F99895CB 		.ascii	"\371\230\225\313J\352\240\367\020,V\252\250]w-\012\254"
 5888      4AEAA0F7 
 5888      102C56AA 
 5888      A85D772D 
 5888      0AAC
 5889 04ab F20AF37D 		.ascii	"\362\012\363}\201\245\221{|3*J\222\370\015\031\177L"
 5889      81A5917B 
 5889      7C332A4A 
 5889      92F80D19 
 5889      7F4C
 5890 04bd B3C46155 		.ascii	"\263\304aU\037\350r\361\037\364\330\030\224f\333\256"
 5890      1FE872F1 
 5890      1FF4D818 
 5890      9466DBAE 
 5891 04cd E49C69F2 		.ascii	"\344\234i\362\"\254\255F\032\337\273X\216\323\314S\267"
 5891      22ACAD46 
 5891      1ADFBB58 
 5891      8ED3CC53 
 5891      B7
 5892 04de 4F29BB85 		.ascii	"O)\273\205\210\250\307}\222d\304\3106\261\310-\363\357"
 5892      88A8C77D 
ARM GAS  C:\Users\DJESSOU\AppData\Local\Temp\cc3eovRL.s 			page 180


 5892      9264C4C8 
 5892      36B1C82D 
 5892      F3EF
 5893 04f0 6431A357 		.ascii	"d1\243W2O\307M\304\014\370Z\347\030{[v\037Rsx\231TN"
 5893      324FC74D 
 5893      C40CF85A 
 5893      E7187B5B 
 5893      761F5273 
 5894 0508 E49BAF04 		.ascii	"\344\233\257\004\331O\274\231\200\004\206\200d\336'"
 5894      D94FBC99 
 5894      80048680 
 5894      64DE27
 5895 0517 01551205 		.ascii	"\001U\022\005\240ZX\324\210\352\335T@m{\264\276\274"
 5895      A05A58D4 
 5895      88EADD54 
 5895      406D7BB4 
 5895      BEBC
 5896 0529 1CC74E27 		.ascii	"\034\307N'1\272!\321'{\344@&iE\375\271\330\345\213\363"
 5896      31BA21D1 
 5896      277BE440 
 5896      266945FD 
 5896      B9D8E58B 
 5897 053e 844FA577 		.ascii	"\204O\245w\234\316\366\317\271\204\317GiR\224\217D\367"
 5897      9CCEF6CF 
 5897      B984CF47 
 5897      6952948F 
 5897      44F7
 5898 0550 B455DAED 		.ascii	"\264U\332\355r\307\213\203\"*S\016\015\"\010L\311\243"
 5898      72C78B83 
 5898      222A530E 
 5898      0D22084C 
 5898      C9A3
 5899 0562 2A27ADCB 		.ascii	"*'\255\313\354\271\207b\226S?\352\000\217\321\243e&"
 5899      ECB98762 
 5899      96533FEA 
 5899      008FD1A3 
 5899      6526
 5900 0574 93B21A7E 		.ascii	"\223\262\032~!S\011\257\224\304\251\212\201\303t\315"
 5900      215309AF 
 5900      94C4A98A 
 5900      81C374CD 
 5901 0584 D9A0F4AF 		.ascii	"\331\240\364\257\024\362bt\305\316\344\350At\213\012"
 5901      14F26274 
 5901      C5CEE4E8 
 5901      41748B0A 
 5902 0594 C5ECE6E3 		.ascii	"\305\354\346\343\302\336\214{>\015\203\315\021\312\345"
 5902      C2DE8C7B 
 5902      3E0D83CD 
 5902      11CAE5
 5903 05a3 C10871D8 		.ascii	"\301\010q\330o\255OZ\007\315\316o\235\251V\227SQ\223"
 5903      6FAD4F5A 
 5903      07CDCE6F 
 5903      9DA95697 
 5903      535193
 5904 05b6 BC1AF000 		.ascii	"\274\032\360\000\203\312<?\363I}\002AdW\343?I\026T\005"
 5904      83CA3C3F 
 5904      F3497D02 
ARM GAS  C:\Users\DJESSOU\AppData\Local\Temp\cc3eovRL.s 			page 181


 5904      416457E3 
 5904      3F491654 
 5905 05cb 17136E3E 		.ascii	"\027\023n>Z\210\354s\250\236\353\372\035B\347{;\343"
 5905      5A88EC73 
 5905      A89EEBFA 
 5905      1D42E77B 
 5905      3BE3
 5906 05dd B686DD46 		.ascii	"\266\206\335FA\016\241\363\276\373\340\332s\342;\226"
 5906      410EA1F3 
 5906      BEFBE0DA 
 5906      73E23B96 
 5907 05ed 9AFB54BD 		.ascii	"\232\373T\275X\326>\3257r\262{\317\015f}r\373\244\011"
 5907      58D63ED5 
 5907      3772B27B 
 5907      CF0D667D 
 5907      72FBA409 
 5908 0601 3AE4EDCF 		.ascii	":\344\355\317\316c4\211\306\213\020I\234\262|\261x\321"
 5908      CE633489 
 5908      C68B1049 
 5908      9CB27CB1 
 5908      78D1
 5909 0613 CC228E6D 		.ascii	"\314\"\216m\272o\224\001$\0102\240\211\237\267n\024"
 5909      BA6F9401 
 5909      240832A0 
 5909      899FB76E 
 5909      14
 5910 0624 456DD9C8 		.ascii	"Em\331\310\275]SF\344\303\\\276\375\351\260\343j\371"
 5910      BD5D5346 
 5910      E4C35CBE 
 5910      FDE9B0E3 
 5910      6AF9
 5911 0636 F0B9686F 		.ascii	"\360\271ho\223\311\262:\032\337\027\177\033\314p\377"
 5911      93C9B23A 
 5911      1ADF177F 
 5911      1BCC70FF 
 5912 0646 AA3CDF44 		.ascii	"\252<\337D\345[\255\220\305\226\344\273\317\033o\300"
 5912      E55BAD90 
 5912      C596E4BB 
 5912      CF1B6FC0 
 5913 0656 4777833A 		.ascii	"Gw\203:P\"\002d\235\352\316\031\003\011\026\265;n\201"
 5913      50220264 
 5913      9DEACE19 
 5913      030916B5 
 5913      3B6E81
 5914 0669 D1E6E3ED 		.ascii	"\321\346\343\355(\037\370o\371\024Z\212\255\0273\256"
 5914      281FF86F 
 5914      F9145A8A 
 5914      AD1733AE 
 5915 0679 8800DBFA 		.ascii	"\210\000\333\372\353`\177\020\260\306\244\363wl\207"
 5915      EB607F10 
 5915      B0C6A4F3 
 5915      776C87
 5916 0688 F2E8258C 		.ascii	"\362\350%\214oOz\241h\240R\012\347\001\265{\275L\226"
 5916      6F4F7AA1 
 5916      68A0520A 
 5916      E701B57B 
 5916      BD4C96
ARM GAS  C:\Users\DJESSOU\AppData\Local\Temp\cc3eovRL.s 			page 182


 5917 069b 639DD2BE 		.ascii	"c\235\322\276+\271\327!\351\266\250\025\257\333\210"
 5917      2BB9D721 
 5917      E9B6A815 
 5917      AFDB88
 5918 06aa 99444EA1 		.ascii	"\231DN\241\327gk\3558E\2647\313\032\315%\336]a\310w"
 5918      D7676BED 
 5918      3845B437 
 5918      CB1ACD25 
 5918      DE5D61C8 
 5919 06bf 5E15E8DB 		.ascii	"^\025\350\333s\263\273\005\006Eg\202<\022s5\343\361"
 5919      73B3BB05 
 5919      06456782 
 5919      3C127335 
 5919      E3F1
 5920 06d1 8191C147 		.ascii	"\201\221\301G\365m\366\333Xu\224Q\000\361\026[\234\004"
 5920      F56DF6DB 
 5920      58759451 
 5920      00F1165B 
 5920      9C04
 5921 06e3 9C467465 		.ascii	"\234Fte\377\352\326~\262c\344Z\037= o\203C\271%\250"
 5921      FFEAD67E 
 5921      B263E45A 
 5921      1F3D206F 
 5921      8343B925 
 5922 06f8 EDA029A2 		.ascii	"\355\240)\242\037q\204\011'\204\357\031\361#R\241\360"
 5922      1F718409 
 5922      2784EF19 
 5922      F12352A1 
 5922      F0
 5923 0709 85A044B4 		.ascii	"\205\240D\264^m_\025H\374D\033\304eH?\255[\3132\257"
 5923      5E6D5F15 
 5923      48FC441B 
 5923      C465483F 
 5923      AD5BCB32 
 5924 071e 11916AD7 		.ascii	"\021\221j\327\027\274\350\300fl\223@\226\251\262\275"
 5924      17BCE8C0 
 5924      666C9340 
 5924      96A9B2BD 
 5925 072e 31689D9A 		.ascii	"1h\235\232\335\020u\370\027\306\261\364c\247[\215\310"
 5925      DD1075F8 
 5925      17C6B1F4 
 5925      63A75B8D 
 5925      C8
 5926 073f DE5049DF 		.ascii	"\336PI\337\273y\213\355\333\336\022j3\300\225\247\225"
 5926      BB798BED 
 5926      DBDE126A 
 5926      33C095A7 
 5926      95
 5927 0750 4A8541DF 		.ascii	"J\205A\337\331\000\372T\354W\231\012p\243\023H:Zs\006"
 5927      D900FA54 
 5927      EC57990A 
 5927      70A31348 
 5927      3A5A7306 
 5928 0764 4644FF58 		.ascii	"FD\377X\364J\320\250\252\035\265V\3049\213\215\265\301"
 5928      F44AD0A8 
 5928      AA1DB556 
 5928      C4398B8D 
ARM GAS  C:\Users\DJESSOU\AppData\Local\Temp\cc3eovRL.s 			page 183


 5928      B5C1
 5929 0776 C9EF5EDA 		.ascii	"\311\357^\332\275\021>\010\257\225>o\265\260\013\304"
 5929      BD113E08 
 5929      AF953E6F 
 5929      B5B00BC4 
 5930 0786 901DDF69 		.ascii	"\220\035\337iz\300U\005\347@0\001\355@\201\363t\262"
 5930      7AC05505 
 5930      E7403001 
 5930      ED4081F3 
 5930      74B2
 5931 0798 3319C2FE 		.ascii	"3\031\302\376\356l@\377\2331\0136\277\2147\313i\260"
 5931      EE6C40FF 
 5931      9B310B36 
 5931      BF8C37CB 
 5931      69B0
 5932 07aa 144EE6DE 		.ascii	"\024N\346\336\375]T\305G\306o;\010;cz\321\241'\214\010"
 5932      FD5D54C5 
 5932      47C66F3B 
 5932      083B637A 
 5932      D1A1278C 
 5933 07bf F0C71D63 		.ascii	"\360\307\035c?\253$;\362w0\356\257\356\030\272\033"
 5933      3FAB243B 
 5933      F27730EE 
 5933      AFEE18BA 
 5933      1B
 5934 07d0 D6F0630F 		.ascii	"\326\360c\017\3064\226\342X\246\026\"M#\237m\266\235"
 5934      C63496E2 
 5934      58A61622 
 5934      4D239F6D 
 5934      B69D
 5935 07e2 780FE200 		.ascii	"x\017\342\000\223=\233\011\353\206cl1\225\271\213\207"
 5935      933D9B09 
 5935      EB86636C 
 5935      3195B98B 
 5935      87
 5936 07f3 4D20EA42 		.ascii	"M \352B\345\360\207\371`\320\347V\207@\273V\211\006"
 5936      E5F087F9 
 5936      60D0E756 
 5936      8740BB56 
 5936      8906
 5937 0805 0D8BEC7B 		.ascii	"\015\213\354{#co{jU\361\337D\325\3166cQ\\\265\317\370"
 5937      23636F7B 
 5937      6A55F1DF 
 5937      44D5CE36 
 5937      63515CB5 
 5938 081b 28A3E922 		.ascii	"(\243\351\"\224}D\212}]\004\177\274*\226\213\203fl\003"
 5938      947D448A 
 5938      7D5D047F 
 5938      BC2A968B 
 5938      83666C03 
 5939 082f 770AE955 		.ascii	"w\012\351U\015o?TE\301\344\255b\207\373$C9\271*\015"
 5939      0D6F3F54 
 5939      45C1E4AD 
 5939      6287FB24 
 5939      4339B92A 
 5940 0844 A4691AEB 		.ascii	"\244i\032\353\350\316\323\341\225R\240\276v\033\226"
 5940      E8CED3E1 
ARM GAS  C:\Users\DJESSOU\AppData\Local\Temp\cc3eovRL.s 			page 184


 5940      9552A0BE 
 5940      761B96
 5941 0853 733553A2 		.ascii	"s5S\242\25058\225O\267vZ\257\316#\023y\343\2478P\274"
 5941      A8353895 
 5941      4FB7765A 
 5941      AFCE2313 
 5941      79E3A738 
 5942 0869 B422984B 		.ascii	"\264\"\230K|wg\213\377\273&\351\313\026\273s\305\360"
 5942      7C77678B 
 5942      FFBB26E9 
 5942      CB16BB73 
 5942      C5F0
 5943 087b BC820EFD 		.ascii	"\274\202\016\375\365\256\350w6\012\341.'h^\370w]I\362"
 5943      F5AEE877 
 5943      360AE12E 
 5943      27685EF8 
 5943      775D49F2 
 5944 088f ABCDAB42 		.ascii	"\253\315\253B>\355me\245\350\246\"\027O\365\200\\\022"
 5944      3EED6D65 
 5944      A5E8A622 
 5944      174FF580 
 5944      5C12
 5945 08a1 F8E9B60F 		.ascii	"\370\351\266\017y\2449x\340\364Y\3269\024I\0363\033"
 5945      79A43978 
 5945      E0F459D6 
 5945      3914491E 
 5945      331B
 5946 08b3 A8ED4A9C 		.ascii	"\250\355J\234\254\273@\011\343\223]\254\252\333\316"
 5946      ACBB4009 
 5946      E3935DAC 
 5946      AADBCE
 5947 08c2 52DA7921 		.ascii	"R\332y!{}\217&\3165\"+h\243\"~!\275*\245\330\246*T\275"
 5947      7B7D8F26 
 5947      CE35222B 
 5947      68A3227E 
 5947      21BD2AA5 
 5948 08db 6ED7D9CA 		.ascii	"n\327\331\312B\261'&jiq\177pN\264W\210\254\377\215+"
 5948      42B12726 
 5948      6A69717F 
 5948      704EB457 
 5948      88ACFF8D 
 5949 08f0 ADD7BDA3 		.ascii	"\255\327\275\243\254\274\317\325a\023L\360\251b\267"
 5949      ACBCCFD5 
 5949      61134CF0 
 5949      A962B7
 5950 08ff 6D0DCD6A 		.ascii	"m\015\315js:\340\320\241,\366\344\242\367\235:\341\313"
 5950      733AE0D0 
 5950      A12CF6E4 
 5950      A2F79D3A 
 5950      E1CB
 5951 0911 DAA50FCF 		.ascii	"\332\245\017\317\202\345#\257M\330`Z\200\360\277\374"
 5951      82E523AF 
 5951      4DD8605A 
 5951      80F0BFFC 
 5952 0921 3E1582EA 		.ascii	">\025\202\352D\371\202\024i\355\235\351\206\237:f\000"
 5952      44F98214 
 5952      69ED9DE9 
ARM GAS  C:\Users\DJESSOU\AppData\Local\Temp\cc3eovRL.s 			page 185


 5952      869F3A66 
 5952      00
 5953 0932 8837A00E 		.ascii	"\2107\240\016\310F\"t}\300\264\012\357e\000i`'gf\353"
 5953      C8462274 
 5953      7DC0B40A 
 5953      EF650069 
 5953      60276766 
 5954 0947 32451B3F 		.ascii	"2E\033?\236T\205F\367\361r$.\251\304U\003Z9dbEJ\220"
 5954      9E548546 
 5954      F7F17224 
 5954      2EA9C455 
 5954      035A3964 
 5955 095f 6875EDEC 		.ascii	"hu\355\354$\360KWm\364\004\216\300D\306\261\216\253"
 5955      24F04B57 
 5955      6DF4048E 
 5955      C044C6B1 
 5955      8EAB
 5956 0971 5A9F16CE 		.ascii	"Z\237\026\316\372(\245\356\365e\235\244\374a+\326\371"
 5956      FA28A5EE 
 5956      F5659DA4 
 5956      FC612BD6 
 5956      F9
 5957 0982 3A7EADA4 		.ascii	":~\255\244\337\225\035C\276\012\224\254!\000\267\350"
 5957      DF951D43 
 5957      BE0A94AC 
 5957      2100B7E8 
 5958 0992 3C26D26A 		.ascii	"<&\322j\300\343,\360\370\230\365#L\251nT\3753\323\223"
 5958      C0E32CF0 
 5958      F898F523 
 5958      4CA96E54 
 5958      FD33D393 
 5959 09a6 53BB4FB6 		.ascii	"S\273O\266^\3279\335\341\354D\374Z\325W|Wg\336~9\357"
 5959      5ED739DD 
 5959      E1EC44FC 
 5959      5AD5577C 
 5959      5767DE7E 
 5960 09bc 498CB784 		.ascii	"I\214\267\204\263\027\276\004:\016$\227\243\326{<u\334"
 5960      B317BE04 
 5960      3A0E2497 
 5960      A3D67B3C 
 5960      75DC
 5961 09ce 8907A207 		.ascii	"\211\007\242\007\257\350 -*\377|\326$\213\0328\001-"
 5961      AFE8202D 
 5961      2AFF7CD6 
 5961      248B1A38 
 5961      012D
 5962 09e0 79AA58E2 		.ascii	"y\252X\34260\203=\277\026\252\357So{\316t\333\337l4"
 5962      3630833D 
 5962      BF16AAEF 
 5962      536F7BCE 
 5962      74DBDF6C 
 5963 09f5 5C101D82 		.ascii	"\\\020\035\202\006b\203\277\336l\337\016\227k\025\005"
 5963      066283BF 
 5963      DE6CDF0E 
 5963      976B1505 
 5964 0a05 BF65C1C9 		.ascii	"\277e\301\311,\375\306\251n:5\36709,\330\243\200G!\\"
 5964      2CFDC6A9 
ARM GAS  C:\Users\DJESSOU\AppData\Local\Temp\cc3eovRL.s 			page 186


 5964      6E3A35F7 
 5964      30392CD8 
 5964      A3804721 
 5965 0a1a 75DB9CEA 		.ascii	"u\333\234\352\034`\252\361Y/\365\233\317\272\227{\013"
 5965      1C60AAF1 
 5965      592FF59B 
 5965      CFBA977B 
 5965      0B
 5966 0a2b 0BAAFDCC 		.ascii	"\013\252\375\314\276\377\271cg@\012\245\226h\366\344"
 5966      BEFFB963 
 5966      67400AA5 
 5966      9668F6E4 
 5967 0a3b 0349422D 		.ascii	"\003IB-\250\201\002\275\204\305\222\024\\\341\215\035"
 5967      A88102BD 
 5967      84C59214 
 5967      5CE18D1D 
 5968 0a4b B7A18A81 		.ascii	"\267\241\212\201r\033\314\030\236B\203CC\311N\270\027"
 5968      721BCC18 
 5968      9E428343 
 5968      43C94EB8 
 5968      17
 5969 0a5c E7D366BF 		.ascii	"\347\323f\277GZAZ\007\352\"+E,$w\260@3V\320\2621\273"
 5969      475A415A 
 5969      07EA222B 
 5969      452C2477 
 5969      B0403356 
 5970 0a74 A6E9C9E5 		.ascii	"\246\351\311\345_5\376\346\2200*\237\237\005p\262\205"
 5970      5F35FEE6 
 5970      90302A9F 
 5970      9F0570B2 
 5970      85
 5971 0a85 46531336 		.ascii	"FS\02361E\007O\322CN\314\355iC9@&\003\356]^\236\247"
 5971      3145074F 
 5971      D2434ECC 
 5971      ED694339 
 5971      402603EE 
 5972 0a9d BAAF546D 		.ascii	"\272\257Tm\344\004\370cN\345\306B\3178O\375\203\004"
 5972      E404F863 
 5972      4EE5C642 
 5972      CF384FFD 
 5972      8304
 5973 0aaf 1DA538E1 		.ascii	"\035\2458\341\314[%\373\016\323<\225)\322\267\250C\344"
 5973      CC5B25FB 
 5973      0ED33C95 
 5973      29D2B7A8 
 5973      43E4
 5974 0ac1 B14B1468 		.ascii	"\261K\024h:\235\341\266\217m\337zE\306H\026\002\016"
 5974      3A9DE1B6 
 5974      8F6DDF7A 
 5974      45C64816 
 5974      020E
 5975 0ad3 D649811E 		.ascii	"\326I\201\036\350\016\002c\271\006\311J\364o\003\357"
 5975      E80E0263 
 5975      B906C94A 
 5975      F46F03EF 
 5976 0ae3 2C2D5F73 		.ascii	",-_s\367\326\340\363m/\257\376=a1\246,\245\202Z*\360"
 5976      F7D6E0F3 
ARM GAS  C:\Users\DJESSOU\AppData\Local\Temp\cc3eovRL.s 			page 187


 5976      6D2FAFFE 
 5976      3D6131A6 
 5976      2CA5825A 
 5977 0af9 F569CDA5 		.ascii	"\365i\315\245\346\\\177\216\351j\324\313\031\316\032"
 5977      E65C7F8E 
 5977      E96AD4CB 
 5977      19CE1A
 5978 0b08 D446F091 		.ascii	"\324F\360\221t\352\324b\351\314\007jk\314\352\001\344"
 5978      74EAD462 
 5978      E9CC076A 
 5978      6BCCEA01 
 5978      E4
 5979 0b19 F70E4ECB 		.ascii	"\367\016N\313Z\345\012\212\373S$\354\235\021\224S\012"
 5979      5AE50A8A 
 5979      FB5324EC 
 5979      9D119453 
 5979      0A
 5980 0b2a 51E4E32D 		.ascii	"Q\344\343-\036]F8\363@\330\270`QA\320LR\360\307\237"
 5980      1E5D4638 
 5980      F340D8B8 
 5980      605141D0 
 5980      4C52F0C7 
 5981 0b3f 818935B6 		.ascii	"\201\2115\266\253\374\354\311\224\245\267\315g),\200"
 5981      ABFCECC9 
 5981      94A5B7CD 
 5981      67292C80 
 5982 0b4f 36BC2352 		.ascii	"6\274#R\025\345\020v\004\251\205\003\260\257\224\265"
 5982      15E51076 
 5982      04A98503 
 5982      B0AF94B5 
 5983 0b5f 1FD855EC 		.ascii	"\037\330U\354\245\327\0347\026\267\236\264-\260\325"
 5983      A5D71C37 
 5983      16B79EB4 
 5983      2DB0D5
 5984 0b6e AD7C6309 		.ascii	"\255|c\011\020\236\207&O\302i\374\202\202~4\036\242"
 5984      109E8726 
 5984      4FC269FC 
 5984      82827E34 
 5984      1EA2
 5985 0b80 AFB2B5F8 		.ascii	"\257\262\265\370\333\000\025\321\273\004\227\213\246"
 5985      DB0015D1 
 5985      BB04978B 
 5985      A6
 5986 0b8d 5B2096BD 		.ascii	"[ \226\275\317\222h^v\205W!\312\360\227E\022\374\342"
 5986      CF92685E 
 5986      76855721 
 5986      CAF09745 
 5986      12FCE2
 5987 0ba0 05E681F5 		.ascii	"\005\346\201\365\327\273x\353g\357NJs\022\226=T'\264"
 5987      D7BB78EB 
 5987      67EF4E4A 
 5987      7312963D 
 5987      5427B4
 5988 0bb3 2E289968 		.ascii	".(\231h\207\353\372\374\204\340\336\234\214\370Z\014"
 5988      87EBFAFC 
 5988      84E0DE9C 
 5988      8CF85A0C 
ARM GAS  C:\Users\DJESSOU\AppData\Local\Temp\cc3eovRL.s 			page 188


 5989 0bc3 7859E96B 		.ascii	"xY\351k\020>\032tz\341Y\205Z-,\211\230 \206\365\304"
 5989      103E1A74 
 5989      7AE15985 
 5989      5A2D2C89 
 5989      982086F5 
 5990 0bd8 AA92EB2F 		.ascii	"\252\222\353/\241\262yIP\341\330\257\315\031z\25645"
 5990      A1B27949 
 5990      50E1D8AF 
 5990      CD197AAE 
 5990      3435
 5991 0bea A5252E05 		.ascii	"\245%.\005\225]\207f\304*!\212\351\234R.\205\035PBg"
 5991      955D8766 
 5991      C42A218A 
 5991      E99C522E 
 5991      851D5042 
 5992 0bff 10BDDC23 		.ascii	"\020\275\334#n\"\331\311\362(\271\007\353\3229\035n"
 5992      6E22D9C9 
 5992      F228B907 
 5992      EBD2391D 
 5992      6E
 5993 0c10 A0E7F764 		.ascii	"\240\347\367d\021\301`\252\020\005\200S\3363_\321m\301"
 5993      11C160AA 
 5993      10058053 
 5993      DE335FD1 
 5993      6DC1
 5994 0c22 AD9B5D1F 		.ascii	"\255\233]\037N&\373\241\305{)\206\354\223\325\367\305"
 5994      4E26FBA1 
 5994      C57B2986 
 5994      EC93D5F7 
 5994      C5
 5995 0c33 6EDC9E21 		.ascii	"n\334\236!\022\2027\034\016\317{\327\377\221X\3555\263"
 5995      1282371C 
 5995      0ECF7BD7 
 5995      FF9158ED 
 5995      35B3
 5996 0c45 D54FEF9E 		.ascii	"\325O\357\2368\212\334\305\232\237J\227gFE\\gm;3\277"
 5996      388ADCC5 
 5996      9A9F4A97 
 5996      6746455C 
 5996      676D3B33 
 5997 0c5a A4650622 		.ascii	"\244e\006\"Z\0246\323^\331C\215\340\213e\335\244\010"
 5997      5A1436D3 
 5997      5ED9438D 
 5997      E08B65DD 
 5997      A408
 5998 0c6c 511729A4 		.ascii	"Q\027)\244&C\347\252\017\343\035e\251\266\030\266\261"
 5998      2643E7AA 
 5998      0FE31D65 
 5998      A9B618B6 
 5998      B1
 5999 0c7d C8941253 		.ascii	"\310\224\022S\212\004\222\240\216\332w\214\320ln\201"
 5999      8A0492A0 
 5999      8EDA778C 
 5999      D06C6E81 
 6000 0c8d BDE920EF 		.ascii	"\275\351 \357\211aGf\364utK\020JO\210\236\317\323d\032"
 6000      89614766 
 6000      F475744B 
ARM GAS  C:\Users\DJESSOU\AppData\Local\Temp\cc3eovRL.s 			page 189


 6000      104A4F88 
 6000      9ECFD364 
 6001 0ca2 B0A130FA 		.ascii	"\260\2410\372V\341\026\203\246\232\372\010\265\231u"
 6001      56E11683 
 6001      A69AFA08 
 6001      B59975
 6002 0cb1 96225795 		.ascii	"\226\"W\225\177\343p\265y\232\361\323\352\350p\361\335"
 6002      7FE370B5 
 6002      799AF1D3 
 6002      EAE870F1 
 6002      DD
 6003 0cc2 C8CBC2E3 		.ascii	"\310\313\302\343\254\363\236\364\2515\315\211s\244\276"
 6003      ACF39EF4 
 6003      A935CD89 
 6003      73A4BE
 6004 0cd1 6EDA1BDB 		.ascii	"n\332\033\333\337\304:\370\337x7K\211^!\177\273\330"
 6004      DFC43AF8 
 6004      DF78374B 
 6004      895E217F 
 6004      BBD8
 6005 0ce3 A9D39FC7 		.ascii	"\251\323\237\307!`\276\016\336\206\206K\007\263\253"
 6005      2160BE0E 
 6005      DE86864B 
 6005      07B3AB
 6006 0cf2 DF3B158E 		.ascii	"\337;\025\216>\361\247\"!8\015\373\247]#\352\014ui7"
 6006      3EF1A722 
 6006      21380DFB 
 6006      A75D23EA 
 6006      0C756937 
 6007 0d06 10BD9167 		.ascii	"\020\275\221g\360~\220\313\346\371\376\210\315\373\357"
 6007      F07E90CB 
 6007      E6F9FE88 
 6007      CDFBEF
 6008 0d15 6D4CB29A 		.ascii	"mL\262\232\013%5)\331\235\305\311'\0014(\245X\375:\371"
 6008      0B253529 
 6008      D99DC5C9 
 6008      27013428 
 6008      A558FD3A 
 6009 0d2a 7B095239 		.ascii	"{\011R99\264\034\000\332lF\246?\177K\304\266\245\365"
 6009      39B41C00 
 6009      DA6C46A6 
 6009      3F7F4BC4 
 6009      B6A5F5
 6010 0d3d E3BA5632 		.ascii	"\343\272V2\026\235\362\221\025\230\301\320\204\212\273"
 6010      169DF291 
 6010      1598C1D0 
 6010      848ABB
 6011 0d4c 6F16BE4D 		.ascii	"o\026\276M\306\246=L\366\356\256\033\347!qK\343,\213"
 6011      C6A63D4C 
 6011      F6EEAE1B 
 6011      E721714B 
 6011      E32C8B
 6012 0d5f FA95450F 		.ascii	"\372\225E\017\032\226a\303\332\314\322f\306\036\177"
 6012      1A9661C3 
 6012      DACCD266 
 6012      C61E7F
 6013 0d6e 8D82A660 		.ascii	"\215\202\246`~\354\300B5\274p\242\032y<\023a\217\024"
ARM GAS  C:\Users\DJESSOU\AppData\Local\Temp\cc3eovRL.s 			page 190


 6013      7EECC042 
 6013      35BC70A2 
 6013      1A793C13 
 6013      618F14
 6014 0d81 D4B842E6 		.ascii	"\324\270B\346*\206\032{\330\265\007p#\332\275m\324\247"
 6014      2A861A7B 
 6014      D8B50770 
 6014      23DABD6D 
 6014      D4A7
 6015 0d93 0188C16D 		.ascii	"\001\210\301m^\006'^j\333k?\227n\231\337H\345\261\335"
 6015      5E06275E 
 6015      6ADB6B3F 
 6015      976E99DF 
 6015      48E5B1DD 
 6016 0da7 A953B819 		.ascii	"\251S\270\031\202F7\024\001\341\367Vc\222\232\2065\244"
 6016      82463714 
 6016      01E1F756 
 6016      63929A86 
 6016      35A4
 6017 0db9 E7E15207 		.ascii	"\347\341R\007\233\013\354\360\271\331jf\007\004]\225"
 6017      9B0BECF0 
 6017      B9D96A66 
 6017      07045D95 
 6018 0dc9 F7E2CDD7 		.ascii	"\367\342\315\327Z\272\320\253<\307(A\275\2203Q\361\316"
 6018      5ABAD0AB 
 6018      3CC72841 
 6018      BD903351 
 6018      F1CE
 6019 0ddb 2F3FD9AA 		.ascii	"/?\331\252;\027\3278\270\360\360\257\015\212<_\361b"
 6019      3B17D738 
 6019      B8F0F0AF 
 6019      0D8A3C5F 
 6019      F162
 6020 0ded A09120BE 		.ascii	"\240\221 \276\306\214\306\244I'\252\204\330\210\037"
 6020      C68CC6A4 
 6020      4927AA84 
 6020      D8881F
 6021 0dfc 095CF6F3 		.ascii	"\011\\\366\363\327G\035\252p\011\322]\265\374B\265\250"
 6021      D7471DAA 
 6021      7009D25D 
 6021      B5FC42B5 
 6021      A8
 6022 0e0d 01217A35 		.ascii	"\001!z5\362$\263\326Q\377k\200Ex6\005\301.=\002g\011"
 6022      F224B3D6 
 6022      51FF6B80 
 6022      45783605 
 6022      C12E3D02 
 6023 0e23 E9980F55 		.ascii	"\351\230\017U\024Y\\NrBK\263i^\363\341\252\255\376\343"
 6023      14595C4E 
 6023      72424BB3 
 6023      695EF3E1 
 6023      AAADFEE3 
 6024 0e37 1095816A 		.ascii	"\020\225\201j\016\331\365\007\247\000-,[\346\231\011"
 6024      0ED9F507 
 6024      A7002D2C 
 6024      5BE69909 
 6025 0e47 223B4F20 		.ascii	"\";O \252\240\217\351\212\033o,<m\003\355\006\354\233"
ARM GAS  C:\Users\DJESSOU\AppData\Local\Temp\cc3eovRL.s 			page 191


 6025      AAA08FE9 
 6025      8A1B6F2C 
 6025      3C6D03ED 
 6025      06EC9B
 6026 0e5a C18CFE24 		.ascii	"\301\214\376$M\221/x+\350\010<I*9O\366\014\275\277\303"
 6026      4D912F78 
 6026      2BE8083C 
 6026      492A394F 
 6026      F60CBDBF 
 6027 0e6f 4BED0D72 		.ascii	"K\355\015r\342\257I\317\271\001\230\220\012l\302\325"
 6027      E2AF49CF 
 6027      B9019890 
 6027      0A6CC2D5 
 6028 0e7f 724603F5 		.ascii	"rF\003\365\004(u\264|\266\275\347\006\274\273\202\332"
 6028      042875B4 
 6028      7CB6BDE7 
 6028      06BCBB82 
 6028      DA
 6029 0e90 B492DDC4 		.ascii	"\264\222\335\304\027aj\375\306]\215\254\020\341\011"
 6029      17616AFD 
 6029      C65D8DAC 
 6029      10E109
 6030 0e9f 5A5AA207 		.ascii	"ZZ\242\007\252\204\036\344\224\277\274a\324\312\325"
 6030      AA841EE4 
 6030      94BFBC61 
 6030      D4CAD5
 6031 0eae F98807CB 		.ascii	"\371\210\007\313X\217\325\366\261_'\340\3018\321\320"
 6031      588FD5F6 
 6031      B15F27E0 
 6031      C138D1D0 
 6032 0ebe CD881A98 		.ascii	"\315\210\032\230\271\\\305\005L\012Z\252\026K\353\366"
 6032      B95CC505 
 6032      4C0A5AAA 
 6032      164BEBF6 
 6033 0ece 78FB0228 		.ascii	"x\373\002(\261\306\252\025\236\005\304\305\015\204\016"
 6033      B1C6AA15 
 6033      9E05C4C5 
 6033      0D840E
 6034 0edd 8C4E07D1 		.ascii	"\214N\007\321\255\343\340\002\0150LJ\332\011\226\023"
 6034      ADE3E002 
 6034      0D304C4A 
 6034      DA099613 
 6035 0eed AFBF6DC9 		.ascii	"\257\277m\311\010\254\224\221rcrI\277\014\303\257u\241"
 6035      08AC9491 
 6035      72637249 
 6035      BF0CC3AF 
 6035      75A1
 6036 0eff 60235A57 		.ascii	"`#ZW(V\260q\\\247xi\243\302q\251 \031\031\361\362E\346"
 6036      2856B071 
 6036      5CA77869 
 6036      A3C271A9 
 6036      201919F1 
 6037 0f16 6A5FC44C 		.ascii	"j_\304L\377\033}#u\246\350P\216<\213\220fAB\274\260"
 6037      FF1B7D23 
 6037      75A6E850 
 6037      8E3C8B90 
 6037      664142BC 
ARM GAS  C:\Users\DJESSOU\AppData\Local\Temp\cc3eovRL.s 			page 192


 6038 0f2b 3D7B74B5 		.ascii	"={t\265\024\213*\373nN\217\363\200\346\376\335\023\023"
 6038      148B2AFB 
 6038      6E4E8FF3 
 6038      80E6FEDD 
 6038      1313
 6039 0f3d C0D051A3 		.ascii	"\300\320Q\243\027\306&\347\240S\346\224[\321G\337\330"
 6039      17C626E7 
 6039      A053E694 
 6039      5BD147DF 
 6039      D8
 6040 0f4e 442BA188 		.ascii	"D+\241\210\013K\355\240)\333\003\250\200\013\015\335"
 6040      0B4BEDA0 
 6040      29DB03A8 
 6040      800B0DDD 
 6041 0f5e D4236BD9 		.ascii	"\324#k\331\234\027\236\216\0366z\360_\277Y5v\026Y\253"
 6041      9C179E8E 
 6041      1E367AF0 
 6041      5FBF5935 
 6041      761659AB 
 6042 0f72 1CBEE544 		.ascii	"\034\276\345DUZ\255\317\036ep\332gT=\2042S\350@\326"
 6042      555AADCF 
 6042      1E6570DA 
 6042      67543D84 
 6042      3253E840 
 6043 0f87 E3E8EA01 		.ascii	"\343\350\352\001\375\273^C\215\021 \311\374\315\270"
 6043      FDBB5E43 
 6043      8D1120C9 
 6043      FCCDB8
 6044 0f96 9A9A58B1 		.ascii	"\232\232X\261\010\241m\032\300\206"
 6044      08A16D1A 
 6044      C086
 6045 0fa0 E736C30C 		.ascii	"\3476\303\014\231a\2265\2373\232F\276\212]\264n\251"
 6045      99619635 
 6045      9F339A46 
 6045      BE8A5DB4 
 6045      6EA9
 6046 0fb2 69311389 		.ascii	"i1\023\211f\205\210\310\001.\273\267\271\006\346\242"
 6046      668588C8 
 6046      012EBBB7 
 6046      B906E6A2 
 6047 0fc2 EBB40B6D 		.ascii	"\353\264\013m\233\240\033\217\371I\022\356\345\200\270"
 6047      9BA01B8F 
 6047      F94912EE 
 6047      E580B8
 6048 0fd1 9FAB7FAD 		.ascii	"\237\253\177\255\275\305gfN \266\2619\312\0121\276\371"
 6048      BDC56766 
 6048      4E20B6B1 
 6048      39CA0A31 
 6048      BEF9
 6049 0fe3 B73914E5 		.ascii	"\2679\024\345\243\245\340)\204\200\373\235\004\377\320"
 6049      A3A5E029 
 6049      8480FB9D 
 6049      04FFD0
 6050 0ff2 A6171D1F 		.ascii	"\246\027\035\037\002J\364\335\2574\370\255\217\037z"
 6050      024AF4DD 
 6050      AF34F8AD 
 6050      8F1F7A
ARM GAS  C:\Users\DJESSOU\AppData\Local\Temp\cc3eovRL.s 			page 193


 6051 1001 D55B262B 		.ascii	"\325[&+~N\012mBAyd\310\246^\240\342\023([\272\223l\221"
 6051      7E4E0A6D 
 6051      42417964 
 6051      C8A65EA0 
 6051      E213285B 
 6052 1019 42E3FDF1 		.ascii	"B\343\375\361\022\351\360\362\250]\365nn\301\3519\244"
 6052      12E9F0F2 
 6052      A85DF56E 
 6052      6EC1E939 
 6052      A4
 6053 102a 6EDE1E59 		.ascii	"n\336\036Y\016(\220\224\217\266o\\U\263\314\376{h\277"
 6053      0E289094 
 6053      8FB66F5C 
 6053      55B3CCFE 
 6053      7B68BF
 6054 103d 08FA7267 		.ascii	"\010\372rgq\346Y#N\376\3278\265\235\320#^:\35259t-\317"
 6054      71E65923 
 6054      4EFED738 
 6054      B59DD023 
 6054      5E3AEA35 
 6055 1055 D91DBAA2 		.ascii	"\331\035\272\242\220p\177\361\213\306)\250\277>\000"
 6055      90707FF1 
 6055      8BC629A8 
 6055      BF3E00
 6056 1064 EF18800E 		.ascii	"\357\030\200\016\366\343\315dH\212\032(\275[\202sy\035"
 6056      F6E3CD64 
 6056      488A1A28 
 6056      BD5B8273 
 6056      791D
 6057 1076 F165C9DF 		.ascii	"\361e\311\337\241\037TA\363\334\026\254La\361}\320\255"
 6057      A11F5441 
 6057      F3DC16AC 
 6057      4C61F17D 
 6057      D0AD
 6058 1088 EA4C9295 		.ascii	"\352L\222\225\020YtJa0\021\271\211\335\205\350v\227"
 6058      1059744A 
 6058      613011B9 
 6058      89DD85E8 
 6058      7697
 6059 109a 486B8AE1 		.ascii	"Hk\212\341\013wo\034\270\253a\001\366X\214K\266vc\375"
 6059      0B776F1C 
 6059      B8AB6101 
 6059      F6588C4B 
 6059      B67663FD 
 6060 10ae B78BE718 		.ascii	"\267\213\347\030\362\277\321NQwBs\251\010P_\005\244"
 6060      F2BFD14E 
 6060      51774273 
 6060      A908505F 
 6060      05A4
 6061 10c0 A2C2E105 		.ascii	"\242\302\341\005\021\210$\230(y\314{\267\206\300\276"
 6061      11882498 
 6061      2879CC7B 
 6061      B786C0BE 
 6062 10d0 4543BB90 		.ascii	"EC\273\220\220E\234\247(T\245G\306\001?\022\177@{\222"
 6062      90459CA7 
 6062      2854A547 
 6062      C6013F12 
ARM GAS  C:\Users\DJESSOU\AppData\Local\Temp\cc3eovRL.s 			page 194


 6062      7F407B92 
 6063 10e4 40F2BE62 		.ascii	"@\362\276b\261\335\323,\315\350\303\204B\363\353,\226"
 6063      B1DDD32C 
 6063      CDE8C384 
 6063      42F3EB2C 
 6063      96
 6064 10f5 F0B7893A 		.ascii	"\360\267\211:t\205\311\334\255\037\227Ur\353\026\347"
 6064      7485C9DC 
 6064      AD1F9755 
 6064      72EB16E7 
 6065 1105 AC304B05 		.ascii	"\2540K\005\011\230\377r\320W\212\231\362\214\330\233"
 6065      0998FF72 
 6065      D0578A99 
 6065      F28CD89B 
 6066 1115 2BD14F8F 		.ascii	"+\321O\217^\357$\013\021\371D\277J\250T\321\223Q\022"
 6066      5EEF240B 
 6066      11F944BF 
 6066      4AA854D1 
 6066      935112
 6067 1128 DA9380F8 		.ascii	"\332\223\200\370\205\204\246{k\343\350\257\370\225R"
 6067      8584A67B 
 6067      6BE3E8AF 
 6067      F89552
 6068 1137 CCF64784 		.ascii	"\314\366G\204\247_\277\264\301\375\235\023\272d\247"
 6068      A75FBFB4 
 6068      C1FD9D13 
 6068      BA64A7
 6069 1146 DC85B304 		.ascii	"\334\205\263\004RitU~c:'\370\340\210\025rQC\347\035"
 6069      52697455 
 6069      7E633A27 
 6069      F8E08815 
 6069      725143E7 
 6070 115b F112BE44 		.ascii	"\361\022\276D=A\015#\370\0044\314i\213\205X\300\376"
 6070      3D410D23 
 6070      F80434CC 
 6070      698B8558 
 6070      C0FE
 6071 116d DED7DB24 		.ascii	"\336\327\333$\210do\362\311\024\224\023@tD\303\217w"
 6071      88646FF2 
 6071      C9149413 
 6071      407444C3 
 6071      8F77
 6072 117f 60D69109 		.ascii	"`\326\221\011\276\200h\331q1Jn\262\263\023T9}]\207\252"
 6072      BE8068D9 
 6072      71314A6E 
 6072      B2B31354 
 6072      397D5D87 
 6073 1194 D9867D97 		.ascii	"\331\206}\227\313\021=\255\032Di\330\227\233)T>\203"
 6073      CB113DAD 
 6073      1A4469D8 
 6073      979B2954 
 6073      3E83
 6074 11a6 EBE368E6 		.ascii	"\353\343h\346\263\310\032o\322D\3635o\327\253\337(\374"
 6074      B3C81A6F 
 6074      D244F335 
 6074      6FD7ABDF 
 6074      28FC
ARM GAS  C:\Users\DJESSOU\AppData\Local\Temp\cc3eovRL.s 			page 195


 6075 11b8 B784C0F1 		.ascii	"\267\204\300\361\212\367s\314L\267A\252\215F\301\222"
 6075      8AF773CC 
 6075      4CB741AA 
 6075      8D46C192 
 6076 11c8 940F6513 		.ascii	"\224\017e\023n\357\027\353\307\374;\034\011o\201\333"
 6076      6EEF17EB 
 6076      C7FC3B1C 
 6076      096F81DB 
 6077 11d8 72836ED8 		.ascii	"r\203n\330\255Y\337A\000k\305\300\276\342\2061\200\353"
 6077      AD59DF41 
 6077      006BC5C0 
 6077      BEE28631 
 6077      80EB
 6078 11ea 8EAD4E53 		.ascii	"\216\255NS,j\273]=\252\014r\005\3626\332*\334\275w\252"
 6078      2C6ABB5D 
 6078      3DAA0C72 
 6078      05F236DA 
 6078      2ADCBD77 
 6079 11ff AC9B2C34 		.ascii	"\254\233,4q\031\326\376r\273\377\242\327\264\325HK\207"
 6079      7119D6FE 
 6079      72BBFFA2 
 6079      D7B4D548 
 6079      4B87
 6080 1211 3B15BEAC 		.ascii	";\025\276\254}u\243\223:j5\003U\251\307\003\266\306"
 6080      7D75A393 
 6080      3A6A3503 
 6080      55A9C703 
 6080      B6C6
 6081 1223 AC21F702 		.ascii	"\254!\367\002\305o>\021\033K$\362\020\000\337A\244\306"
 6081      C56F3E11 
 6081      1B4B24F2 
 6081      1000DF41 
 6081      A4C6
 6082 1235 0EE4F491 		.ascii	"\016\344\364\221\213y \026\311\276M\342\012\025\264"
 6082      8B792016 
 6082      C9BE4DE2 
 6082      0A15B4
 6083 1244 B73950AB 		.ascii	"\2679P\253\373\242#\213\234\201r\257h#X\237\032\232"
 6083      FBA2238B 
 6083      9C8172AF 
 6083      6823589F 
 6083      1A9A
 6084 1256 5EA52045 		.ascii	"^\245 E\000\000\236o\177Gt#\024*\013(M\220\364\177\253"
 6084      00009E6F 
 6084      7F477423 
 6084      142A0B28 
 6084      4D90F47F 
 6085 126b ED1B890C 		.ascii	"\355\033\211\014\204\343\233\206*\362\214\340\325R\205"
 6085      84E39B86 
 6085      2AF28CE0 
 6085      D55285
 6086 127a 8922CF58 		.ascii	"\211\"\317X\242\313\303-\2714\210.\0316\342zZ9\2217"
 6086      A2CBC32D 
 6086      B934882E 
 6086      1936E27A 
 6086      5A399137 
 6087 128e DED696E1 		.ascii	"\336\326\226\341\361\352\323\370\227J\231h\241\256\303"
ARM GAS  C:\Users\DJESSOU\AppData\Local\Temp\cc3eovRL.s 			page 196


 6087      F1EAD3F8 
 6087      974A9968 
 6087      A1AEC3
 6088 129d 1E551C29 		.ascii	"\036U\034)}\203&\350v\2516B\331.\341(\264J\000,\365"
 6088      7D8326E8 
 6088      76A93642 
 6088      D92EE128 
 6088      B44A002C 
 6089 12b2 DC456A84 		.ascii	"\334Ej\204*\\5\313'\011\005w\277D6\023\272H\335\034"
 6089      2A5C35CB 
 6089      27090577 
 6089      BF443613 
 6089      BA48DD1C 
 6090 12c6 B6439D16 		.ascii	"\266C\235\026m\306\376\344\247\300\015\203^\030\006"
 6090      6DC6FEE4 
 6090      A7C00D83 
 6090      5E1806
 6091 12d5 E6C43986 		.ascii	"\346\3049\206\233\367\325\227\307\325af\011R\362\220"
 6091      9BF7D597 
 6091      C7D56166 
 6091      0952F290 
 6092 12e5 7BD0CACB 		.ascii	"{\320\312\313\244\274\304J\032c\011\374\343\006J$\004"
 6092      A4BCC44A 
 6092      1A6309FC 
 6092      E3064A24 
 6092      04
 6093 12f6 5A678523 		.ascii	"Zg\205#\300\345zq\370\031W\355\211\375\226\017C\326"
 6093      C0E57A71 
 6093      F81957ED 
 6093      89FD960F 
 6093      43D6
 6094 1308 3851330C 		.ascii	"8Q3\014\212J\302\034bu\265\010\333\036\373\341}\242"
 6094      8A4AC21C 
 6094      6275B508 
 6094      DB1EFBE1 
 6094      7DA2
 6095 131a E5855E7F 		.ascii	"\345\205^\177DG\022\251\347\206\327\034\031\310\255"
 6095      444712A9 
 6095      E786D71C 
 6095      19C8AD
 6096 1329 03A3F7BC 		.ascii	"\003\243\367\274\344\326\020?\377\344\211c\265\007x"
 6096      E4D6103F 
 6096      FFE48963 
 6096      B50778
 6097 1338 3574A248 		.ascii	"5t\242H\020Hf\373\275 \237\202z\244\361\002\015\325"
 6097      104866FB 
 6097      BD209F82 
 6097      7AA4F102 
 6097      0DD5
 6098 134a C6416426 		.ascii	"\306Ad&\231#\354\321\016\026\231!R\254\353W\001X,\205"
 6098      9923ECD1 
 6098      0E169921 
 6098      52ACEB57 
 6098      01582C85 
 6099 135e D0FB4E59 		.ascii	"\320\373NYfq\366\326&\266%\2030u\373|\277\317\316\024"
 6099      6671F6D6 
 6099      26B62583 
ARM GAS  C:\Users\DJESSOU\AppData\Local\Temp\cc3eovRL.s 			page 197


 6099      3075FB7C 
 6099      BFCFCE14 
 6100 1372 F3536A54 		.ascii	"\363SjT\310?\012\254\242 \027\247\022V\250Jx\3512\251"
 6100      C83F0AAC 
 6100      A22017A7 
 6100      1256A84A 
 6100      78E932A9 
 6101 1386 CBD6411A 		.ascii	"\313\326A\032,Et\015\351\306\246\215\030\353\274\317"
 6101      2C45740D 
 6101      E9C6A68D 
 6101      18EBBCCF 
 6102 1396 1D814C37 		.ascii	"\035\201L7\002\352\270\037/\026\347S5\012)3`5 mLq\254"
 6102      02EAB81F 
 6102      2F16E753 
 6102      350A2933 
 6102      6035206D 
 6103 13ad B16E6CDD 		.ascii	"\261nl\335\227|E\264\322\037=i\213\204\237\012\314\325"
 6103      977C45B4 
 6103      D21F3D69 
 6103      8B849F0A 
 6103      CCD5
 6104 13bf E33B8AD4 		.ascii	"\343;\212\324\253L\023FU\204h\352O;^x\263\325b\304\317"
 6104      AB4C1346 
 6104      558468EA 
 6104      4F3B5E78 
 6104      B3D562C4 
 6105 13d4 51423710 		.ascii	"QB7\020\235Su\376\011/m\177\350\354\307ov\337\353~\250"
 6105      9D5375FE 
 6105      092F6D7F 
 6105      E8ECC76F 
 6105      76DFEB7E 
 6106 13e9 904BF9BD 		.ascii	"\220K\371\275\333\001\331\255I.b\306^8\247\213/\374"
 6106      DB01D9AD 
 6106      492E62C6 
 6106      5E38A78B 
 6106      2FFC
 6107 13fb EF1841F7 		.ascii	"\357\030A\367\275\307\331y!\214TF\314\031j\226i\377"
 6107      BDC7D979 
 6107      218C5446 
 6107      CC196A96 
 6107      69FF
 6108 140d B1FFA92E 		.ascii	"\261\377\251.\236\212\315q\276\341\317]~\356m\356\313"
 6108      9E8ACD71 
 6108      BEE1CF5D 
 6108      7EEE6DEE 
 6108      CB
 6109 141e 91692E6A 		.ascii	"\221i.j\226-\037m\242\373YP\015\345&W\363oj\375;\010"
 6109      962D1F6D 
 6109      A2FB5950 
 6109      0DE52657 
 6109      F36F6AFD 
 6110 1434 B7E18A5E 		.ascii	"\267\341\212^\3627\247\345]\261\035\222$\250+\304\274"
 6110      F237A7E5 
 6110      5DB11D92 
 6110      24A82BC4 
 6110      BC
 6111 1445 AF4C718D 		.ascii	"\257Lq\215\306\213}S\225\325\325\031\264\002\343\241"
ARM GAS  C:\Users\DJESSOU\AppData\Local\Temp\cc3eovRL.s 			page 198


 6111      C68B7D53 
 6111      95D5D519 
 6111      B402E3A1 
 6112 1455 529487B8 		.ascii	"R\224\207\270%\036\247\307\365\302\026pq\177\327\311"
 6112      251EA7C7 
 6112      F5C21670 
 6112      717FD7C9 
 6113 1465 211AB702 		.ascii	"!\032\267\002u\277\335\016W5c\212\342\031\303\3018["
 6113      75BFDD0E 
 6113      5735638A 
 6113      E219C3C1 
 6113      385B
 6114 1477 DF877B59 		.ascii	"\337\207{Y\322\357aD\035Q\235\353$b\316\324\3531\343"
 6114      D2EF6144 
 6114      1D519DEB 
 6114      2462CED4 
 6114      EB31E3
 6115 148a E28AC6B8 		.ascii	"\342\212\306\270C]#\310\015\336X\177\322-\201\263/9"
 6115      435D23C8 
 6115      0DDE587F 
 6115      D22D81B3 
 6115      2F39
 6116 149c 3E58684C 		.ascii	">XhLG\264\"\246\277\321w\360\0245\224\222\025f\010\205"
 6116      47B422A6 
 6116      BFD177F0 
 6116      14359492 
 6116      15660885 
 6117 14b0 ADF8EAF2 		.ascii	"\255\370\352\362+\011P\364\207Y\016\237L\004\000\343"
 6117      2B0950F4 
 6117      87590E9F 
 6117      4C0400E3 
 6118 14c0 ECCBCA23 		.ascii	"\354\313\312#\375\262\237g\315\034j\\\315\236\027Uu"
 6118      FDB29F67 
 6118      CD1C6A5C 
 6118      CD9E1755 
 6118      75
 6119 14d1 5AA0B86E 		.ascii	"Z\240\270n\026\237\210\233\314\230\314\034\350\275\000"
 6119      169F889B 
 6119      CC98CC1C 
 6119      E8BD00
 6120 14e0 5C279D0E 		.ascii	"\\'\235\016\251\032\243x\334\207x\313S\222N\007\264"
 6120      A91AA378 
 6120      DC8778CB 
 6120      53924E07 
 6120      B4
 6121 14f1 03584CD2 		.ascii	"\003XL\322\025\207G\315\305\010v\301*<%\013\236\265"
 6121      158747CD 
 6121      C50876C1 
 6121      2A3C250B 
 6121      9EB5
 6122 1503 FF8E1F16 		.ascii	"\377\216\037\026)\201\327\332\362t\333$\030*\335\371"
 6122      2981D7DA 
 6122      F274DB24 
 6122      182ADDF9 
 6123 1513 F7B64F78 		.ascii	"\367\266OxDW\231\232\251\016\316b\316xL?5\207\215\272"
 6123      4457999A 
 6123      A90ECE62 
ARM GAS  C:\Users\DJESSOU\AppData\Local\Temp\cc3eovRL.s 			page 199


 6123      CE784C3F 
 6123      35878DBA 
 6124 1527 5AAC0628 		.ascii	"Z\254\006(\377\266\335\356\225=\374\240\346\371Rm\260"
 6124      FFB6DDEE 
 6124      953DFCA0 
 6124      E6F9526D 
 6124      B0
 6125 1538 728B4EF8 		.ascii	"r\213N\370\262}Q\260\205\007A\313\270\303\022\"\277"
 6125      B27D51B0 
 6125      850741CB 
 6125      B8C31222 
 6125      BF
 6126 1549 B3EC200C 		.ascii	"\263\354 \014\364\376\324\361Z\354\250\034\245P\253"
 6126      F4FED4F1 
 6126      5AECA81C 
 6126      A550AB
 6127 1558 5FAFE02F 		.ascii	"_\257\340/6{|\313\315Z\017\310u\214\227\003\033|7\225"
 6127      367B7CCB 
 6127      CD5A0FC8 
 6127      758C9703 
 6127      1B7C3795 
 6128 156c 31CC8273 		.ascii	"1\314\202s$\256P\372n\317l\217Y\303S\0310\265\002{["
 6128      24AE50FA 
 6128      6ECF6C8F 
 6128      59C35319 
 6128      30B5027B 
 6129 1581 BDBE5AC5 		.ascii	"\275\276Z\305r\364\012h-\373\006\014\342\033f=?\015"
 6129      72F40A68 
 6129      2DFB060C 
 6129      E21B663D 
 6129      3F0D
 6130 1593 2FEFEF9F 		.ascii	"/\357\357\237\001X\301`\233\230D\013\202\006\255\274"
 6130      0158C160 
 6130      9B98440B 
 6130      8206ADBC 
 6131 15a3 19F32AAA 		.ascii	"\031\363*\252\032$t\230\213\250\027\010\312\306\273"
 6131      1A247498 
 6131      8BA81708 
 6131      CAC6BB
 6132 15b2 1B24D9BC 		.ascii	"\033$\331\274\343o\346s\241\371\311\201_tQ6nW\004\213"
 6132      E36FE673 
 6132      A1F9C981 
 6132      5F745136 
 6132      6E57048B 
 6133 15c6 7D173AF3 		.ascii	"}\027:\363\263q\277\2469\336\210\346\227\315P\242\026"
 6133      B371BFA6 
 6133      39DE88E6 
 6133      97CD50A2 
 6133      16
 6134 15d7 07F16300 		.ascii	"\007\361c\000\254\273\276\214\243\255_\213\316\005k"
 6134      ACBBBE8C 
 6134      A3AD5F8B 
 6134      CE056B
 6135 15e6 AB3B3A50 		.ascii	"\253;:P\371\274\015t\014\205\253`\326\013\354=\2005"
 6135      F9BC0D74 
 6135      0C85AB60 
 6135      D60BEC3D 
ARM GAS  C:\Users\DJESSOU\AppData\Local\Temp\cc3eovRL.s 			page 200


 6135      8035
 6136 15f8 C2DF6AAB 		.ascii	"\302\337j\253;\026\264\247\301(%=\321\215]\367\364\016"
 6136      3B16B4A7 
 6136      C128253D 
 6136      D18D5DF7 
 6136      F40E
 6137 160a EAAA4B60 		.ascii	"\352\252K`\303Mn\271\037\032Qg\346\006z\323\362\356"
 6137      C34D6EB9 
 6137      1F1A5167 
 6137      E6067AD3 
 6137      F2EE
 6138 161c 1EBE7E1F 		.ascii	"\036\276~\037\277\237\207\0333\257\300\304q\211\233"
 6138      BF9F871B 
 6138      33AFC0C4 
 6138      71899B
 6139 162b 9D37A8D9 		.ascii	"\2357\250\331E\021k\017o\310s\247=q\0004@\034\035\334"
 6139      45116B0F 
 6139      6FC873A7 
 6139      3D710034 
 6139      401C1DDC 
 6140 163f 22BE0189 		.ascii	"\"\276\001\211\214w\237\346\265\344V4-\251,\303C\361"
 6140      8C779FE6 
 6140      B5E45634 
 6140      2DA92CC3 
 6140      43F1
 6141 1651 55E1F7F8 		.ascii	"U\341\367\370\351^-\017\030p\027\374\214\370\326\035"
 6141      E95E2D0F 
 6141      187017FC 
 6141      8CF8D61D 
 6142 1661 19E2FD12 		.ascii	"\031\342\375\022\005\030\242K^bm\237\334\2116J\317\365"
 6142      0518A24B 
 6142      5E626D9F 
 6142      DC89364A 
 6142      CFF5
 6143 1673 3C318C7B 		.ascii	"<1\214{R\253\007\"a\240OT9\304Ak\010b\231fhE\352&\353"
 6143      52AB0722 
 6143      61A04F54 
 6143      39C4416B 
 6143      08629966 
 6144 168c 323A0674 		.ascii	"2:\006t[\231\260\037c\362\311\376W\315\"\343i\214\255"
 6144      5B99B01F 
 6144      63F2C9FE 
 6144      57CD22E3 
 6144      698CAD
 6145 169f 6A202566 		.ascii	"j %f\250\211\263\236FcKrk\254k0\311)\324\342\013q\353"
 6145      A889B39E 
 6145      46634B72 
 6145      6BAC6B30 
 6145      C929D4E2 
 6146 16b6 0BCEC8D6 		.ascii	"\013\316\310\326\224\277\002\331#\235\022<\323\201\177"
 6146      94BF02D9 
 6146      239D123C 
 6146      D3817F
 6147 16c5 479DB048 		.ascii	"G\235\260H\354\266s\220\232\016P$\363\013&i\275W\301"
 6147      ECB67390 
 6147      9A0E5024 
 6147      F30B2669 
ARM GAS  C:\Users\DJESSOU\AppData\Local\Temp\cc3eovRL.s 			page 201


 6147      BD57C1
 6148 16d8 AB583AC9 		.ascii	"\253X:\311\216\310\326&\000\217\001\264\337\"pL\370"
 6148      8EC8D626 
 6148      008F01B4 
 6148      DF22704C 
 6148      F8
 6149 16e9 037BFDE6 		.ascii	"\003{\375\346\264\225\011\370\270xR\372\0157\213V`\274"
 6149      B49509F8 
 6149      B87852FA 
 6149      0D378B56 
 6149      60BC
 6150 16fb 40CD2096 		.ascii	"@\315 \226\006\243=\336*\311$\207$\340\316\226\014q"
 6150      06A33DDE 
 6150      2AC92487 
 6150      24E0CE96 
 6150      0C71
 6151 170d 02EB1411 		.ascii	"\002\353\024\0218H\210Q\302\375\233\321g@\341\021*z"
 6151      38488851 
 6151      C2FD9BD1 
 6151      6740E111 
 6151      2A7A
 6152 171f 004F4608 		.ascii	"\000OF\010\2234\010\212\371V\177 >\031\2750\200\\\200"
 6152      9334088A 
 6152      F9567F20 
 6152      3E19BD30 
 6152      805C80
 6153 1732 96E837C5 		.ascii	"\226\3507\305\224\336\014=\217\357\204\024\206\320\332"
 6153      94DE0C3D 
 6153      8FEF8414 
 6153      86D0DA
 6154 1741 D5F3A865 		.ascii	"\325\363\250eyL\263j\255w\362\317\\\036\001d\274\200"
 6154      794CB36A 
 6154      AD77F2CF 
 6154      5C1E0164 
 6154      BC80
 6155 1753 0F33A926 		.ascii	"\0173\251&\255\307\304\234\310\003\311\014\031\014k"
 6155      ADC7C49C 
 6155      C803C90C 
 6155      190C6B
 6156 1762 F0CEDC6D 		.ascii	"\360\316\334m\302l)8\301\3658\014\003\""
 6156      C26C2938 
 6156      C1F5380C 
 6156      0322
 6157 1770 FE61CD9B 		.ascii	"\376a\315\233z\211eb\344A\203\255\224\262\030\312W\026"
 6157      7A896562 
 6157      E44183AD 
 6157      94B218CA 
 6157      5716
 6158 1782 EFDDE52F 		.ascii	"\357\335\345/K1n\314\230;Xk\317y\375\213-\267\022b\006"
 6158      4B316ECC 
 6158      983B586B 
 6158      CF79FD8B 
 6158      2DB71262 
 6159 1797 5C6E3275 		.ascii	"\\n2u\035\206\331\235{\200\025\331+b{\242\357\270\375"
 6159      1D86D99D 
 6159      7B8015D9 
 6159      2B627BA2 
ARM GAS  C:\Users\DJESSOU\AppData\Local\Temp\cc3eovRL.s 			page 202


 6159      EFB8FD
 6160 17aa 76623703 		.ascii	"vb7\003Y(\247\320\020\343R:\301t\263\302L\277+\345\255"
 6160      5928A7D0 
 6160      10E3523A 
 6160      C174B3C2 
 6160      4CBF2BE5 
 6161 17bf 4DDECA79 		.ascii	"M\336\312yI\003\001$z2\341]\304\037\005\251\272\376"
 6161      49030124 
 6161      7A32E15D 
 6161      C41F05A9 
 6161      BAFE
 6162 17d1 572D8875 		.ascii	"W-\210u\020\353'5@!\236\377\300\353G\320\307.\234\234"
 6162      10EB2735 
 6162      40219EFF 
 6162      C0EB47D0 
 6162      C72E9C9C 
 6163 17e5 7CC4AC9F 		.ascii	"|\304\254\237i\231\247\027\257)J\224*D\272\302\313\325"
 6163      6999A717 
 6163      AF294A94 
 6163      2A44BAC2 
 6163      CBD5
 6164 17f7 93C1FD22 		.ascii	"\223\301\375\"\374j\355\370F\345\373C\236\027\236\011"
 6164      FC6AEDF8 
 6164      46E5FB43 
 6164      9E179E09 
 6165 1807 97FC44BC 		.ascii	"\227\374D\274\370\225\2718A\230\205+S\364\372\236FP"
 6165      F895B938 
 6165      4198852B 
 6165      53F4FA9E 
 6165      4650
 6166 1819 F0738C1D 		.ascii	"\360s\214\035U1\027LV\326\2243y\202X\204\376\036&\377"
 6166      5531174C 
 6166      56D69433 
 6166      79825884 
 6166      FE1E26FF 
 6167 182d E3258AC4 		.ascii	"\343%\212\304\274\011\023\377\365\235V\245\337\362\323"
 6167      BC0913FF 
 6167      F59D56A5 
 6167      DFF2D3
 6168 183c D9A480FC 		.ascii	"\331\244\200\374\317\276\373(s\367\336\333\027\206\247"
 6168      CFBEFB28 
 6168      73F7DEDB 
 6168      1786A7
 6169 184b 4A1D4D30 		.ascii	"J\035M0It\367\004\022\320\304\261\361\035\326\221\273"
 6169      4974F704 
 6169      12D0C4B1 
 6169      F11DD691 
 6169      BB
 6170 185c 692197EF 		.ascii	"i!\227\357\023\301\377\014\337\2320\004\215\270\200"
 6170      13C1FF0C 
 6170      DF9A3004 
 6170      8DB880
 6171 186b E8A6009F 		.ascii	"\350\246\000\237\022\242\000\272w\305?\235\037\313\326"
 6171      12A200BA 
 6171      77C53F9D 
 6171      1FCBD6
 6172 187a 37DA7111 		.ascii	"7\332q\021n\012\355\275\244\311\330#\231u\201RW\355"
ARM GAS  C:\Users\DJESSOU\AppData\Local\Temp\cc3eovRL.s 			page 203


 6172      6E0AEDBD 
 6172      A4C9D823 
 6172      99758152 
 6172      57ED
 6173 188c 9EF716BF 		.ascii	"\236\367\026\277\261l\032J\250\314!l\342\302\216\252"
 6173      B16C1A4A 
 6173      A8CC216C 
 6173      E2C28EAA 
 6174 189c 43A47718 		.ascii	"C\244w\030&+H1\251\226mT&\352\224\315\243\002\015vV"
 6174      262B4831 
 6174      A9966D54 
 6174      26EA94CD 
 6174      A3020D76 
 6175 18b1 78B1A170 		.ascii	"x\261\241p`\350\363\373Z\300\007n\261\021\354\011\371"
 6175      60E8F3FB 
 6175      5AC0076E 
 6175      B111EC09 
 6175      F9
 6176 18c2 5CAA56F3 		.ascii	"\\\252V\363\277\011V\005g\245\317\367\355j\011\2021"
 6176      BF095605 
 6176      67A5CFF7 
 6176      ED6A0982 
 6176      31
 6177 18d3 E2FE6333 		.ascii	"\342\376c3\247!\320o\261\332\202\022\212*\234\240&-"
 6177      A721D06F 
 6177      B1DA8212 
 6177      8A2A9CA0 
 6177      262D
 6178 18e5 0759389E 		.ascii	"\007Y8\236t\215\255\002\034\354\350t\023O>\213\335\031"
 6178      748DAD02 
 6178      1CECE874 
 6178      134F3E8B 
 6178      DD19
 6179 18f7 780323B0 		.ascii	"x\003#\260\201\261\274<\006\001\007\012\372d*\365\316"
 6179      81B1BC3C 
 6179      0601070A 
 6179      FA642AF5 
 6179      CE
 6180 1908 D6C4EF54 		.ascii	"\326\304\357T\272/R\344\245/Ex\336N(=\030\221Q\311\332"
 6180      BA2F52E4 
 6180      A52F4578 
 6180      DE4E283D 
 6180      189151C9 
 6181 191d 9884A5F9 		.ascii	"\230\204\245\371j\374E]\314\352_\202\341\373y\264;|"
 6181      6AFC455D 
 6181      CCEA5F82 
 6181      E1FB79B4 
 6181      3B7C
 6182 192f 24ADF6C2 		.ascii	"$\255\366\302#\0270B\2412w\331g\252\310\267\304Y\267"
 6182      23173042 
 6182      A13277D9 
 6182      67AAC8B7 
 6182      C459B7
 6183 1942 F40F33C0 		.ascii	"\364\0173\3009\313X\315[\321|r\205PM\230c\377\2639\224"
 6183      39CB58CD 
 6183      5BD17C72 
 6183      85504D98 
ARM GAS  C:\Users\DJESSOU\AppData\Local\Temp\cc3eovRL.s 			page 204


 6183      63FFB339 
 6184 1957 C21952F0 		.ascii	"\302\031R\360J-i\254C m\234c\370T\346\341\321\245\374"
 6184      4A2D69AC 
 6184      43206D9C 
 6184      63F854E6 
 6184      E1D1A5FC 
 6185 196b DA9E839C 		.ascii	"\332\236\203\234\312J\251]\005\253\312[\367\224 sY\350"
 6185      CA4AA95D 
 6185      05ABCA5B 
 6185      F7942073 
 6185      59E8
 6186 197d 14F71486 		.ascii	"\024\367\024\206\037\363\004a\263\214\322\365\370\363"
 6186      1FF30461 
 6186      B38CD2F5 
 6186      F8F3
 6187 198b BF83D3C4 		.ascii	"\277\203\323\304\372\024\351\366\327\244QrtH\304\241"
 6187      FA14E9F6 
 6187      D7A45172 
 6187      7448C4A1 
 6188 199b 5549A979 		.ascii	"UI\251y\034\032k\355\214Y\301\206'E\007gP_Of\177\302"
 6188      1C1A6BED 
 6188      8C59C186 
 6188      27450767 
 6188      505F4F66 
 6189 19b1 269C5770 		.ascii	"&\234Wp\031'\351\024\340\364\250>\325\011O\367\347P"
 6189      1927E914 
 6189      E0F4A83E 
 6189      D5094FF7 
 6189      E750
 6190 19c3 233D987E 		.ascii	"#=\230~[\327S\012\000n\262\027\341\200\256\213\276\320"
 6190      5BD7530A 
 6190      006EB217 
 6190      E180AE8B 
 6190      BED0
 6191 19d5 ADD23CF0 		.ascii	"\255\322<\360P\347\333R\\\307\022\356\014\302Z\207\373"
 6191      50E7DB52 
 6191      5CC712EE 
 6191      0CC25A87 
 6191      FB
 6192 19e6 996E282C 		.ascii	"\231n(,\302\032\226\232o\355*\204\211$\203\306Br\310"
 6192      C21A969A 
 6192      6FED2A84 
 6192      892483C6 
 6192      4272C8
 6193 19f9 A27D6A29 		.ascii	"\242}j)U\017\365\035\276\2549\314/\367\211m\313fu\365"
 6193      550FF51D 
 6193      BEAC39CC 
 6193      2FF7896D 
 6193      CB6675F5 
 6194 1a0d E8C20708 		.ascii	"\350\302\007\010\001\237O7\011\011\375%e\366\354\260"
 6194      019F4F37 
 6194      0909FD25 
 6194      65F6ECB0 
 6195 1a1d 9B7AABB7 		.ascii	"\233z\253\267\341\017\213\243 %j^\356\351\321l\276\033"
 6195      E10F8BA3 
 6195      20256A5E 
 6195      EEE9D16C 
ARM GAS  C:\Users\DJESSOU\AppData\Local\Temp\cc3eovRL.s 			page 205


 6195      BE1B
 6196 1a2f C70D75A2 		.ascii	"\307\015u\242g\026\325p\251\015\267\326e6\216\0235\005"
 6196      6716D570 
 6196      A90DB7D6 
 6196      65368E13 
 6196      3505
 6197 1a41 9E2F0D82 		.ascii	"\236/\015\202\275\247\231$\356\307\030p\346l\337e'E"
 6197      BDA79924 
 6197      EEC71870 
 6197      E66CDF65 
 6197      2745
 6198 1a53 7ADDD0C8 		.ascii	"z\335\320\310\232!\256\3259\354\177\375*MBJ`\033W\265"
 6198      9A21AED5 
 6198      39EC7FFD 
 6198      2A4D424A 
 6198      601B57B5 
 6199 1a67 E04E6BD5 		.ascii	"\340Nk\325\217\266!v\306\210f\010\327\231\225\3642>"
 6199      8FB62176 
 6199      C6886608 
 6199      D79995F4 
 6199      323E
 6200 1a79 26A21542 		.ascii	"&\242\025B}\275\303\373\377\277<:\272h'\247e\276\037"
 6200      7DBDC3FB 
 6200      FFBF3C3A 
 6200      BA6827A7 
 6200      65BE1F
 6201 1a8c C274DD70 		.ascii	"\302t\335p\003pH\304\325\373H\340\343\235\321N\027L"
 6201      037048C4 
 6201      D5FB48E0 
 6201      E39DD14E 
 6201      174C
 6202 1a9e 4A4DAED3 		.ascii	"JM\256\323\332\247v\304\033\245\335\251\362\017\033"
 6202      DAA776C4 
 6202      1BA5DDA9 
 6202      F20F1B
 6203 1aad 728A9EBB 		.ascii	"r\212\236\273\317\011\012S\223K\202S\004\210G\240\245"
 6203      CF090A53 
 6203      934B8253 
 6203      048847A0 
 6203      A5
 6204 1abe 1589E8E4 		.ascii	"\025\211\350\344,f\206\351\331<\366\227\230\274,\370"
 6204      2C6686E9 
 6204      D93CF697 
 6204      98BC2CF8 
 6205 1ace 4D4911A8 		.ascii	"MI\021\250\264`\350L+\377\013\004\272\256\007>N\221"
 6205      B460E84C 
 6205      2BFF0B04 
 6205      BAAE073E 
 6205      4E91
 6206 1ae0 FD1C1489 		.ascii	"\375\034\024\211\007\322\337\003\027#\315{\3230\347"
 6206      07D2DF03 
 6206      1723CD7B 
 6206      D330E7
 6207 1aef B3ED5B04 		.ascii	"\263\355[\004\265\223B\3275B\030\320:\356\262\335\366"
 6207      B59342D7 
 6207      354218D0 
 6207      3AEEB2DD 
ARM GAS  C:\Users\DJESSOU\AppData\Local\Temp\cc3eovRL.s 			page 206


 6207      F6
 6208 1b00 0D3252DF 		.ascii	"\0152R\337\3336-\202p\242\264\315\304\221\262\352\303"
 6208      DB362D82 
 6208      70A2B4CD 
 6208      C491B2EA 
 6208      C3
 6209 1b11 20AAD13F 		.ascii	" \252\321?CgQd\347\016\327\305=\334\206\335X\206\230"
 6209      43675164 
 6209      E70ED7C5 
 6209      3DDC86DD 
 6209      588698
 6210 1b24 D3C53EE5 		.ascii	"\323\305>\345\034\237\374\034\270C\331\211s\256\333"
 6210      1C9FFC1C 
 6210      B843D989 
 6210      73AEDB
 6211 1b33 755EAF70 		.ascii	"u^\257p\004\363\356-2\253\030\277\322\262ad\364\374"
 6211      04F3EE2D 
 6211      32AB18BF 
 6211      D2B26164 
 6211      F4FC
 6212 1b45 2ECCF727 		.ascii	".\314\367'0\215\355\315\225\373\316O#p\230\316\021\027"
 6212      308DEDCD 
 6212      95FBCE4F 
 6212      237098CE 
 6212      1117
 6213 1b57 CE419D4C 		.ascii	"\316A\235L\363\371\313\237\257\375x\314J\315\036\315"
 6213      F3F9CB9F 
 6213      AFFD78CC 
 6213      4ACD1ECD 
 6214 1b67 4AB2FCC9 		.ascii	"J\262\374\311\377\"\263\325\311\244\273\015L\235\307"
 6214      FF22B3D5 
 6214      C9A4BB0D 
 6214      4C9DC7
 6215 1b76 48B67426 		.ascii	"H\266t&\374_\345\371\011\337\336H\322]\200\337~^\241"
 6215      FC5FE5F9 
 6215      09DFDE48 
 6215      D25D80DF 
 6215      7E5EA1
 6216 1b89 30CE66BA 		.ascii	"0\316f\272\375\260w\355\326\205\247\031\235#E\0367\261"
 6216      FDB077ED 
 6216      D685A719 
 6216      9D23451E 
 6216      37B1
 6217 1b9b E2530900 		.ascii	"\342S\011\000!\321a\361\215hL|\364Yu\307+\354\323\274"
 6217      21D161F1 
 6217      8D684C7C 
 6217      F45975C7 
 6217      2BECD3BC 
 6218 1baf 8E274949 		.ascii	"\216'II\213\304R<\3134\232x\272j!X@\322'\310\276\243"
 6218      8BC4523C 
 6218      CB349A78 
 6218      BA6A2158 
 6218      40D227C8 
 6219 1bc5 20DE4A8B 		.ascii	" \336J\213\002f\367\240\035u\271\375N\205\010|\226\316"
 6219      0266F7A0 
 6219      1D75B9FD 
 6219      4E85087C 
ARM GAS  C:\Users\DJESSOU\AppData\Local\Temp\cc3eovRL.s 			page 207


 6219      96CE
 6220 1bd7 61CB229D 		.ascii	"a\313\"\235\270\013\302\232\3535\270\224\340\302\230"
 6220      B80BC29A 
 6220      EB35B894 
 6220      E0C298
 6221 1be6 02F1B1D8 		.ascii	"\002\361\261\330xY\205\220l\301\0320B\3055o\023^\216"
 6221      78598590 
 6221      6CC11A30 
 6221      42C5356F 
 6221      135E8E
 6222 1bf9 31AE2CD8 		.ascii	"1\256,\330\013\311\277a\240\244\3748\230L\276\203\353"
 6222      0BC9BF61 
 6222      A0A4FC38 
 6222      984CBE83 
 6222      EB
 6223 1c0a CB5DBDE2 		.ascii	"\313]\275\342\252v\205\310\334\223\321\263\261W\332"
 6223      AA7685C8 
 6223      DC93D1B3 
 6223      B157DA
 6224 1c19 45AA05B9 		.ascii	"E\252\005\271\036\330\250r\034\377\272\270\001\211\250"
 6224      1ED8A872 
 6224      1CFFBAB8 
 6224      0189A8
 6225 1c28 5FACFCF7 		.ascii	"_\254\374\367\343\243N93^3]\244\2376\270\364\375\012"
 6225      E3A34E39 
 6225      335E335D 
 6225      A49F36B8 
 6225      F4FD0A
 6226 1c3b 0241FBD1 		.ascii	"\002A\373\321\363!\355\202v>N\303R-\011\327iIP\3062"
 6226      F321ED82 
 6226      763E4EC3 
 6226      522D09D7 
 6226      694950C6 
 6227 1c50 C9E81CC0 		.ascii	"\311\350\034\300\221\233_\016OP\366\320\260\246\344"
 6227      919B5F0E 
 6227      4F50F6D0 
 6227      B0A6E4
 6228 1c5f 360D3AB7 		.ascii	"6\015:\267\330~c\032\202\355\306\257\177\302\206iT\347"
 6228      D87E631A 
 6228      82EDC6AF 
 6228      7FC28669 
 6228      54E7
 6229 1c71 0505F4D9 		.ascii	"\005\005\364\331\231E\271\275[6\364\374\205\367O\201"
 6229      9945B9BD 
 6229      5B36F4FC 
 6229      85F74F81 
 6230 1c81 2F3ABA7B 		.ascii	"/:\272{\313\253\235\307\267\336\340J\336K\255=\231\004"
 6230      CBAB9DC7 
 6230      B7DEE04A 
 6230      DE4BAD3D 
 6230      9904
 6231 1c93 83AF48F2 		.ascii	"\203\257H\362\035U1\000\326w\373<{'9T\355\032\263\322"
 6231      1D553100 
 6231      D677FB3C 
 6231      7B273954 
 6231      ED1AB3D2 
 6232 1ca7 EB8872A4 		.ascii	"\353\210r\2448$\"\327TAD\036\207\264\255\243Z\312\222"
ARM GAS  C:\Users\DJESSOU\AppData\Local\Temp\cc3eovRL.s 			page 208


 6232      382422D7 
 6232      5441441E 
 6232      87B4ADA3 
 6232      5ACA92
 6233 1cba 5E5F0002 		.ascii	"^_\000\002\230\032\232\035Y\220\"\030\231gW\011\362"
 6233      981A9A1D 
 6233      59902218 
 6233      99675709 
 6233      F2
 6234 1ccb 9690472C 		.ascii	"\226\220G,E\266\314\334\214\203@\216\315\334rQe~\234"
 6234      45B6CCDC 
 6234      8C83408E 
 6234      CDDC7251 
 6234      657E9C
 6235 1cde 4616CE07 		.ascii	"F\026\316\007]u\357\333\207\370%r\013\220\023*+g\270"
 6235      5D75EFDB 
 6235      87F82572 
 6235      0B90132A 
 6235      2B67B8
 6236 1cf1 827594BC 		.ascii	"\202u\224\274&\263;\345O\216\012\021+V\012\333H\326"
 6236      26B33BE5 
 6236      4F8E0A11 
 6236      2B560ADB 
 6236      48D6
 6237 1d03 18349D9E 		.ascii	"\0304\235\236\232Y\305R\345~:\252\350G\316f\035\301"
 6237      9A59C552 
 6237      E57E3AAA 
 6237      E847CE66 
 6237      1DC1
 6238 1d15 EC4BA32D 		.ascii	"\354K\243-\030\207\014\2379\236I\322\236e\237\222\212"
 6238      18870C9F 
 6238      399E49D2 
 6238      9E659F92 
 6238      8A
 6239 1d26 98DEEC38 		.ascii	"\230\336\3548]\0147\027\350\206\266\235\207\030\200"
 6239      5D0C3717 
 6239      E886B69D 
 6239      871880
 6240 1d35 6DFDEB21 		.ascii	"m\375\353!\372H\347|E\206\322\217\206\237\256\337h\277"
 6240      FA48E77C 
 6240      4586D28F 
 6240      869FAEDF 
 6240      68BF
 6241 1d47 DF5260DF 		.ascii	"\337R`\337^\343\366\213\237\2270\242\331(1\267\021\342"
 6241      5EE3F68B 
 6241      9F9730A2 
 6241      D92831B7 
 6241      11E2
 6242 1d59 7905A907 		.ascii	"y\005\251\007.y7\234\026\340\347hU\2173\\H\260\233\342"
 6242      2E79379C 
 6242      16E0E768 
 6242      558F335C 
 6242      48B09BE2 
 6243 1d6d 23EFFC38 		.ascii	"#\357\3748\302K\224\026\202\354\261\366\230\364u\000"
 6243      C24B9416 
 6243      82ECB1F6 
 6243      98F47500 
ARM GAS  C:\Users\DJESSOU\AppData\Local\Temp\cc3eovRL.s 			page 209


 6244 1d7d 829CFEF0 		.ascii	"\202\234\376\360\205\347\263\264\377<,|\357.7\003Q\246"
 6244      85E7B3B4 
 6244      FF3C2C7C 
 6244      EF2E3703 
 6244      51A6
 6245 1d8f 36FFB474 		.ascii	"6\377\264t\002\003>&\265\272L\221\212\3126\310\372i"
 6245      02033E26 
 6245      B5BA4C91 
 6245      8ACA36C8 
 6245      FA69
 6246 1da1 2D0742E2 		.ascii	"-\007B\342\345\232\326\023sH\337\205J\225\275\241\030"
 6246      E59AD613 
 6246      7348DF85 
 6246      4A95BDA1 
 6246      18
 6247 1db2 857D76C5 		.ascii	"\205}v\3059\301:\033Z\350\311/;\232\032/\007\200\373"
 6247      39C13A1B 
 6247      5AE8C92F 
 6247      3B9A1A2F 
 6247      0780FB
 6248 1dc5 9BC708BA 		.ascii	"\233\307\010\272\271\356\036\241\302\3524u\342\261|"
 6248      B9EE1EA1 
 6248      C2EA3475 
 6248      E2B17C
 6249 1dd4 BF065C5F 		.ascii	"\277\006\\_\214\240pl9n\241\333W\015q\321\257\255\311"
 6249      8CA0706C 
 6249      396EA1DB 
 6249      570D71D1 
 6249      AFADC9
 6250 1de7 3B8E424F 		.ascii	";\216BO\363C\334\234/:J\377\032(2\231\031nFf\217\024"
 6250      F343DC9C 
 6250      2F3A4AFF 
 6250      1A283299 
 6250      196E4666 
 6251 1dfd F4F85051 		.ascii	"\364\370PQ\000!nO\233J5\000EBO\005\336\242|O\361\250"
 6251      00216E4F 
 6251      9B4A3500 
 6251      45424F05 
 6251      DEA27C4F 
 6252 1e13 1C00BF55 		.ascii	"\034\000\277U\\\321O\200R\331\366^\247k\347~\332\301"
 6252      5CD14F80 
 6252      52D9F65E 
 6252      A76BE77E 
 6252      DAC1
 6253 1e25 1ED6CED3 		.ascii	"\036\326\316\323j\351\262\343\245\036\345\231p\202\336"
 6253      6AE9B2E3 
 6253      A51EE599 
 6253      7082DE
 6254 1e34 19A9FD77 		.ascii	"\031\251\375w\373\360e\27568\211*M\247*\313`\271Jj\030"
 6254      FBF065BD 
 6254      3638892A 
 6254      4DA72ACB 
 6254      60B94A6A 
 6255 1e49 6629F6E1 		.ascii	"f)\366\341\307\236\221\327Bw\271\347\372\3210\323\327"
 6255      C79E91D7 
 6255      4277B9E7 
 6255      FAD130D3 
ARM GAS  C:\Users\DJESSOU\AppData\Local\Temp\cc3eovRL.s 			page 210


 6255      D7
 6256 1e5a F3B6A254 		.ascii	"\363\266\242T)\025l\307\266\305\214\257\030'V^u\217"
 6256      29156CC7 
 6256      B6C58CAF 
 6256      1827565E 
 6256      758F
 6257 1e6c D3BC2FCD 		.ascii	"\323\274/\315^[\371\346\247c5\361g\305\232\364|\230"
 6257      5E5BF9E6 
 6257      A76335F1 
 6257      67C59AF4 
 6257      7C98
 6258 1e7e 87BB441A 		.ascii	"\207\273D\032\365X\005Jp\212\213\321\303\224\235\315"
 6258      F558054A 
 6258      708A8BD1 
 6258      C3949DCD 
 6259 1e8e FC884DF3 		.ascii	"\374\210M\363\024\275\020\3353\253\0242\250\006\214"
 6259      14BD10DD 
 6259      33AB1432 
 6259      A8068C
 6260 1e9d B10E5C1F 		.ascii	"\261\016\\\037\223K\245\362\233Y\323\036}6\262T\177"
 6260      934BA5F2 
 6260      9B59D31E 
 6260      7D36B254 
 6260      7F
 6261 1eae 96E1DC9A 		.ascii	"\226\341\334\232\233\223\212\263ZN5g\205\353\033\245"
 6261      9B938AB3 
 6261      5A4E3567 
 6261      85EB1BA5 
 6262 1ebe 384CF7A3 		.ascii	"8L\367\243\351\330\311\213<\217\021u\035;\213MQ\221"
 6262      E9D8C98B 
 6262      3C8F1175 
 6262      1D3B8B4D 
 6262      5191
 6263 1ed0 9058686F 		.ascii	"\220Xho#\345\002u1!3~\324\254\0027mp\347\026\256\316"
 6263      23E50275 
 6263      3121337E 
 6263      D4AC0237 
 6263      6D70E716 
 6264 1ee6 B1009A07 		.ascii	"\261\000\232\007\275\214\024\027\027\303Sk\255\204\251"
 6264      BD8C1417 
 6264      17C3536B 
 6264      AD84A9
 6265 1ef5 BDB361C6 		.ascii	"\275\263a\306x\333\333\322\305\312\274\2433\241\221"
 6265      78DBDBD2 
 6265      C5CABCA3 
 6265      33A191
 6266 1f04 0C0FEE32 		.ascii	"\014\017\3562f\302\003\036\310\240\270\005;\365\236"
 6266      66C2031E 
 6266      C8A0B805 
 6266      3BF59E
 6267 1f13 0A9C05AE 		.ascii	"\012\234\005\256\261 NJKU\234\360A\231\366\255-\221"
 6267      B1204E4A 
 6267      4B559CF0 
 6267      4199F6AD 
 6267      2D91
 6268 1f25 5F68D682 		.ascii	"_h\326\202\215\230\225qw\035\250\002\026\257\035#\245"
 6268      8D989571 
ARM GAS  C:\Users\DJESSOU\AppData\Local\Temp\cc3eovRL.s 			page 211


 6268      771DA802 
 6268      16AF1D23 
 6268      A5
 6269 1f36 0E1B0E5E 		.ascii	"\016\033\016^%\344\237\23651"
 6269      25E49F9E 
 6269      3531
 6270 1f40 4F137BA4 		.ascii	"O\023{\244\177\004\3252\347\327\260m(T\007\226\272\217"
 6270      7F04D532 
 6270      E7D7B06D 
 6270      28540796 
 6270      BA8F
 6271 1f52 1CB659FE 		.ascii	"\034\266Y\376\005\020L\001o6k\235+y\244\374\225LsD!"
 6271      05104C01 
 6271      6F366B9D 
 6271      2B79A4FC 
 6271      954C7344 
 6272 1f67 CE628A50 		.ascii	"\316b\212P7\214\240\273\327\246{\373\201\236\303\222"
 6272      378CA0BB 
 6272      D7A67BFB 
 6272      819EC392 
 6273 1f77 2BDE83FF 		.ascii	"+\336\203\377\005\370\200\001\035\\\263e\000\257\353"
 6273      05F88001 
 6273      1D5CB365 
 6273      00AFEB
 6274 1f86 DCDB2AD1 		.ascii	"\334\333*\321i\321\276q\236\217\264\266i\310\022+<9"
 6274      69D1BE71 
 6274      9E8FB4B6 
 6274      69C8122B 
 6274      3C39
 6275 1f98 A3D11E51 		.ascii	"\243\321\036Q\022N\000\350\372d\322\021`\245\344q\015"
 6275      124E00E8 
 6275      FA64D211 
 6275      60A5E471 
 6275      0D
 6276 1fa9 0BD70DD0 		.ascii	"\013\327\015\320/\021t\273\342\265\321\234\242\222q"
 6276      2F1174BB 
 6276      E2B5D19C 
 6276      A29271
 6277 1fb8 17F08B9A 		.ascii	"\027\360\213\2322f\250\231d\272\236\213m%\202B\252\006"
 6277      3266A899 
 6277      64BA9E8B 
 6277      6D258242 
 6277      AA06
 6278 1fca 16B7F0CB 		.ascii	"\026\267\360\313\240\335\254W1-\033\375=\254;m\213\310"
 6278      A0DDAC57 
 6278      312D1BFD 
 6278      3DAC3B6D 
 6278      8BC8
 6279 1fdc BDFFB54A 		.ascii	"\275\377\265J\341\264\255nl\312\356E\231z>\3746nQ(\241"
 6279      E1B4AD6E 
 6279      6CCAEE45 
 6279      997A3EFC 
 6279      366E5128 
 6280 1ff1 F7E9E83A 		.ascii	"\367\351\350:\2518(\233\335\002\3703B\017\373\372H\237"
 6280      A938289B 
 6280      DD02F833 
 6280      420FFBFA 
ARM GAS  C:\Users\DJESSOU\AppData\Local\Temp\cc3eovRL.s 			page 212


 6280      489F
 6281 2003 EFEFC987 		.ascii	"\357\357\311\207~\260\016\210\351\013\011\376\371\243"
 6281      7EB00E88 
 6281      E90B09FE 
 6281      F9A3
 6282 2011 79F30453 		.ascii	"y\363\004S\350=\336!\353\313\022\216L\033\012I\263h"
 6282      E83DDE21 
 6282      EBCB128E 
 6282      4C1B0A49 
 6282      B368
 6283 2023 2D7C47B8 		.ascii	"-|G\270\220\274\211/\301&\257_\010\264j\037#]\247\356"
 6283      90BC892F 
 6283      C126AF5F 
 6283      08B46A1F 
 6283      235DA7EE 
 6284 2037 8CD53122 		.ascii	"\214\3251\"\276\037 \255@K\000 _F\226bMt\271\300\204"
 6284      BE1F20AD 
 6284      404B0020 
 6284      5F469662 
 6284      4D74B9C0 
 6285 204c F0F71EF3 		.ascii	"\360\367\036\363\233\270\2071[\201\326\200\207\357\311"
 6285      9BB88731 
 6285      5B81D680 
 6285      87EFC9
 6286 205b 65E3D3A3 		.ascii	"e\343\323\243\245\304\327\344\034gA\275_\316\310\300"
 6286      A5C4D7E4 
 6286      1C6741BD 
 6286      5FCEC8C0 
 6287 206b A9D4474D 		.ascii	"\251\324GM\304w\2722a\232\221oB\232FT\272\352d\307\316"
 6287      C477BA32 
 6287      619A916F 
 6287      429A4654 
 6287      BAEA64C7 
 6288 2080 6C8D1C51 		.ascii	"l\215\034Q\025Fj\210?Y\246\000\255xl\344\224^/\366N"
 6288      15466A88 
 6288      3F59A600 
 6288      AD786CE4 
 6288      945E2FF6 
 6289 2095 1AE865E2 		.ascii	"\032\350e\342\036+\312\235\337\246\354\340\212\304\017"
 6289      1E2BCA9D 
 6289      DFA6ECE0 
 6289      8AC40F
 6290 20a4 C7E7822A 		.ascii	"\307\347\202*Lqv\351\031\206\252\334!\356\345\364\024"
 6290      4C7176E9 
 6290      1986AADC 
 6290      21EEE5F4 
 6290      14
 6291 20b5 07A8C1B3 		.ascii	"\007\250\301\263K\035Y\312\354\211L\317Bv\245\036\273"
 6291      4B1D59CA 
 6291      EC894CCF 
 6291      4276A51E 
 6291      BB
 6292 20c6 7DE37083 		.ascii	"}\343p\203\017.;o\005j\222\367\205\301\000U\035$\370"
 6292      0F2E3B6F 
 6292      056A92F7 
 6292      85C10055 
 6292      1D24F8
ARM GAS  C:\Users\DJESSOU\AppData\Local\Temp\cc3eovRL.s 			page 213


 6293 20d9 E21B3634 		.ascii	"\342\03364\313\240\263m\371\037\255C\356\333\210\235"
 6293      CBA0B36D 
 6293      F91FAD43 
 6293      EEDB889D 
 6294 20e9 D366E32F 		.ascii	"\323f\343/.\212\220\276\352\253\240\235\011\367\232"
 6294      2E8A90BE 
 6294      EAABA09D 
 6294      09F79A
 6295 20f8 FD495051 		.ascii	"\375IPQ\255.\260\341^\233\331\201z\004\227\001\005\345"
 6295      AD2EB0E1 
 6295      5E9BD981 
 6295      7A049701 
 6295      05E5
 6296 210a 7A751DA5 		.ascii	"zu\035\245\230d\343\334\344\002p~\323\262\346\360\311"
 6296      9864E3DC 
 6296      E402707E 
 6296      D3B2E6F0 
 6296      C9
 6297 211b ECF7FAB9 		.ascii	"\354\367\372\271\344\021\261\007\014\264+\272\021r\241"
 6297      E411B107 
 6297      0CB42BBA 
 6297      1172A1
 6298 212a BED652E8 		.ascii	"\276\326R\350\001\2131\375{\354\334\024\226 \037\020"
 6298      018B31FD 
 6298      7BECDC14 
 6298      96201F10 
 6299 213a E82982A0 		.ascii	"\350)\202\240!C\377\0146v0\366\265\007\242\336\350m"
 6299      2143FF0C 
 6299      367630F6 
 6299      B507A2DE 
 6299      E86D
 6300 214c 205F37D0 		.ascii	" _7\320\247\342sq\276\001d\263\350\011`L\372}9 \232"
 6300      A7E27371 
 6300      BE0164B3 
 6300      E809604C 
 6300      FA7D3920 
 6301 2161 7B8376CB 		.ascii	"{\203v\313\"\315C|\326\305\021\236\371#2A\214\373f\306"
 6301      22CD437C 
 6301      D6C5119E 
 6301      F9233241 
 6301      8CFB66C6 
 6302 2175 154D0682 		.ascii	"\025M\006\202\336}1\376\016\240\345\177J\312\356g\315"
 6302      DE7D31FE 
 6302      0EA0E57F 
 6302      4ACAEE67 
 6302      CD
 6303 2186 732F4B44 		.ascii	"s/KD\273\202\376|\230\264\342 /\012\256^\256\372\004"
 6303      BB82FE7C 
 6303      98B4E220 
 6303      2F0AAE5E 
 6303      AEFA04
 6304 2199 D4DC9215 		.ascii	"\324\334\222\025\327B\225M\225\235b\310\227\242a\242"
 6304      D742954D 
 6304      959D62C8 
 6304      97A261A2 
 6305 21a9 FF3A479F 		.ascii	"\377:G\237py)\3728V&w\362\032\225\375\301\010h\275\330"
 6305      707929FA 
ARM GAS  C:\Users\DJESSOU\AppData\Local\Temp\cc3eovRL.s 			page 214


 6305      38562677 
 6305      F21A95FD 
 6305      C10868BD 
 6306 21be 6EB29DEE 		.ascii	"n\262\235\356\331\204\331\242\304\364`\025\005\306\337"
 6306      D984D9A2 
 6306      C4F46015 
 6306      05C6DF
 6307 21cd D1532C32 		.ascii	"\321S,2i\226F90\003G\365\220\030\002\004\363Bg\226."
 6307      69964639 
 6307      300347F5 
 6307      90180204 
 6307      F3426796 
 6308 21e2 F766C6B5 		.ascii	"\367f\306\265\211\341\303x11o\263\022\006H\305\330:"
 6308      89E1C378 
 6308      31316FB3 
 6308      120648C5 
 6308      D83A
 6309 21f4 A6CFAE5D 		.ascii	"\246\317\256]u\210\362\375\221\234\273}s\017\244\012"
 6309      7588F2FD 
 6309      919CBB7D 
 6309      730FA40A 
 6310 2204 C109970F 		.ascii	"\301\011\227\017\264\274\274\322\021\233t$Z\"\342\006"
 6310      B4BCBCD2 
 6310      119B7424 
 6310      5A22E206 
 6311 2214 C6643A85 		.ascii	"\306d:\205\037G]\304\345R\210Bl\365F\352\351oH\303\\"
 6311      1F475DC4 
 6311      E5528842 
 6311      6CF546EA 
 6311      E96F48C3 
 6312 2229 4BFE2630 		.ascii	"K\376&0L\007-<}\341\306\205\250]\222\353\207\241\370"
 6312      4C072D3C 
 6312      7DE1C685 
 6312      A85D92EB 
 6312      87A1F8
 6313 223c DD2A9E84 		.ascii	"\335*\236\204\177<\325\370\007\264\272-o\306:\266>W"
 6313      7F3CD5F8 
 6313      07B4BA2D 
 6313      6FC63AB6 
 6313      3E57
 6314 224e 9825B093 		.ascii	"\230%\260\223!\207~\247\213d\333\323\010\244\276\301"
 6314      21877EA7 
 6314      8B64DBD3 
 6314      08A4BEC1 
 6315 225e 2F1F5107 		.ascii	"/\037Q\007X\247\330p9s\304\320\371:\315(\251\221\240"
 6315      58A7D870 
 6315      3973C4D0 
 6315      F93ACD28 
 6315      A991A0
 6316 2271 241031D3 		.ascii	"$\0201\323\366_\314\305\261\346js\225O\336;\337\214"
 6316      F65FCCC5 
 6316      B1E66A73 
 6316      954FDE3B 
 6316      DF8C
 6317 2283 A1A7167C 		.ascii	"\241\247\026|\232\371\310,7~J\273'mFq\335e\036T\340"
 6317      9AF9C82C 
 6317      377E4ABB 
ARM GAS  C:\Users\DJESSOU\AppData\Local\Temp\cc3eovRL.s 			page 215


 6317      276D4671 
 6317      DD651E54 
 6318 2298 CB4FC1EB 		.ascii	"\313O\301\353\376\220A\314\212){\002]\325\363\303\303"
 6318      FE9041CC 
 6318      8A297B02 
 6318      5DD5F3C3 
 6318      C3
 6319 22a9 2088A99F 		.ascii	" \210\251\237\276\340k\276\245\037I\310\363\035\006"
 6319      BEE06BBE 
 6319      A51F49C8 
 6319      F31D06
 6320 22b8 531DD99C 		.ascii	"S\035\331\234\246\311K\272\027\001\261\006\364Z\031"
 6320      A6C94BBA 
 6320      1701B106 
 6320      F45A19
 6321 22c7 DDCFCAB4 		.ascii	"\335\317\312\264\273n\336N\276\266oH<\323\200eZ9\036"
 6321      BB6EDE4E 
 6321      BEB66F48 
 6321      3CD38065 
 6321      5A391E
 6322 22da 0BB58DD9 		.ascii	"\013\265\215\331\252\363\261\035\243/\216f{\316\272"
 6322      AAF3B11D 
 6322      A32F8E66 
 6322      7BCEBA
 6323 22e9 07425D47 		.ascii	"\007B]G\202\033\314\266@X\210hs:\365\015\177\270\036"
 6323      821BCCB6 
 6323      40588868 
 6323      733AF50D 
 6323      7FB81E
 6324 22fc 54CF62F7 		.ascii	"T\317b\367\206\224\243\030\256\2064W\360\310\3223O\007"
 6324      8694A318 
 6324      AE863457 
 6324      F0C8D233 
 6324      4F07
 6325 230e 9C3766AA 		.ascii	"\2347f\252\245b:\362CBC&\301+o\3017y\331\220\247\231"
 6325      A5623AF2 
 6325      43424326 
 6325      C12B6FC1 
 6325      3779D990 
 6326 2324 C3F6C6F9 		.ascii	"\303\366\306\371\342\336\364!7\030\340\304\344iT\370"
 6326      E2DEF421 
 6326      3718E0C4 
 6326      E46954F8 
 6327 2334 5100E9A3 		.ascii	"Q\000\351\243#\276\331\344\023\367\233t\004\260jr\255"
 6327      23BED9E4 
 6327      13F79B74 
 6327      04B06A72 
 6327      AD
 6328 2345 1091BB44 		.ascii	"\020\221\273DD\005\253\317\270\353/\321w}\223\273\010"
 6328      4405ABCF 
 6328      B8EB2FD1 
 6328      777D93BB 
 6328      08
 6329 2356 52755C7F 		.ascii	"Ru\\\177}\335\225\356!\275\371y\347\013s\307!\005o\362"
 6329      7DDD95EE 
 6329      21BDF979 
 6329      E70B73C7 
ARM GAS  C:\Users\DJESSOU\AppData\Local\Temp\cc3eovRL.s 			page 216


 6329      21056FF2 
 6330 236a 2ABF7458 		.ascii	"*\277tX\351ur\255.\302\024\033\362\222\375\005\367\217"
 6330      E97572AD 
 6330      2EC2141B 
 6330      F292FD05 
 6330      F78F
 6331 237c 6395DF96 		.ascii	"c\225\337\226\"\366\301K\332\027\367+\304\022\015\222"
 6331      22F6C14B 
 6331      DA17F72B 
 6331      C4120D92 
 6332 238c 46516226 		.ascii	"FQb&\200\363,j\345%\300\340.c\277\322\360\327ll\347"
 6332      80F32C6A 
 6332      E525C0E0 
 6332      2E63BFD2 
 6332      F0D76C6C 
 6333 23a1 9A5A3689 		.ascii	"\232Z6\211\313\347\351\021\343\313YM\232\305\214g\010"
 6333      CBE7E911 
 6333      E3CB594D 
 6333      9AC58C67 
 6333      08
 6334 23b2 E1FC6F49 		.ascii	"\341\374oI\351\221\351\256\006\316\035\220[I\243\263"
 6334      E991E9AE 
 6334      06CE1D90 
 6334      5B49A3B3 
 6335 23c2 5F6063C0 		.ascii	"_`c\300\311\204\364\265_\014\024_\342Ae\227P\305\354"
 6335      C984F4B5 
 6335      5F0C145F 
 6335      E2416597 
 6335      50C5EC
 6336 23d5 F6DFDB65 		.ascii	"\366\337\333e: \200R\244\270\342=\304'\323\224\350\240"
 6336      3A208052 
 6336      A4B8E23D 
 6336      C427D394 
 6336      E8A0
 6337 23e7 6CA5C544 		.ascii	"l\245\305D\263b\266Ujm\232\014\273\021\212q\204r\350"
 6337      B362B655 
 6337      6A6D9A0C 
 6337      BB118A71 
 6337      8472E8
 6338 23fa 5F0B7DDF 		.ascii	"_\013}\337\036\257\262?P\357@UT\372\254+\232Hx\016\015"
 6338      1EAFB23F 
 6338      50EF4055 
 6338      54FAAC2B 
 6338      9A48780E 
 6339 240f 3E85CB6C 		.ascii	">\205\313lV\\\327\305\316\205\327i%\350H\230\276\245"
 6339      565CD7C5 
 6339      CE85D769 
 6339      25E84898 
 6339      BEA5
 6340 2421 E1543940 		.ascii	"\341T9@\336e\225\030\361\346\267^\325/\323 \223\251"
 6340      DE659518 
 6340      F1E6B75E 
 6340      D52FD320 
 6340      93A9
 6341 2433 09B6DE75 		.ascii	"\011\266\336u/\352G\317>s\016\321\023\337\253\314\277"
 6341      2FEA47CF 
 6341      3E730ED1 
ARM GAS  C:\Users\DJESSOU\AppData\Local\Temp\cc3eovRL.s 			page 217


 6341      13DFABCC 
 6341      BF
 6342 2444 F275A7BB 		.ascii	"\362u\247\273\265\221\341/\\`0\0005\201,PA:\310\346"
 6342      B591E12F 
 6342      5C603000 
 6342      35812C50 
 6342      413AC8E6 
 6343 2458 60D93608 		.ascii	"`\3316\010\214c\375+\301p#A\\\356\326D.c\020yk\365\010"
 6343      8C63FD2B 
 6343      C1702341 
 6343      5CEED644 
 6343      2E631079 
 6344 246f C28803D1 		.ascii	"\302\210\003\32124\0307\361\022Y\315\367toH\372c-*\367"
 6344      32341837 
 6344      F11259CD 
 6344      F7746F48 
 6344      FA632D2A 
 6345 2484 4A5C1225 		.ascii	"J\\\022%\017\313\372\341\025\323\326\235L\367{F\344"
 6345      0FCBFAE1 
 6345      15D3D69D 
 6345      4CF77B46 
 6345      E4
 6346 2495 31FB6058 		.ascii	"1\373`XZe\226\270\024\214\226\302\366o}\007\222A\321"
 6346      5A6596B8 
 6346      148C96C2 
 6346      F66F7D07 
 6346      9241D1
 6347 24a8 7DAA035D 		.ascii	"}\252\003]\235\271\036\333\031\251|\315\006\014i\301"
 6347      9DB91EDB 
 6347      19A97CCD 
 6347      060C69C1 
 6348 24b8 8A7B48BD 		.ascii	"\212{H\275Kq\2529v\006\267D7\026:\244\332OTo\206\235"
 6348      4B71AA39 
 6348      7606B744 
 6348      37163AA4 
 6348      DA4F546F 
 6349 24ce ED0DF6EA 		.ascii	"\355\015\366\352-P\321\310\031\257\370\375\004x\250"
 6349      2D50D1C8 
 6349      19AFF8FD 
 6349      0478A8
 6350 24dd 57739FB5 		.ascii	"Ws\237\265K'\001\241\245L\347\260\263ib\251\270\304"
 6350      4B2701A1 
 6350      A54CE7B0 
 6350      B36962A9 
 6350      B8C4
 6351 24ef EA63CC8B 		.ascii	"\352c\314\213\240\373\266\014\340\206\236\203\320j\267"
 6351      A0FBB60C 
 6351      E0869E83 
 6351      D06AB7
 6352 24fe 303A1F33 		.ascii	"0:\03733\367\334J;=-\277\341\014v>p\212\3154\021F\376"
 6352      33F7DC4A 
 6352      3B3D2DBF 
 6352      E10C763E 
 6352      708ACD34 
 6353 2515 D27AA18A 		.ascii	"\322z\241\212=+]\316#%\027\374\222\236\374\311GD\221"
 6353      3D2B5DCE 
 6353      232517FC 
ARM GAS  C:\Users\DJESSOU\AppData\Local\Temp\cc3eovRL.s 			page 218


 6353      929EFCC9 
 6353      474491
 6354 2528 BB76A4B6 		.ascii	"\273v\244\266`\204\201\231\340\231\2006W%\341\"\254"
 6354      60848199 
 6354      E0998036 
 6354      5725E122 
 6354      AC
 6355 2539 C7C87B15 		.ascii	"\307\310{\025q\305\336\272\313\015j\203\036\272B/\010"
 6355      71C5DEBA 
 6355      CB0D6A83 
 6355      1EBA422F 
 6355      08
 6356 254a C52B0E4D 		.ascii	"\305+\016M$p\033\331\324\277\316\204\273\272\236\347"
 6356      24701BD9 
 6356      D4BFCE84 
 6356      BBBA9EE7 
 6357 255a CCA58D8C 		.ascii	"\314\245\215\214sg\334\031\223'\256\017(!\321\30582"
 6357      7367DC19 
 6357      9327AE0F 
 6357      2821D1C5 
 6357      3832
 6358 256c 7813F28B 		.ascii	"x\023\362\213W\311\015\230N\237\224\362\305Ho_\333\322"
 6358      57C90D98 
 6358      4E9F94F2 
 6358      C5486F5F 
 6358      DBD2
 6359 257e B049C504 		.ascii	"\260I\305\004\233\263\233V\035\256a\210-\362Wd8\254"
 6359      9BB39B56 
 6359      1DAE6188 
 6359      2DF25764 
 6359      38AC
 6360 2590 BF0F1512 		.ascii	"\277\017\025\022\030\320$x\265\274\024\251\226>\015"
 6360      18D02478 
 6360      B5BC14A9 
 6360      963E0D
 6361 259f C2A9BBD6 		.ascii	"\302\251\273\326?\352}\022\317\255\301\024\002\0145"
 6361      3FEA7D12 
 6361      CFADC114 
 6361      020C35
 6362 25ae 8D529184 		.ascii	"\215R\221\204\313\212\333g\314\221\257\257\377\316\266"
 6362      CB8ADB67 
 6362      CC91AFAF 
 6362      FFCEB6
 6363 25bd 9A491918 		.ascii	"\232I\031\030\222\247\301\263\232D_.f\222\177<7\334"
 6363      92A7C1B3 
 6363      9A445F2E 
 6363      66927F3C 
 6363      37DC
 6364 25cf AC441787 		.ascii	"\254D\027\207\013\221\234\030/\300\335\363\215\030\246"
 6364      0B919C18 
 6364      2FC0DDF3 
 6364      8D18A6
 6365 25de C3AEF3C5 		.ascii	"\303\256\363\305!\217<\005_Ln\225C\210\000\235\177\335"
 6365      218F3C05 
 6365      5F4C6E95 
 6365      4388009D 
 6365      7FDD
ARM GAS  C:\Users\DJESSOU\AppData\Local\Temp\cc3eovRL.s 			page 219


 6366 25f0 D47B6683 		.ascii	"\324{f\203\240{\266z\210\000%\252\355\015\021\302\232"
 6366      A07BB67A 
 6366      880025AA 
 6366      ED0D11C2 
 6366      9A
 6367 2601 F7F1E320 		.ascii	"\367\361\343 -/\365\021J\226\321\261\353\330\236\266"
 6367      2D2FF511 
 6367      4A96D1B1 
 6367      EBD89EB6 
 6368 2611 494F8407 		.ascii	"IO\204\007\327\012X\014;\306\207\\o\346\264\330\270"
 6368      D70A580C 
 6368      3BC6875C 
 6368      6FE6B4D8 
 6368      B8
 6369 2622 73D60B0B 		.ascii	"s\326\013\013\241&\300\253R\210\000\303\343\011\314"
 6369      A126C0AB 
 6369      528800C3 
 6369      E309CC
 6370 2631 8F7FC543 		.ascii	"\217\177\305C\207\236\001^\302\363\212f\264\354}x\026"
 6370      879E015E 
 6370      C2F38A66 
 6370      B4EC7D78 
 6370      16
 6371 2642 20AA1722 		.ascii	" \252\027\"\005&`\012\256\365\364{\252\376\301\267\003"
 6371      0526600A 
 6371      AEF5F47B 
 6371      AAFEC1B7 
 6371      03
 6372 2653 39404395 		.ascii	"9@C\225\233\330\341\314\264c\317h}g\310\020\212Y\266"
 6372      9BD8E1CC 
 6372      B463CF68 
 6372      7D67C810 
 6372      8A59B6
 6373 2666 1E296E47 		.ascii	"\036)nGx\256\327\225\314\"j\3006\316\012+\341#\012("
 6373      78AED795 
 6373      CC226AC0 
 6373      36CE0A2B 
 6373      E1230A28 
 6374 267a 161CEDD2 		.ascii	"\026\034\355\322+}\242\2125\324\322]\210\377\306q6\027"
 6374      2B7DA28A 
 6374      35D4D25D 
 6374      88FFC671 
 6374      3617
 6375 268c 558A213C 		.ascii	"U\212!<\227\320\235Q\207!J\033,\273\236\354\315e\316"
 6375      97D09D51 
 6375      87214A1B 
 6375      2CBB9EEC 
 6375      CD65CE
 6376 269f 003FB062 		.ascii	"\000?\260biw\307\330S1\335`\271\"\214\213\031\231\003"
 6376      6977C7D8 
 6376      5331DD60 
 6376      B9228C8B 
 6376      199903
 6377 26b2 C4D28611 		.ascii	"\304\322\206\021\301\377f\207\272\332=@8\256\235km\270"
 6377      C1FF6687 
 6377      BADA3D40 
 6377      38AE9D6B 
ARM GAS  C:\Users\DJESSOU\AppData\Local\Temp\cc3eovRL.s 			page 220


 6377      6DB8
 6378 26c4 66D04654 		.ascii	"f\320FT\003\007\341tC\032s\216\271c\217\360[\262~\377"
 6378      0307E174 
 6378      431A738E 
 6378      B9638FF0 
 6378      5BB27EFF 
 6379 26d8 02C821D3 		.ascii	"\002\310!\323J\211`\313f\224!\235\266\016%\234\222\022"
 6379      4A8960CB 
 6379      6694219D 
 6379      B60E259C 
 6379      9212
 6380 26ea A025D7C9 		.ascii	"\240%\327\311\234n\035!\201b\253*\321\013\\_\013\221"
 6380      9C6E1D21 
 6380      8162AB2A 
 6380      D10B5C5F 
 6380      0B91
 6381 26fc D875AB70 		.ascii	"\330u\253pVBxF\0179\347h&r\252\203xL\215\366"
 6381      56427846 
 6381      0F39E768 
 6381      2672AA83 
 6381      784C8DF6 
 6382 2710 4B3C0EB4 		.ascii	"K<\016\264f\240\313\366\331\214\225\030\355\000m\345"
 6382      66A0CBF6 
 6382      D98C9518 
 6382      ED006DE5 
 6383 2720 D31A0640 		.ascii	"\323\032\006@s\235\363\002\336\363\303\362\312\206\220"
 6383      739DF302 
 6383      DEF3C3F2 
 6383      CA8690
 6384 272f A4CD51D3 		.ascii	"\244\315Q\323Ym\0040\312\267=2\240]\302\310\367\201"
 6384      596D0430 
 6384      CAB73D32 
 6384      A05DC2C8 
 6384      F781
 6385 2741 AD1F552C 		.ascii	"\255\037U,\377\305\011\030\272\327\221\020\275M\304"
 6385      FFC50918 
 6385      BAD79110 
 6385      BD4DC4
 6386 2750 DBC1A975 		.ascii	"\333\301\251u\000\334\341j+\263yH\245\377\273\265\320"
 6386      00DCE16A 
 6386      2BB37948 
 6386      A5FFBBB5 
 6386      D0
 6387 2761 DB0A129D 		.ascii	"\333\012\022\235 *\352\305\323\004\307\320\275f1\364"
 6387      202AEAC5 
 6387      D304C7D0 
 6387      BD6631F4 
 6388 2771 8AB412E2 		.ascii	"\212\264\022\3420\222\365\010lT\307v\370\375\263\370"
 6388      3092F508 
 6388      6C54C776 
 6388      F8FDB3F8 
 6389 2781 1B6D5E45 		.ascii	"\033m^EU\014n\240N\325(D\306z\203\314,aU\360~|\374\371"
 6389      550C6EA0 
 6389      4ED52844 
 6389      C67A83CC 
 6389      2C6155F0 
 6390 2799 3AB4FEEA 		.ascii	":\264\376\352\017\365LEg\301ykxS-\324v\0329 \207\030"
ARM GAS  C:\Users\DJESSOU\AppData\Local\Temp\cc3eovRL.s 			page 221


 6390      0FF54C45 
 6390      67C1796B 
 6390      78532DD4 
 6390      761A3920 
 6391 27af CD754FFC 		.ascii	"\315uO\374\217\271\000\236\277\204'GP1\360\350\330\024"
 6391      8FB9009E 
 6391      BF842747 
 6391      5031F0E8 
 6391      D814
 6392 27c1 7D275A30 		.ascii	"}'Z0E\372=\353\272\355\3501\353\220\232WePYk\357$_T"
 6392      45FA3DEB 
 6392      BAEDE831 
 6392      EB909A57 
 6392      6550596B 
 6393 27d9 98F310E9 		.ascii	"\230\363\020\3519\217\013\310\327\006\213F\222\304\232"
 6393      398F0BC8 
 6393      D7068B46 
 6393      92C49A
 6394 27e8 E1DE2355 		.ascii	"\341\336#UM\300\311J%\356M\016\210\274\323\203\217\020"
 6394      4DC0C94A 
 6394      25EE4D0E 
 6394      88BCD383 
 6394      8F10
 6395 27fa F7495DD5 		.ascii	"\367I]\325/\236\245CTJ\205\236vl\222:\205\265\311\025"
 6395      2F9EA543 
 6395      544A859E 
 6395      766C923A 
 6395      85B5C915 
 6396 280e F73C1611 		.ascii	"\367<\026\021\312\005\207\307\266\257\271\007\006P$"
 6396      CA0587C7 
 6396      B6AFB907 
 6396      065024
 6397 281d 695A8670 		.ascii	"iZ\206p\241\245Z\221\374u\201\374\277\315\250V\"{3\323"
 6397      A1A55A91 
 6397      FC7581FC 
 6397      BFCDA856 
 6397      227B33D3 
 6398 2831 B62E72CC 		.ascii	"\266.r\314\025\037\226\233\334<\006g%\"\341T\214\233"
 6398      151F969B 
 6398      DC3C0667 
 6398      2522E154 
 6398      8C9B
 6399 2843 048BFD36 		.ascii	"\004\213\3756\307\2612(!\324\377\301K\267\210U\323L"
 6399      C7B13228 
 6399      21D4FFC1 
 6399      4BB78855 
 6399      D34C
 6400 2855 0F62EA0B 		.ascii	"\017b\352\013\025\374\020\346\027\314d\345~]\023\012"
 6400      15FC10E6 
 6400      17CC64E5 
 6400      7E5D130A 
 6401 2865 D2B55EE3 		.ascii	"\322\265^\343\034\254\333\035\330\275H,\016\007\351"
 6401      1CACDB1D 
 6401      D8BD482C 
 6401      0E07E9
 6402 2874 5A4E6E61 		.ascii	"ZNna\002\234G9\355 \310\372\024\272ug_ix \345f&\342"
 6402      029C4739 
ARM GAS  C:\Users\DJESSOU\AppData\Local\Temp\cc3eovRL.s 			page 222


 6402      ED20C8FA 
 6402      14BA7567 
 6402      5F697820 
 6403 288c C37E0EEF 		.ascii	"\303~\016\357\235\231\305\206\316\337 \300\243\3270"
 6403      9D99C586 
 6403      CEDF20C0 
 6403      A3D730
 6404 289b 9FCDF8F2 		.ascii	"\237\315\370\362\206t\320\225\003\226W\2655a7m\206Y"
 6404      8674D095 
 6404      039657B5 
 6404      3561376D 
 6404      8659
 6405 28ad 803C021E 		.ascii	"\200<\002\036+\343\037'\233\274N=\240^\036\227Y\026"
 6405      2BE31F27 
 6405      9BBC4E3D 
 6405      A05E1E97 
 6405      5916
 6406 28bf E4D0BB49 		.ascii	"\344\320\273I\331\335\303$\305\324\324~\226\210Wm\030"
 6406      D9DDC324 
 6406      C5D4D47E 
 6406      9688576D 
 6406      18
 6407 28d0 B02D7A75 		.ascii	"\260-zuIE)3\026\005i\313\000\3416\317\354\307)zo\256"
 6407      49452933 
 6407      160569CB 
 6407      00E136CF 
 6407      ECC7297A 
 6408 28e6 6BB377D2 		.ascii	"k\263w\322w\010Z\341\264 \326\036DS\245\023\207\035"
 6408      77085AE1 
 6408      B420D61E 
 6408      4453A513 
 6408      871D
 6409 28f8 8DE4943E 		.ascii	"\215\344\224>:!\240\225EE\335\333\261\271\330\177Li"
 6409      3A21A095 
 6409      4545DDDB 
 6409      B1B9D87F 
 6409      4C69
 6410 290a C2EF3525 		.ascii	"\302\3575%\206~\263\257\016O\3015\331M\207\250es}5]"
 6410      867EB3AF 
 6410      0E4FC135 
 6410      D94D87A8 
 6410      65737D35 
 6411 291f 5C6B0661 		.ascii	"\\k\006a\334\022\215\375\263@9\211\220\345\367\216."
 6411      DC128DFD 
 6411      B3403989 
 6411      90E5F78E 
 6411      2E
 6412 2930 A372EEB4 		.ascii	"\243r\356\264\327\342\212\243\362\363sBX\243\370t!^"
 6412      D7E28AA3 
 6412      F2F37342 
 6412      58A3F874 
 6412      215E
 6413 2942 0C8AE931 		.ascii	"\014\212\3511H|wM\311-\275\251N_\\\003\313G\371\241"
 6413      487C774D 
 6413      C92DBDA9 
 6413      4E5F5C03 
 6413      CB47F9A1 
ARM GAS  C:\Users\DJESSOU\AppData\Local\Temp\cc3eovRL.s 			page 223


 6414 2956 397EF31B 		.ascii	"9~\363\033\313\223\246\255\210\305\033\256\373\322\033"
 6414      CB93A6AD 
 6414      88C51BAE 
 6414      FBD21B
 6415 2965 16399BB1 		.ascii	"\0269\233\261\214\350[$\337Kx\273q\324\346\341\214|"
 6415      8CE85B24 
 6415      DF4B78BB 
 6415      71D4E6E1 
 6415      8C7C
 6416 2977 7DEFF035 		.ascii	"}\357\3605\340O\340O{-\214\337c\265\240\376\311\031"
 6416      E04FE04F 
 6416      7B2D8CDF 
 6416      63B5A0FE 
 6416      C919
 6417 2989 41FBC54C 		.ascii	"A\373\305L\3130\376\034\332\356?\254P\371\301@\310\221"
 6417      CB30FE1C 
 6417      DAEE3FAC 
 6417      50F9C140 
 6417      C891
 6418 299b DD2AED08 		.ascii	"\335*\355\010\012\240\337\\<_\375\265\352b\320\027\246"
 6418      0AA0DF5C 
 6418      3C5FFDB5 
 6418      EA62D017 
 6418      A6
 6419 29ac 07C92FF0 		.ascii	"\007\311/\360\021*T}\327nv\214\315\013\013\001\334\004"
 6419      112A547D 
 6419      D76E768C 
 6419      CD0B0B01 
 6419      DC04
 6420 29be AC7038DF 		.ascii	"\254p8\337\335\002\015l7.\202\251\212\236\006~<IB\324"
 6420      DD020D6C 
 6420      372E82A9 
 6420      8A9E067E 
 6420      3C4942D4 
 6421 29d2 1B2351C8 		.ascii	"\033#Q\310\210z]so\220\014\327_-w\260\240\375g\353\204"
 6421      887A5D73 
 6421      6F900CD7 
 6421      5F2D77B0 
 6421      A0FD67EB 
 6422 29e7 BB9BB7AC 		.ascii	"\273\233\267\254\322\000\332\254k\010\030\316\325\222"
 6422      D200DAAC 
 6422      6B0818CE 
 6422      D592
 6423 29f5 B0EC9617 		.ascii	"\260\354\226\027\022\023!\253\364pX+\003\252\357\011"
 6423      121321AB 
 6423      F470582B 
 6423      03AAEF09 
 6424 2a05 B61F8505 		.ascii	"\266\037\205\005Uv\350\254\220\033\206\2726\213\263"
 6424      5576E8AC 
 6424      901B86BA 
 6424      368BB3
 6425 2a14 28B411AE 		.ascii	"(\264\021\256\226\236\245k\240\350x\026m\375s\017l\303"
 6425      969EA56B 
 6425      A0E87816 
 6425      6DFD730F 
 6425      6CC3
 6426 2a26 B4F22C50 		.ascii	"\264\362,P\035\334y\203@\317\020\234\247g\015w,[w\365"
ARM GAS  C:\Users\DJESSOU\AppData\Local\Temp\cc3eovRL.s 			page 224


 6426      1DDC7983 
 6426      40CF109C 
 6426      A7670D77 
 6426      2C5B77F5 
 6427 2a3a C95AE842 		.ascii	"\311Z\350B\312\367\323\221\037\312[\355(|\204s\271u"
 6427      CAF7D391 
 6427      1FCA5BED 
 6427      287C8473 
 6427      B975
 6428 2a4c 7BF47881 		.ascii	"{\364x\201\016c\261\017\251d\023\272 \336\226\216\032"
 6428      0E63B10F 
 6428      A96413BA 
 6428      20DE968E 
 6428      1A
 6429 2a5d 934F560D 		.ascii	"\223OV\015\036u\026\307\016b^\221=B\327\341d6\252\024"
 6429      1E7516C7 
 6429      0E625E91 
 6429      3D42D7E1 
 6429      6436AA14 
 6430 2a71 200E6C2D 		.ascii	" \016l-\374\342\200\312\0011.\363l\200\366$rm\212\256"
 6430      FCE280CA 
 6430      01312EF3 
 6430      6C80F624 
 6430      726D8AAE 
 6431 2a85 3456E878 		.ascii	"4V\350x\250rt\021T\264\004.\303\307\240%hF~\202\370"
 6431      A8727411 
 6431      54B4042E 
 6431      C3C7A025 
 6431      68467E82 
 6432 2a9a 8330F394 		.ascii	"\2030\363\224G\257\313\330]\275e\022n\367\375\214V\237"
 6432      47AFCBD8 
 6432      5DBD6512 
 6432      6EF7FD8C 
 6432      569F
 6433 2aac D65B5C9F 		.ascii	"\326[\\\237b\355\346\307!\367\232\003\310\2262\246\253"
 6433      62EDE6C7 
 6433      21F79A03 
 6433      C89632A6 
 6433      AB
 6434 2abd B8D4B674 		.ascii	"\270\324\266t\341\250\306\241K\373@m\032i'1\232\300"
 6434      E1A8C6A1 
 6434      4BFB406D 
 6434      1A692731 
 6434      9AC0
 6435 2acf D638030A 		.ascii	"\3268\003\012\263^\217\012\003V+7 \235\011\274EI\241"
 6435      B35E8F0A 
 6435      03562B37 
 6435      209D09BC 
 6435      4549A1
 6436 2ae2 79F45FC1 		.ascii	"y\364_\301KF\363\354w6)\221}L\026VX$\330X\310\321)r"
 6436      4B46F3EC 
 6436      77362991 
 6436      7D4C1656 
 6436      5824D858 
 6437 2afa 21666C2F 		.ascii	"!fl/,\303\261\020\026\254\311[3|?9\365\372$\213\373"
 6437      2CC3B110 
 6437      16ACC95B 
ARM GAS  C:\Users\DJESSOU\AppData\Local\Temp\cc3eovRL.s 			page 225


 6437      337C3F39 
 6437      F5FA248B 
 6438 2b0f 3D08F9A0 		.ascii	"=\010\371\240\214C\333\227\217\204\252#\376\221\001"
 6438      8C43DB97 
 6438      8F84AA23 
 6438      FE9101
 6439 2b1e BE7EF990 		.ascii	"\276~\371\220x\011\2216\002\267\247\2055\0357\353\273"
 6439      78099136 
 6439      02B7A785 
 6439      351D37EB 
 6439      BB
 6440 2b2f 388440D4 		.ascii	"8\204@\324\022\023\300\362\012\2353\354k\261\257\243"
 6440      1213C0F2 
 6440      0A9D33EC 
 6440      6BB1AFA3 
 6441 2b3f 29876F77 		.ascii	")\207ow\305ha\224\374\002c\273\344X\274\002\351\223"
 6441      C5686194 
 6441      FC0263BB 
 6441      E458BC02 
 6441      E993
 6442 2b51 8A3A9829 		.ascii	"\212:\230)\261L\340\300%\206%E\265\345\001\272V\203"
 6442      B14CE0C0 
 6442      25862545 
 6442      B5E501BA 
 6442      5683
 6443 2b63 0BF2C83A 		.ascii	"\013\362\310:s3\264J\035\353\200\262\252\230\356p\247"
 6443      7333B44A 
 6443      1DEB80B2 
 6443      AA98EE70 
 6443      A7
 6444 2b74 20755112 		.ascii	" uQ\022\021\357C\023/\203\022\000i\316\342~YL\023\265"
 6444      11EF4313 
 6444      2F831200 
 6444      69CEE27E 
 6444      594C13B5 
 6445 2b88 4D663073 		.ascii	"Mf0s\207\257\250e\234\322\017\261|\337\364\356\004\271"
 6445      87AFA865 
 6445      9CD20FB1 
 6445      7CDFF4EE 
 6445      04B9
 6446 2b9a 477303C0 		.ascii	"Gs\003\3001s4b\317\345ei\037d\344\245/\003\037f\030"
 6446      31733462 
 6446      CFE56569 
 6446      1F64E4A5 
 6446      2F031F66 
 6447 2baf CDB7F3DF 		.ascii	"\315\267\363\337\022\325\367[\250gf[P\305\020:x\206"
 6447      12D5F75B 
 6447      A867665B 
 6447      50C5103A 
 6447      7886
 6448 2bc1 5130915C 		.ascii	"Q0\221\\3\237b\265\010f\357E\037\373S8\015\3371G&m\036"
 6448      339F62B5 
 6448      0866EF45 
 6448      1FFB5338 
 6448      0DDF3147 
 6449 2bd8 CAF53031 		.ascii	"\312\36501\241\013DKP\351\335\013#\347\255\0031v\322"
 6449      A10B444B 
ARM GAS  C:\Users\DJESSOU\AppData\Local\Temp\cc3eovRL.s 			page 226


 6449      50E9DD0B 
 6449      23E7AD03 
 6449      3176D2
 6450 2beb CFF7D7EF 		.ascii	"\317\367\327\357j\354\0074\374\023\352H1\301y\343\002"
 6450      6AEC0734 
 6450      FC13EA48 
 6450      31C179E3 
 6450      02
 6451 2bfc 67950966 		.ascii	"g\225\011fA\014\371kI\245\321\336\267a4&\254\256\035"
 6451      410CF96B 
 6451      49A5D1DE 
 6451      B7613426 
 6451      ACAE1D
 6452 2c0f 0A67A22A 		.ascii	"\012g\242*\203\303\276Ys(0w\323\207\200\273\031\030"
 6452      83C3BE59 
 6452      73283077 
 6452      D38780BB 
 6452      1918
 6453 2c21 68EEF60E 		.ascii	"h\356\366\016j\257V\306\351m\253\003n\244\021K\003c"
 6453      6AAF56C6 
 6453      E96DAB03 
 6453      6EA4114B 
 6453      0363
 6454 2c33 594F4E92 		.ascii	"YON\222\3660\347Y\3449\224H/\031.9`\305s9\237\244\230"
 6454      F630E759 
 6454      E4399448 
 6454      2F192E39 
 6454      60C57339 
 6455 2c4a 4EA6E683 		.ascii	"N\246\346\203\033\015\346\356\275\266s\213\024\353#"
 6455      1B0DE6EE 
 6455      BDB6738B 
 6455      14EB23
 6456 2c59 0AE27958 		.ascii	"\012\342yX\237\005\013\236Y\266$\245'y\322\020\205\017"
 6456      9F050B9E 
 6456      59B624A5 
 6456      2779D210 
 6456      850F
 6457 2c6b 114ED3A6 		.ascii	"\021N\323\246\224-\3641\2476\242&[><\370O\350+\016\211"
 6457      942DF431 
 6457      A736A226 
 6457      5B3E3CF8 
 6457      4FE82B0E 
 6458 2c80 E2E78375 		.ascii	"\342\347\203uC\327\320\244\241V\330#\362\257\020\227"
 6458      43D7D0A4 
 6458      A156D823 
 6458      F2AF1097 
 6459 2c90 85EE3F49 		.ascii	"\205\356?I\204\215z\005\345;\334d\265X\216Yf\0116n\216"
 6459      848D7A05 
 6459      E53BDC64 
 6459      B5588E59 
 6459      6609366E 
 6460 2ca5 5E95E128 		.ascii	"^\225\341(m\022\343q{\306V\314!\030\326\237\032\235"
 6460      6D12E371 
 6460      7BC656CC 
 6460      2118D69F 
 6460      1A9D
 6461 2cb7 2AE4E4FF 		.ascii	"*\344\344\377\0033\017\322 \237Rn'\215\035\255\332]"
ARM GAS  C:\Users\DJESSOU\AppData\Local\Temp\cc3eovRL.s 			page 227


 6461      03330FD2 
 6461      209F526E 
 6461      278D1DAD 
 6461      DA5D
 6462 2cc9 7E95DE57 		.ascii	"~\225\336W\240\322\236\327\035\373\233\370\323M(\214"
 6462      A0D29ED7 
 6462      1DFB9BF8 
 6462      D34D288C 
 6463 2cd9 E4C51746 		.ascii	"\344\305\027F\307t\242nS\321\217\371\014\357\365\017"
 6463      C774A26E 
 6463      53D18FF9 
 6463      0CEFF50F 
 6464 2ce9 4EF57772 		.ascii	"N\365wr|`W\265n\263$O\267\253\201\257\306\310\241\260"
 6464      7C6057B5 
 6464      6EB3244F 
 6464      B7AB81AF 
 6464      C6C8A1B0 
 6465 2cfd 93C4E48A 		.ascii	"\223\304\344\212\213\301\341\255P\361\312\232\276\304"
 6465      8BC1E1AD 
 6465      50F1CA9A 
 6465      BEC4
 6466 2d0b 014A3BF7 		.ascii	"\001J;\367\364\356\0278\340\321`V\323\232tH\017\303"
 6466      F4EE1738 
 6466      E0D16056 
 6466      D39A7448 
 6466      0FC3
 6467 2d1d 5FD47F6A 		.ascii	"_\324\177j^\317sZ\353\0015\360\304\343\234|\256\016"
 6467      5ECF735A 
 6467      EB0135F0 
 6467      C4E39C7C 
 6467      AE0E
 6468 2d2f 98FBB31E 		.ascii	"\230\373\263\036\302\364pC\031\222\273\263U\274\247"
 6468      C2F47043 
 6468      1992BBB3 
 6468      55BCA7
 6469 2d3e 4F1F9C94 		.ascii	"O\037\234\224E\360\377\354\240\004\255\034\246&\241"
 6469      45F0FFEC 
 6469      A004AD1C 
 6469      A626A1
 6470 2d4d 59ADCE21 		.ascii	"Y\255\316!\347Y\011XRn\306V\324\253$>\376\305x\004\367"
 6470      E7590958 
 6470      526EC656 
 6470      D4AB243E 
 6470      FEC57804 
 6471 2d62 05F25419 		.ascii	"\005\362T\031\030\341\004\261\266#\015\336\302\177("
 6471      18E104B1 
 6471      B6230DDE 
 6471      C27F28
 6472 2d71 E98ABCF2 		.ascii	"\351\212\274\362!\017j\266\235\352\266\303\017\2640"
 6472      210F6AB6 
 6472      9DEAB6C3 
 6472      0FB430
 6473 2d80 90E98B1E 		.ascii	"\220\351\213\036\2774\204\307C\332\217\323\253t\210"
 6473      BF3484C7 
 6473      43DA8FD3 
 6473      AB7488
 6474 2d8f 7685CC19 		.ascii	"v\205\314\031\347\304\336&\310x|5\262\"\206D\331C\234"
ARM GAS  C:\Users\DJESSOU\AppData\Local\Temp\cc3eovRL.s 			page 228


 6474      E7C4DE26 
 6474      C8787C35 
 6474      B2228644 
 6474      D9439C
 6475 2da2 4D208819 		.ascii	"M \210\031K\321\230\264[\234\337B\211\311:\377\355\014"
 6475      4BD198B4 
 6475      5B9CDF42 
 6475      89C93AFF 
 6475      ED0C
 6476 2db4 C58F7977 		.ascii	"\305\217yw\033\350J8@\255\353\024\331\204q\220\264#"
 6476      1BE84A38 
 6476      40ADEB14 
 6476      D9847190 
 6476      B423
 6477 2dc6 77C8BFB9 		.ascii	"w\310\277\271\253\316o-0\336\306\\\214\222\241\343\211"
 6477      ABCE6F2D 
 6477      30DEC65C 
 6477      8C92A1E3 
 6477      89
 6478 2dd7 A03BB584 		.ascii	"\240;\265\204\317\257Q\020\000\023(Jp\257\335\354m\241"
 6478      CFAF5110 
 6478      0013284A 
 6478      70AFDDEC 
 6478      6DA1
 6479 2de9 2C041DCB 		.ascii	",\004\035\313H\352\267\013Jf\021\036\204N\230\337\333"
 6479      48EAB70B 
 6479      4A66111E 
 6479      844E98DF 
 6479      DB
 6480 2dfa 700BDD06 		.ascii	"p\013\335\006\015\322\342\023n\005\322\210\334\223\307"
 6480      0DD2E213 
 6480      6E05D288 
 6480      DC93C7
 6481 2e09 9F9BEF10 		.ascii	"\237\233\357\020\352>\013;\026i\302\024\244N\254\377"
 6481      EA3E0B3B 
 6481      1669C214 
 6481      A44EACFF 
 6482 2e19 AF7D9EA8 		.ascii	"\257}\236\250\2503@)\355\2056f\021\332\001\016[G\350"
 6482      A8334029 
 6482      ED853666 
 6482      11DA010E 
 6482      5B47E8
 6483 2e2c 27EE7F90 		.ascii	"'\356\177\220%\231\016\207\3440\271\210\245\277\360"
 6483      25990E87 
 6483      E430B988 
 6483      A5BFF0
 6484 2e3b 00355F77 		.ascii	"\0005_w\3170e\253+\365\232\354\036u\362\033F\223F\357"
 6484      CF3065AB 
 6484      2BF59AEC 
 6484      1E75F21B 
 6484      469346EF 
 6485 2e4f CCF88684 		.ascii	"\314\370\206\204~\322\343\213\037\264D\216u\004\237"
 6485      7ED2E38B 
 6485      1FB4448E 
 6485      75049F
 6486 2e5e 88C23DDE 		.ascii	"\210\302=\336+\304\265j\012\363\352\367\260;\221\324"
 6486      2BC4B56A 
ARM GAS  C:\Users\DJESSOU\AppData\Local\Temp\cc3eovRL.s 			page 229


 6486      0AF3EAF7 
 6486      B03B91D4 
 6487 2e6e DF0AC2CB 		.ascii	"\337\012\302\313\244\037\234H\234\315\242'g\313s\201"
 6487      A41F9C48 
 6487      9CCDA227 
 6487      67CB7381 
 6488 2e7e C4612606 		.ascii	"\304a&\0066\260\022\302\335\017/+G\255E\254\023\005"
 6488      36B012C2 
 6488      DD0F2F2B 
 6488      47AD45AC 
 6488      1305
 6489 2e90 9427E4AE 		.ascii	"\224'\344\256\241\365\312{\310\024\223J\205V\034I\015"
 6489      A1F5CA7B 
 6489      C814934A 
 6489      85561C49 
 6489      0D
 6490 2ea1 2E3909CD 		.ascii	".9\011\315\325{f\317\206\215\225\224,\326\244\203\267"
 6490      D57B66CF 
 6490      868D9594 
 6490      2CD6A483 
 6490      B7
 6491 2eb2 10E63AF0 		.ascii	"\020\346:\360\013\375\273\247@\243J\001\262A\263_\332"
 6491      0BFDBBA7 
 6491      40A34A01 
 6491      B241B35F 
 6491      DA
 6492 2ec3 50F7F89E 		.ascii	"P\367\370\236f\243\377\000\30792,k\001_\347T\341\205"
 6492      66A3FF00 
 6492      C739322C 
 6492      6B015FE7 
 6492      54E185
 6493 2ed6 94E301F4 		.ascii	"\224\343\001\364\245\002\240\257k\267"
 6493      A502A0AF 
 6493      6BB7
 6494 2ee0 7A848110 		.ascii	"z\204\201\020\256\002\3116\017\367\264\237\233\210\365"
 6494      AE02C936 
 6494      0FF7B49F 
 6494      9B88F5
 6495 2eef CBEEA64A 		.ascii	"\313\356\246J\247}\223m\375\177\223uF\314\231\357e\324"
 6495      A77D936D 
 6495      FD7F9375 
 6495      46CC99EF 
 6495      65D4
 6496 2f01 CEB6EB6F 		.ascii	"\316\266\353o\327*M\373\033uT\333[\225\362\035\222\347"
 6496      D72A4DFB 
 6496      1B7554DB 
 6496      5B95F21D 
 6496      92E7
 6497 2f13 596C407D 		.ascii	"Yl@}\024\202\351!\347\207\362\327\355t\342\344\211\261"
 6497      1482E921 
 6497      E787F2D7 
 6497      ED74E2E4 
 6497      89B1
 6498 2f25 28B4EE6A 		.ascii	"(\264\356jAwq\342\315\006V4\001B\234\243}\207\360\274"
 6498      417771E2 
 6498      CD065634 
 6498      01429CA3 
ARM GAS  C:\Users\DJESSOU\AppData\Local\Temp\cc3eovRL.s 			page 230


 6498      7D87F0BC 
 6499 2f39 2FAF7413 		.ascii	"/\257t\023}2\321L\370\2329x\030\0067\305\213\201\035"
 6499      7D32D14C 
 6499      F89A3978 
 6499      180637C5 
 6499      8B811D
 6500 2f4c BA7788FF 		.ascii	"\272w\210\377t\276\010\256\210\321 v\317\352H\361\246"
 6500      74BE08AE 
 6500      88D12076 
 6500      CFEA48F1 
 6500      A6
 6501 2f5d 2A4C9E7C 		.ascii	"*L\236|\031t\345\205\243?\211\032o\000\032\244m\005"
 6501      1974E585 
 6501      A33F891A 
 6501      6F001AA4 
 6501      6D05
 6502 2f6f B4F4DE76 		.ascii	"\264\364\336vdI\031\222\275\037\36148\373^,\027^Z\357"
 6502      64491992 
 6502      BD1FF134 
 6502      38FB5E2C 
 6502      175E5AEF 
 6503 2f83 EC7224B8 		.ascii	"\354r$\270\267\3560\004\215\000\226=T\256\257\020\343"
 6503      B7EE3004 
 6503      8D00963D 
 6503      54AEAF10 
 6503      E3
 6504 2f94 44C8FBE8 		.ascii	"D\310\373\350W\225T.\177\356\227\230\277_R\206-\261"
 6504      5795542E 
 6504      7FEE9798 
 6504      BF5F5286 
 6504      2DB1
 6505 2fa6 DCE24ED7 		.ascii	"\334\342N\327{\031\375/\355[}\200\301\237\356\030\327"
 6505      7B19FD2F 
 6505      ED5B7D80 
 6505      C19FEE18 
 6505      D7
 6506 2fb7 C60DAB12 		.ascii	"\306\015\253\022\303\227J+\266&\241\241FcMs\010\320"
 6506      C3974A2B 
 6506      B626A1A1 
 6506      46634D73 
 6506      08D0
 6507 2fc9 11E04662 		.ascii	"\021\340Fb\011]\315\272W\021\026\255TN\266\023\353,"
 6507      095DCDBA 
 6507      571116AD 
 6507      544EB613 
 6507      EB2C
 6508 2fdb 953B4C67 		.ascii	"\225;Lg\312 \322\005s\037\356w)\236\367\245<Y\370\215"
 6508      CA20D205 
 6508      731FEE77 
 6508      299EF7A5 
 6508      3C59F88D 
 6509 2fef 4D953111 		.ascii	"M\2251\021 4\210_8 \302\232yV;\334O\2416\232n\206C\\"
 6509      2034885F 
 6509      3820C29A 
 6509      79563BDC 
 6509      4FA1369A 
 6510 3007 E97E4E2E 		.ascii	"\351~N.\277\247\012qq\"\2277\206\2459\201\331\222\327"
ARM GAS  C:\Users\DJESSOU\AppData\Local\Temp\cc3eovRL.s 			page 231


 6510      BFA70A71 
 6510      71229737 
 6510      86A53981 
 6510      D992D7
 6511 301a B4E5A13C 		.ascii	"\264\345\241</\351\342\000\365\244\203\266\030\377\206"
 6511      2FE9E200 
 6511      F5A483B6 
 6511      18FF86
 6512 3029 5332B3C4 		.ascii	"S2\263\304\265m.\\\376=t8sHK\227\227.TH\270_\204\005"
 6512      B56D2E5C 
 6512      FE3D7438 
 6512      73484B97 
 6512      972E5448 
 6513 3041 D285FE81 		.ascii	"\322\205\376\201\3477\202\024]EL\271\245=\222\302\003"
 6513      E7378214 
 6513      5D454CB9 
 6513      A53D92C2 
 6513      03
 6514 3052 5E8D248C 		.ascii	"^\215$\214\026\211\215\337\015\240U\322\020m\304j8\217"
 6514      16898DDF 
 6514      0DA055D2 
 6514      106DC46A 
 6514      388F
 6515 3064 1DA49FE7 		.ascii	"\035\244\237\347\212\251\337\251*I\342\273\013\243\022"
 6515      8AA9DFA9 
 6515      2A49E2BB 
 6515      0BA312
 6516 3073 355D4280 		.ascii	"5]B\200:\025\266X\212\035\252d,\242\034\355\327\352"
 6516      3A15B658 
 6516      8A1DAA64 
 6516      2CA21CED 
 6516      D7EA
 6517 3085 9A02F213 		.ascii	"\232\002\362\023\256\375\377\000XgY\266\334\226\302"
 6517      AEFDFF00 
 6517      586759B6 
 6517      DC96C2
 6518 3094 A60038F4 		.ascii	"\246\0008\364\234\3019\265\314\264\262\2317\004\004"
 6518      9CC139B5 
 6518      CCB4B299 
 6518      370404
 6519 30a3 DC39EAF9 		.ascii	"\3349\352\371\223\246z5%\363\367\243\203YI\013h:\241"
 6519      93A67A35 
 6519      25F3F7A3 
 6519      8359490B 
 6519      683AA1
 6520 30b6 2575AAE4 		.ascii	"%u\252\344\010\212}\373\"[\371\020\260\331sE\034#IG"
 6520      088A7DFB 
 6520      225BF910 
 6520      B0D97345 
 6520      1C234947 
 6521 30ca C0F0060B 		.ascii	"\300\360\006\013\263\034td#Gy\347\370z\302\362<t1e\274"
 6521      B31C7464 
 6521      234779E7 
 6521      F87AC2F2 
 6521      3C743165 
 6522 30df 8B34AFF3 		.ascii	"\2134\257\363b\332}\370TS(\243\2701\337X$\353\322\370"
 6522      62DA7DF8 
ARM GAS  C:\Users\DJESSOU\AppData\Local\Temp\cc3eovRL.s 			page 232


 6522      545328A3 
 6522      B831DF58 
 6522      24EBD2F8 
 6523 30f3 9171D413 		.ascii	"\221q\324\023S2\235\034\205\016\012\002\256\023s\364"
 6523      53329D1C 
 6523      850E0A02 
 6523      AE1373F4 
 6524 3103 35445D3D 		.ascii	"5D]=\030\255(\204G\026\025\377\332j-\347\236\361X~6"
 6524      18AD2884 
 6524      471615FF 
 6524      DA6A2DE7 
 6524      9EF1587E 
 6525 3118 486666DB 		.ascii	"Hff\333\225\334\001}Vs,h;lY\366\245\361\201-\020\012"
 6525      95DC017D 
 6525      56732C68 
 6525      3B6C59F6 
 6525      A5F1812D 
 6526 312e A8B05C09 		.ascii	"\250\260\\\011\216\224u7\360MR\004GJ\020\237\260\330"
 6526      8E947537 
 6526      F04D5204 
 6526      474A109F 
 6526      B0D8
 6527 3140 58D382C3 		.ascii	"X\323\202\303Tz\215[\207\201\022\310\363\364e\341Q\314"
 6527      547A8D5B 
 6527      878112C8 
 6527      F3F465E1 
 6527      51CC
 6528 3152 A2077276 		.ascii	"\242\007rv\312\210\200L\366hA\237R\277~MfS\253\320\373"
 6528      CA88804C 
 6528      F668419F 
 6528      52BF7E4D 
 6528      6653ABD0 
 6529 3167 6A3E9D00 		.ascii	"j>\235\000\331P>\206\342v\345V\211\003\030\263`&5G4"
 6529      D9503E86 
 6529      E276E556 
 6529      890318B3 
 6529      60263547 
 6530 317c 844C11D3 		.ascii	"\204L\021\323\310\342\000\005\201-\252\003E,&\323R\237"
 6530      C8E20005 
 6530      812DAA03 
 6530      452C26D3 
 6530      529F
 6531 318e 20183E50 		.ascii	" \030>P\306!\275T\324:\273\015\177\366rB\336\034\000"
 6531      C621BD54 
 6531      D43ABB0D 
 6531      7FF67242 
 6531      DE1C00
 6532 31a1 EA79E7AE 		.ascii	"\352y\347\256?\330\255\3162\216\247h\222\206|\252S\262"
 6532      3FD8ADCE 
 6532      328EA768 
 6532      92867CAA 
 6532      53B2
 6533 31b3 D9B72EF2 		.ascii	"\331\267.\362\205\263\206\035\035\222\323\373\0042\241"
 6533      85B3861D 
 6533      1D92D3FB 
 6533      0432A1
 6534 31c2 AE09812B 		.ascii	"\256\011\201+K\003u\223\366\313\326\270\250\202C_\254"
ARM GAS  C:\Users\DJESSOU\AppData\Local\Temp\cc3eovRL.s 			page 233


 6534      4B037593 
 6534      F6CBD6B8 
 6534      A882435F 
 6534      AC
 6535 31d3 1A4902BC 		.ascii	"\032I\002\274\202O\352\273\367X\335\221/\354\356\271"
 6535      824FEABB 
 6535      F758DD91 
 6535      2FECEEB9 
 6536 31e3 DEAB051A 		.ascii	"\336\253\005\032\203X=)\220\330\321\350=~,\341\026\327"
 6536      83583D29 
 6536      90D8D1E8 
 6536      3D7E2CE1 
 6536      16D7
 6537 31f5 003A7457 		.ascii	"\000:tW]\372\333\244\307\030\371\007#\345\241\025\037"
 6537      5DFADBA4 
 6537      C718F907 
 6537      23E5A115 
 6537      1F
 6538 3206 BE311B7A 		.ascii	"\2761\033z\020\367\313\335\2467\202De@\323|\242\303"
 6538      10F7CBDD 
 6538      A6378244 
 6538      6540D37C 
 6538      A2C3
 6539 3218 544988ED 		.ascii	"TI\210\355\275l\264\305VE\314\230\325\337\261\265\227"
 6539      BD6CB4C5 
 6539      5645CC98 
 6539      D5DFB1B5 
 6539      97
 6540 3229 46040918 		.ascii	"F\004\011\030\344\315\327\354&0\246[=\313\325\030-M"
 6540      E4CDD7EC 
 6540      2630A65B 
 6540      3DCBD518 
 6540      2D4D
 6541 323b 7C6CC195 		.ascii	"|l\301\225\012\3337\251\356\307;\3231\231\000C\352\272"
 6541      0ADB37A9 
 6541      EEC73BD3 
 6541      31990043 
 6541      EABA
 6542 324d 02D14481 		.ascii	"\002\321D\201\3746(\2761\256\273\320%\343\354\266v\200"
 6542      FC3628BE 
 6542      31AEBBD0 
 6542      25E3ECB6 
 6542      7680
 6543 325f 9A591475 		.ascii	"\232Y\024u3[\336<\031\342\312|\307 `\344\211\006d\227"
 6543      335BDE3C 
 6543      19E2CA7C 
 6543      C72060E4 
 6543      89066497 
 6544 3273 10C91BED 		.ascii	"\020\311\033\355\037\"\344O8\226$\221\203#\177F\037"
 6544      1F22E44F 
 6544      38962491 
 6544      83237F46 
 6544      1F
 6545 3284 1FC68796 		.ascii	"\037\306\207\226\232d\313\362/\255\360rG\255%\253\265"
 6545      9A64CBF2 
 6545      2FADF072 
 6545      47AD25AB 
ARM GAS  C:\Users\DJESSOU\AppData\Local\Temp\cc3eovRL.s 			page 234


 6545      B5
 6546 3295 B4A068D3 		.ascii	"\264\240h\323n\361U\351\251\333,\352\323\276$\211\200"
 6546      6EF155E9 
 6546      A9DB2CEA 
 6546      D3BE2489 
 6546      80
 6547 32a6 B544F500 		.ascii	"\265D\365\000\332\307\200\323\352\267d:\244;T\277-\304"
 6547      DAC780D3 
 6547      EAB7643A 
 6547      A43B54BF 
 6547      2DC4
 6548 32b8 D35F22C1 		.ascii	"\323_\"\301Fvj\232di\347\026l\021\220\36580@\276\210"
 6548      46766A9A 
 6548      6469E716 
 6548      6C1190F5 
 6548      383040BE 
 6549 32cd B4795579 		.ascii	"\264yUy\371\217\314^\011a\275\335?\351\363,\000X\332"
 6549      F98FCC5E 
 6549      0961BDDD 
 6549      3FE9F32C 
 6549      0058DA
 6550 32e0 AE80EC69 		.ascii	"\256\200\354i\335\232\"\356\002\222\377\216\375\255"
 6550      DD9A22EE 
 6550      0292FF8E 
 6550      FDAD
 6551 32ee 3377BE18 		.ascii	"3w\276\030]-U\3131\335vw\360D\012vT\033\034\015UE\202"
 6551      5D2D55CB 
 6551      31DD7677 
 6551      F0440A76 
 6551      541B1C0D 
 6552 3305 79789495 		.ascii	"yx\224\2257\272\033Y\320\014p1/6\364\372\341\314\265"
 6552      37BA1B59 
 6552      D00C7031 
 6552      2F36F4FA 
 6552      E1CCB5
 6553 3318 A95EF2AE 		.ascii	"\251^\362\256\322\304\253\3138z\223\323\032\377\346"
 6553      D2C4ABCB 
 6553      387A93D3 
 6553      1AFFE6
 6554 3327 B02565E4 		.ascii	"\260%e\344\301\273=1\320\346\306\206\024\371`\216\005"
 6554      C1BB3D31 
 6554      D0E6C686 
 6554      14F9608E 
 6554      05
 6555 3338 50CA75D9 		.ascii	"P\312u\331\243\210\003<\364\2653Y\331\315\262\355kS"
 6555      A388033C 
 6555      F4B53359 
 6555      D9CDB2ED 
 6555      6B53
 6556 334a B41DCEF1 		.ascii	"\264\035\316\361c\363\242\226\361}\321\341\247p\236"
 6556      63F3A296 
 6556      F17DD1E1 
 6556      A7709E
 6557 3359 282A43E0 		.ascii	"(*C\340\274\241@\025\212\177\027\365u\254\313\370^\326"
 6557      BCA14015 
 6557      8A7F17F5 
 6557      75ACCBF8 
ARM GAS  C:\Users\DJESSOU\AppData\Local\Temp\cc3eovRL.s 			page 235


 6557      5ED6
 6558 336b 29F9166C 		.ascii	")\371\026l6\315]\021M\365\247f6\301\223\202\024UtR\317"
 6558      36CD5D11 
 6558      4DF5A766 
 6558      36C19382 
 6558      14557452 
 6559 3380 5870269F 		.ascii	"Xp&\237\325\263\316|\336\006j\362\236\265\246V\022d"
 6559      D5B3CE7C 
 6559      DE066AF2 
 6559      9EB5A656 
 6559      1264
 6560 3392 964F5C41 		.ascii	"\226O\\A\211*6\001\014\320\260Bn\350R\303o\021\372t"
 6560      892A3601 
 6560      0CD0B042 
 6560      6EE852C3 
 6560      6F11FA74 
 6561 33a6 93DEED1C 		.ascii	"\223\336\355\034\332|\217\033\345l\336\024\021\037\234"
 6561      DA7C8F1B 
 6561      E56CDE14 
 6561      111F9C
 6562 33b5 57CB75B5 		.ascii	"W\313u\265\361\006D\015`\005|\307\216\236\347~>h\306"
 6562      F106440D 
 6562      60057CC7 
 6562      8E9EE77E 
 6562      3E68C6
 6563 33c8 B511A734 		.ascii	"\265\021\2474\237\341\013\301D\341B\307\260h\237\241"
 6563      9FE10BC1 
 6563      44E142C7 
 6563      B0689FA1 
 6564 33d8 5DFCE89D 		.ascii	"]\374\350\235:>\335>Q\033+W\331\327\327\177e>\022r\203"
 6564      3A3EDD3E 
 6564      511B2B57 
 6564      D9D7D77F 
 6564      653E1272 
 6565 33ed 9FD5F15E 		.ascii	"\237\325\361^\030\235\026\032WQ\365X\035B$\274S\274"
 6565      189D161A 
 6565      5751F558 
 6565      1D4224BC 
 6565      53BC
 6566 33ff 892E97F2 		.ascii	"\211.\227\362\330\352?\343\345DR\260\"\270\241-\240"
 6566      D8EA3FE3 
 6566      E54452B0 
 6566      22B8A12D 
 6566      A0
 6567 3410 65D06ED6 		.ascii	"e\320n\326\342\245h\317\2114N\026\207\3577|?\037\016"
 6567      E2A568CF 
 6567      89344E16 
 6567      87EF377C 
 6567      3F1F0E
 6568 3423 4703844C 		.ascii	"G\003\204L\263\267\3025\301\177\374\3574\326\313\032"
 6568      B3B7C235 
 6568      C17FFCEF 
 6568      34D6CB1A 
 6569 3433 57D62F34 		.ascii	"W\326/4\317\240p\376\343\265n\377\200\367\317S\241\014"
 6569      CFA070FE 
 6569      E3B56EFF 
 6569      80F7CF53 
ARM GAS  C:\Users\DJESSOU\AppData\Local\Temp\cc3eovRL.s 			page 236


 6569      A10C
 6570 3445 8D0213FD 		.ascii	"\215\002\023\375nN8\0010A\305\331\015\343\334i5\305"
 6570      6E4E3801 
 6570      3041C5D9 
 6570      0DE3DC69 
 6570      35C5
 6571 3457 1A972EEE 		.ascii	"\032\227.\356.\221\267M\241\203\3201\230\215qZ`\330"
 6571      2E91B74D 
 6571      A183D031 
 6571      988D715A 
 6571      60D8
 6572 3469 A64C481D 		.ascii	"\246LH\035\351I\272\004,u\3633\255\032u\346`\032\004"
 6572      E949BA04 
 6572      2C75F333 
 6572      AD1A75E6 
 6572      601A04
 6573 347c 25693421 		.ascii	"%i4!-|\2739\031\251&q\014({\267Yr\3622\217-\355C\302"
 6573      2D7CBB39 
 6573      19A92671 
 6573      0C287BB7 
 6573      5972F232 
 6574 3495 FDFAD811 		.ascii	"\375\372\330\021\303\202\360\\I\366\325\3434\244\375"
 6574      C382F05C 
 6574      49F6D5E3 
 6574      34A4FD
 6575 34a4 CDCDC921 		.ascii	"\315\315\311!\272^\230\377\354`\305\305\367A\001\243"
 6575      BA5E98FF 
 6575      EC60C5C5 
 6575      F74101A3 
 6576 34b4 58F83F28 		.ascii	"X\370?(0\252\361-\312\214%/\234\203\210\340\000\332"
 6576      30AAF12D 
 6576      CA8C252F 
 6576      9C8388E0 
 6576      00DA
 6577 34c6 F30C5FBA 		.ascii	"\363\014_\272*\270\003\014\022\231Q#\026/\003\010V\332"
 6577      2AB8030C 
 6577      12995123 
 6577      162F0308 
 6577      56DA
 6578 34d8 FC89A67C 		.ascii	"\374\211\246|\021uG.\2336\272\225G\2611\014\244\011"
 6578      1175472E 
 6578      9B36BA95 
 6578      47B1310C 
 6578      A409
 6579 34ea 13DA4DD1 		.ascii	"\023\332M\321\275\011\350\242\315h\370!\005\370\377"
 6579      BD09E8A2 
 6579      CD68F821 
 6579      05F8FF
 6580 34f9 903C0E88 		.ascii	"\220<\016\210\213\207\237O\225j-S\242\373\005%yv\030"
 6580      8B879F4F 
 6580      956A2D53 
 6580      A2FB0525 
 6580      797618
 6581 350c 7F28F328 		.ascii	"\177(\363(\242\206\262\243\226\222\355\313\245\253\214"
 6581      A286B2A3 
 6581      9692EDCB 
 6581      A5AB8C
ARM GAS  C:\Users\DJESSOU\AppData\Local\Temp\cc3eovRL.s 			page 237


 6582 351b 0DF9FBDA 		.ascii	"\015\371\373\332\350\330\332\362;\241\255-\232\357\260"
 6582      E8D8DAF2 
 6582      3BA1AD2D 
 6582      9AEFB0
 6583 352a 37C5A1FA 		.ascii	"7\305\241\372\327\213%\344h\257Y\337q\003\373O{\\\021"
 6583      D78B25E4 
 6583      68AF59DF 
 6583      7103FB4F 
 6583      7B5C11
 6584 353d A655634C 		.ascii	"\246UcL\355\262\003\021\272\212 \2420\243\203C\335o"
 6584      EDB20311 
 6584      BA8A20A2 
 6584      30A38343 
 6584      DD6F
 6585 354f 96A7ECA6 		.ascii	"\226\247\354\246\311$\024\374_nv\227X\202e\305\375\350"
 6585      C92414FC 
 6585      5F6E7697 
 6585      588265C5 
 6585      FDE8
 6586 3561 5FBF7AB2 		.ascii	"_\277z\262Mf\015\216\306\206\204\361\245\361\242\311"
 6586      4D660D8E 
 6586      C68684F1 
 6586      A5F1A2C9 
 6587 3571 862D1980 		.ascii	"\206-\031\200\3437\012\017\030\027\004\201\037\032\245"
 6587      E3370A0F 
 6587      18170481 
 6587      1F1AA5
 6588 3580 D4BD508D 		.ascii	"\324\275P\215\335\335u\276\036\273:Z\271b\036i\231z"
 6588      DDDD75BE 
 6588      1EBB3A5A 
 6588      B9621E69 
 6588      997A
 6589 3592 9C98D239 		.ascii	"\234\230\3229jO\207\206\260n\026\032y*P\023\004\341"
 6589      6A4F8786 
 6589      B06E161A 
 6589      792A5013 
 6589      04E1
 6590 35a4 CA8BC01E 		.ascii	"\312\213\300\036\351\256\201\003\324\010\232\303aK\312"
 6590      E9AE8103 
 6590      D4089AC3 
 6590      614BCA
 6591 35b3 11240715 		.ascii	"\021$\007\025\260W\\`\034\300\262\254\007\215t@s`\005"
 6591      B0575C60 
 6591      1CC0B2AC 
 6591      078D7440 
 6591      736005
 6592 35c6 A7920917 		.ascii	"\247\222\011\027\201\247Eg\266\216\014\237A\206hE\345"
 6592      81A74567 
 6592      B68E0C9F 
 6592      41866845 
 6592      E5
 6593 35d7 7089B915 		.ascii	"p\211\271\025\341\357\021zW\354}}\266\247\226\371\205"
 6593      E1EF117A 
 6593      57EC7D7D 
 6593      B6A796F9 
 6593      85
 6594 35e8 ECE98C08 		.ascii	"\354\351\214\010\011\304,\266\204\202\227\313\337?("
ARM GAS  C:\Users\DJESSOU\AppData\Local\Temp\cc3eovRL.s 			page 238


 6594      09C42CB6 
 6594      848297CB 
 6594      DF3F28
 6595 35f7 968B1D1E 		.ascii	"\226\213\035\036\356\331\207Y\300\"W\340\355\012\224"
 6595      EED98759 
 6595      C02257E0 
 6595      ED0A94
 6596 3606 79C4807C 		.ascii	"y\304\200|P\023\006\212\375\351c]\274\237\033T\242\322"
 6596      5013068A 
 6596      FDE9635D 
 6596      BC9F1B54 
 6596      A2D2
 6597 3618 76150E4E 		.ascii	"v\025\016N\201\311\332\310\332\335\220\273d\002MDn!"
 6597      81C9DAC8 
 6597      DADD90BB 
 6597      64024D44 
 6597      6E21
 6598 362a BD8BF2BB 		.ascii	"\275\213\362\273\014\011\0125\227\207\273u0\324a\211"
 6598      0C090A35 
 6598      9787BB75 
 6598      30D46189 
 6599 363a 3589335A 		.ascii	"5\2113ZF\017\363\267d\262U\334[\230\347\217\360\310"
 6599      460FF3B7 
 6599      64B255DC 
 6599      5B98E78F 
 6599      F0C8
 6600 364c 488B8886 		.ascii	"H\213\210\206]\005\226_\356sZ|\303\311k\311\277\377"
 6600      5D05965F 
 6600      EE735A7C 
 6600      C3C96BC9 
 6600      BFFF
 6601 365e 247A9BB2 		.ascii	"$z\233\262W\010\261\251\372i\234?.\246-\234\375%\332"
 6601      5708B1A9 
 6601      FA699C3F 
 6601      2EA62D9C 
 6601      FD25DA
 6602 3671 5304FB38 		.ascii	"S\004\3738\002V\037\330\233\262\306\367p-/\304\214\345"
 6602      02561FD8 
 6602      9BB2C6F7 
 6602      702D2FC4 
 6602      8CE5
 6603 3683 1D2F8FE2 		.ascii	"\035/\217\342\027\323P\322\303\237xh0\233\342\226\033"
 6603      17D350D2 
 6603      C39F7868 
 6603      309BE296 
 6603      1B
 6604 3694 EEF6E47A 		.ascii	"\356\366\344z\031%.\257\001\260\333U\223\353\316\212"
 6604      19252EAF 
 6604      01B0DB55 
 6604      93EBCE8A 
 6605 36a4 2145B3D0 		.ascii	"!E\263\320n\000\356k-Y\226\325"
 6605      6E00EE6B 
 6605      2D5996D5 
 6606 36b0 918B89C2 		.ascii	"\221\213\211\302\373X\021/\270K\264\323''h\207AE\255"
 6606      FB58112F 
 6606      B84BB4D3 
 6606      27276887 
ARM GAS  C:\Users\DJESSOU\AppData\Local\Temp\cc3eovRL.s 			page 239


 6606      4145AD
 6607 36c3 CC00258E 		.ascii	"\314\000%\216,%\375I\334q\322\212\324\343\274\3610;"
 6607      2C25FD49 
 6607      DC71D28A 
 6607      D4E3BCF1 
 6607      303B
 6608 36d5 9762A49E 		.ascii	"\227b\244\236\247\004\350\354\267\241(U\031\365\212"
 6608      A704E8EC 
 6608      B7A12855 
 6608      19F58A
 6609 36e4 BA83FFB1 		.ascii	"\272\203\377\261\265\240\333\201\242\026\012w\367UP"
 6609      B5A0DB81 
 6609      A2160A77 
 6609      F75550
 6610 36f3 80722590 		.ascii	"\200r%\220\221\346x\017T\263\204\227C3w\224\220\033"
 6610      91E6780F 
 6610      54B38497 
 6610      43337794 
 6610      901B
 6611 3705 432B9296 		.ascii	"C+\222\226\325\267O\3030\012\204,\320Sr\225\326\023"
 6611      D5B74FC3 
 6611      300A842C 
 6611      D0537295 
 6611      D613
 6612 3717 35AFCBCB 		.ascii	"5\257\313\313b\375\265\0278+\023\333:\325)\236\243\344"
 6612      62FDB517 
 6612      382B13DB 
 6612      3AD5299E 
 6612      A3E4
 6613 3729 499CF1B8 		.ascii	"I\234\361\270\255\242\334;Gi\005q\2610S7\377\2136\023"
 6613      ADA2DC3B 
 6613      47690571 
 6613      B1305337 
 6613      FF8B3613 
 6614 373d 4BD6FA52 		.ascii	"K\326\372R\203\317-\264\306\255\363\222\226z\270\235"
 6614      83CF2DB4 
 6614      C6ADF392 
 6614      967AB89D 
 6615 374d D691A30D 		.ascii	"\326\221\243\0157\321\203\004\273{{\346|\357\357F:\277"
 6615      37D18304 
 6615      BB7B7BE6 
 6615      7CEFEF46 
 6615      3ABF
 6616 375f 2B63F866 		.ascii	"+c\370f*.\3160l\333\035U\"\035\376\031jI\001\352&v("
 6616      2A2ECE30 
 6616      6CDB1D55 
 6616      221DFE19 
 6616      6A4901EA 
 6617 3776 A2AA9DE2 		.ascii	"\242\252\235\342R{\337\244\357M\001O\023\204C\321\357"
 6617      527BDFA4 
 6617      EF4D014F 
 6617      138443D1 
 6617      EF
 6618 3787 65997F92 		.ascii	"e\231\177\222e\314\026\021aA\232\373\212\030\0261\306"
 6618      65CC1611 
 6618      61419AFB 
 6618      8A181631 
ARM GAS  C:\Users\DJESSOU\AppData\Local\Temp\cc3eovRL.s 			page 240


 6618      C6
 6619 3798 2657D4B2 		.ascii	"&W\324\262\236\205\025 \332(U\273_\271\025!Yf\217\263"
 6619      9E851520 
 6619      DA2855BB 
 6619      5FB91521 
 6619      59668FB3 
 6620 37ac 60AAADD6 		.ascii	"`\252\255\326\265Mf\021O\251\231>k\214L<\326H\267\320"
 6620      B54D6611 
 6620      4FA9993E 
 6620      6B8C4C3C 
 6620      D648B7D0 
 6621 37c0 677E7233 		.ascii	"g~r3\326\0173\006#\003\243n8\376\313<\234\241\032o\375"
 6621      D60F3306 
 6621      2303A36E 
 6621      38FECB3C 
 6621      9CA11A6F 
 6622 37d5 374F8BD1 		.ascii	"7O\213\321\207\246\252x\345\013a\007\270\010\350\371"
 6622      87A6AA78 
 6622      E50B6107 
 6622      B808E8F9 
 6623 37e5 9491D696 		.ascii	"\224\221\326\226I}\203\254\374\\b\227Zg\372SLh\034s"
 6623      497D83AC 
 6623      FC5C6297 
 6623      5A67FA53 
 6623      4C681C73 
 6624 37f9 ACFC4E51 		.ascii	"\254\374NQV\310\362\304THD\243\205N\022\304\231\215"
 6624      56C8F2C4 
 6624      544844A3 
 6624      854E12C4 
 6624      998D
 6625 380b A9197BC3 		.ascii	"\251\031{\303zV*uP\213HEa\235$H-\201:\200\272\320\240"
 6625      7A562A75 
 6625      508B4845 
 6625      619D2448 
 6625      2D813A80 
 6626 3822 1FC382CF 		.ascii	"\037\303\202\317\352\004q\021)V$\245\364\034*\333Z\036"
 6626      EA047111 
 6626      295624A5 
 6626      F41C2ADB 
 6626      5A1E
 6627 3834 D86F0AFB 		.ascii	"\330o\012\373r\350\337\263|t9\2167\224\302\251\017\327"
 6627      72E8DFB3 
 6627      7C74398E 
 6627      3794C2A9 
 6627      0FD7
 6628 3846 CE7316C6 		.ascii	"\316s\026\306\002\255\341\330,\236\323;\015@\225\231"
 6628      02ADE1D8 
 6628      2C9ED33B 
 6628      0D409599 
 6629 3856 87864C95 		.ascii	"\207\206L\225\372'\337\337\322\011^\303\021r\003\204"
 6629      FA27DFDF 
 6629      D2095EC3 
 6629      11720384 
 6630 3866 D39ACEFE 		.ascii	"\323\232\316\376h\260y\004\311t\370\036!\030\250\003"
 6630      68B07904 
 6630      C974F81E 
 6630      2118A803 
ARM GAS  C:\Users\DJESSOU\AppData\Local\Temp\cc3eovRL.s 			page 241


 6631 3876 282A374F 		.ascii	"(*7O\216\314WPg\345{[\262\362\272\322\217\261\264\260"
 6631      8ECC5750 
 6631      67E57B5B 
 6631      B2F2BAD2 
 6631      8FB1B4B0 
 6632 388a 06863EF1 		.ascii	"\006\206>\361\366\037\211<\244\0103\033\250\0070\300"
 6632      F61F893C 
 6632      A408331B 
 6632      A80730C0 
 6633 389a F2CEC33C 		.ascii	"\362\316\303<!e\3658\241\204\206eg]\037\355\023?\260"
 6633      2165F538 
 6633      A1848665 
 6633      675D1FED 
 6633      133FB0
 6634 38ad D0703DDB 		.ascii	"\320p=\333\235j\341t\324S\0200J \0005S\361\344\006:"
 6634      9D6AE174 
 6634      D4531030 
 6634      4A200035 
 6634      53F1E406 
 6635 38c2 4C602E51 		.ascii	"L`.Ql\205\000?871\310\204\250(Lb\375\374\006w\216\015"
 6635      6C85003F 
 6635      383731C8 
 6635      84A8284C 
 6635      62FDFC06 
 6636 38d9 F75E2368 		.ascii	"\367^#h\246\273m\325\331U\037TfEj\354\234\223`[Y\370"
 6636      A6BB6DD5 
 6636      D9551F54 
 6636      66456AEC 
 6636      9C93605B 
 6637 38ef 841AE547 		.ascii	"\204\032\345G\010p1#\220o\030\0332\244\272\026x]\033"
 6637      08703123 
 6637      906F181B 
 6637      32A4BA16 
 6637      785D1B
 6638 3902 996BA8D5 		.ascii	"\231k\250\325\030U\207\"\034m'hXQ\\\276K\250\343F\221"
 6638      18558722 
 6638      1C6D2768 
 6638      58515CBE 
 6638      4BA8E346 
 6639 3917 EA3EB2AE 		.ascii	"\352>\262\256\011\\;\375\016\205#xT\305VL\243\277\264"
 6639      095C3BFD 
 6639      0E852378 
 6639      54C5564C 
 6639      A3BFB4
 6640 392a 8C7F5C0A 		.ascii	"\214\177\\\012\241\316\333\247\300g\226'\302)\014\244"
 6640      A1CEDBA7 
 6640      C0679627 
 6640      C2290CA4 
 6641 393a 150F5079 		.ascii	"\025\017Py\356\377\334n\326\300E\027\217\310\352\342"
 6641      EEFFDC6E 
 6641      D6C04517 
 6641      8FC8EAE2 
 6642 394a 2995F850 		.ascii	")\225\370P\322\373,O\252\213|\316\360nt[2\320\011\337"
 6642      D2FB2C4F 
 6642      AA8B7CCE 
 6642      F06E745B 
 6642      32D009DF 
ARM GAS  C:\Users\DJESSOU\AppData\Local\Temp\cc3eovRL.s 			page 242


 6643 395e B1DD7258 		.ascii	"\261\335rX\267}\226\002%\361\321\256\333\035]\250\015"
 6643      B77D9602 
 6643      25F1D1AE 
 6643      DB1D5DA8 
 6643      0D
 6644 396f AECBEDD4 		.ascii	"\256\313\355\324\251G\321\021\362\267\256\177\2313)"
 6644      A947D111 
 6644      F2B7AE7F 
 6644      993329
 6645 397e D86285CE 		.ascii	"\330b\205\316/\205F_<L\306\306\316A^\200\341m\302\323"
 6645      2F85465F 
 6645      3C4CC6C6 
 6645      CE415E80 
 6645      E16DC2D3 
 6646 3992 2B9FC363 		.ascii	"+\237\303c\342u\325Bd\334b\262\254\231\003\324\246\242"
 6646      E275D542 
 6646      64DC62B2 
 6646      AC9903D4 
 6646      A6A2
 6647 39a4 BCADCC24 		.ascii	"\274\255\314$\216\362\247\370]s\276\032\365\032\211"
 6647      8EF2A7F8 
 6647      5D73BE1A 
 6647      F51A89
 6648 39b3 01F38198 		.ascii	"\001\363\201\230\260h\253\313\020\256\003$sf\317j\341"
 6648      B068ABCB 
 6648      10AE0324 
 6648      7366CF6A 
 6648      E1
 6649 39c4 BDEBF2A9 		.ascii	"\275\353\362\251\271\241\356i>\210IF#)\275;\205Qa\376"
 6649      B9A1EE69 
 6649      3E884946 
 6649      2329BD3B 
 6649      855161FE 
 6650 39d8 6A1FFA6C 		.ascii	"j\037\372l\363V\000\376\255s\252\354Fu%\220RI\002dC"
 6650      F35600FE 
 6650      AD73AAEC 
 6650      46752590 
 6650      52490264 
 6651 39ed 8B5069A6 		.ascii	"\213Pi\246\345\362-\333~\3330.v\306\023M\0238\011\222"
 6651      E5F22DDB 
 6651      7EDB302E 
 6651      76C6134D 
 6651      13380992 
 6652 3a01 13BEE1C2 		.ascii	"\023\276\341\302\337\201\264\317s\212\322\036\023\310"
 6652      DF81B4CF 
 6652      738AD21E 
 6652      13C8
 6653 3a0f 941E2DC7 		.ascii	"\224\036-\307\\0\232\373\025dd\262\377\300\306#J\007"
 6653      5C309AFB 
 6653      156464B2 
 6653      FFC0C623 
 6653      4A07
 6654 3a21 573F1225 		.ascii	"W?\022%\237\036\334N\237VTF\004!\315-8uJ\226-k\031\275"
 6654      9F1EDC4E 
 6654      9F565446 
 6654      0421CD2D 
 6654      38754A96 
ARM GAS  C:\Users\DJESSOU\AppData\Local\Temp\cc3eovRL.s 			page 243


 6655 3a39 D782ED70 		.ascii	"\327\202\355p\242\354\300\261zx\257w\311\304GM\032\362"
 6655      A2ECC0B1 
 6655      7A78AF77 
 6655      C9C4474D 
 6655      1AF2
 6656 3a4b F4DBC3D0 		.ascii	"\364\333\303\320\015\366\032\206\020?T\032\372\304\242"
 6656      0DF61A86 
 6656      103F541A 
 6656      FAC4A2
 6657 3a5a 03394F94 		.ascii	"\0039O\224\211\210\241\373ft\256\251\247\3625\226\205"
 6657      8988A1FB 
 6657      6674AEA9 
 6657      A7F23596 
 6657      85
 6658 3a6b CD1227EA 		.ascii	"\315\022'\352K2\373E\3271\244\363Zvw\371\027\317\200"
 6658      4B32FB45 
 6658      D731A4F3 
 6658      5A7677F9 
 6658      17CF80
 6659 3a7e CE191D76 		.ascii	"\316\031\035v\311M\033\312Q8\245\343O\342\235V\003{"
 6659      C94D1BCA 
 6659      5138A5E3 
 6659      4FE29D56 
 6659      037B
 6660 3a90 6D8197D3 		.ascii	"m\201\227\323?\201\244\265\345\005X*\000<\021S\372\250"
 6660      3F81A4B5 
 6660      E505582A 
 6660      003C1153 
 6660      FAA8
 6661 3aa2 01B2382B 		.ascii	"\001\2628+\024\004\247P\350\216\210\015#\304omuV\006"
 6661      1404A750 
 6661      E88E880D 
 6661      23C46F6D 
 6661      755606
 6662 3ab5 ABBEC04C 		.ascii	"\253\276\300L*\316\314HN\205\200~\245Bt\365'p*\0143"
 6662      2ACECC48 
 6662      4E85807E 
 6662      A54274F5 
 6662      27702A0C 
 6663 3aca 6E5C6E49 		.ascii	"n\\nIu\376/H$\012\315\006\001\012\321\313G\301\247\012"
 6663      75FE2F48 
 6663      240ACD06 
 6663      010AD1CB 
 6663      47C1A70A 
 6664 3ade 44649C64 		.ascii	"Dd\234d\376\023Cb\277_H{\024\003X\253\316LqF\231y\306"
 6664      FE134362 
 6664      BF5F487B 
 6664      140358AB 
 6664      CE4C7146 
 6665 3af5 33F5DE71 		.ascii	"3\365\336q\216 \304k\354\320r\321>h\032\026n\257\210"
 6665      8E20C46B 
 6665      ECD072D1 
 6665      3E681A16 
 6665      6EAF88
 6666 3b08 5C434191 		.ascii	"\\CA\221\275Yk\375\305\035<\270[\314\\Q3\314G\210\346"
 6666      BD596BFD 
 6666      C51D3CB8 
ARM GAS  C:\Users\DJESSOU\AppData\Local\Temp\cc3eovRL.s 			page 244


 6666      5BCC5C51 
 6666      33CC4788 
 6667 3b1d 04B5E11D 		.ascii	"\004\265\341\0357d)1*\016\217y\242\0160\374\350\027"
 6667      37642931 
 6667      2A0E8F79 
 6667      A20E30FC 
 6667      E817
 6668 3b2f C5E3284B 		.ascii	"\305\343(K\320X\217\201\037l\237\011\227\347\273\342"
 6668      D0588F81 
 6668      1F6C9F09 
 6668      97E7BBE2 
 6669 3b3f 9B6DA4E6 		.ascii	"\233m\244\346XL]\331R\326\353D\255\012\364\266\377\260"
 6669      584C5DD9 
 6669      52D6EB44 
 6669      AD0AF4B6 
 6669      FFB0
 6670 3b51 CC0314AB 		.ascii	"\314\003\024\253\253J\273\357x\222\340w9\333\353\024"
 6670      AB4ABBEF 
 6670      7892E077 
 6670      39DBEB14 
 6671 3b61 3D70ADF8 		.ascii	"=p\255\370\327H\210\002\255w\"h\333\307Q\362\201\202"
 6671      D7488802 
 6671      AD772268 
 6671      DBC751F2 
 6671      8182
 6672 3b73 0E366830 		.ascii	"\0166h0\227\207\216\001<\327!\007s`'\274\205\357\347"
 6672      97878E01 
 6672      3CD72107 
 6672      736027BC 
 6672      85EFE7
 6673 3b86 3A8EC1B2 		.ascii	":\216\301\262\227<\255\346\007\2425evJQ\330\245vA\357"
 6673      973CADE6 
 6673      07A23565 
 6673      764A51D8 
 6673      A57641EF 
 6674 3b9a 195F998D 		.ascii	"\031_\231\215,0F\243\340s\020N\267\306\021/F\246q\305"
 6674      2C3046A3 
 6674      E073104E 
 6674      B7C6112F 
 6674      46A671C5 
 6675 3bae 8C5A43E5 		.ascii	"\214ZC\345\037\276\352U\302\337\226{\223\024\015~W>"
 6675      1FBEEA55 
 6675      C2DF967B 
 6675      93140D7E 
 6675      573E
 6676 3bc0 8657DB93 		.ascii	"\206W\333\223]\013\250\314l\314\306_\323\220\233\000"
 6676      5D0BA8CC 
 6676      6CCCC65F 
 6676      D3909B00 
 6677 3bd0 A9744C9F 		.ascii	"\251tL\237\257D\262}\243\314\252_S\001\277\024`\267"
 6677      AF44B27D 
 6677      A3CCAA5F 
 6677      5301BF14 
 6677      60B7
 6678 3be2 05827D95 		.ascii	"\005\202}\225+\277\004{{\241\330\325y>\216\022\007\234"
 6678      2BBF047B 
 6678      7BA1D8D5 
ARM GAS  C:\Users\DJESSOU\AppData\Local\Temp\cc3eovRL.s 			page 245


 6678      793E8E12 
 6678      079C
 6679 3bf4 2C2AD6C8 		.ascii	",*\326\310~\0128\017\016\256v+x\0242!\030|\317\374\360"
 6679      7E0A380F 
 6679      0EAE762B 
 6679      78143221 
 6679      187CCFFC 
 6680 3c09 3C024FF5 		.ascii	"<\002O\365\243\237\217\037\025\223\361\322\023\376\361"
 6680      A39F8F1F 
 6680      1593F1D2 
 6680      13FEF1
 6681 3c18 F07C7E1F 		.ascii	"\360|~\037\343w).\007\2167\210J\207_\375!\012Ma\236"
 6681      E377292E 
 6681      078E3788 
 6681      4A875FFD 
 6681      210A4D61 
 6682 3c2d A5BAFF36 		.ascii	"\245\272\3776\015M\260\242\2407\312\250\002\355i\030"
 6682      0D4DB0A2 
 6682      A037CAA8 
 6682      02ED6918 
 6683 3c3d D6CB4A2C 		.ascii	"\326\313J,B\361\003W\307p\266b\354w\366\011T\236W\367"
 6683      42F10357 
 6683      C770B662 
 6683      EC77F609 
 6683      549E57F7 
 6684 3c51 C5D9E67D 		.ascii	"\305\331\346}P\206M\000E\030\014\207\335\226\242\366"
 6684      50864D00 
 6684      45180C87 
 6684      DD96A2F6 
 6685 3c61 E39CA4FE 		.ascii	"\343\234\244\376T9\037Wq\372\326~/5\326\024T\256|\233"
 6685      54391F57 
 6685      71FAD67E 
 6685      2F35D614 
 6685      54AE7C9B 
 6686 3c75 3AD8CDE2 		.ascii	":\330\315\342s\370\032\351\025\364T1\221\306u \221\012"
 6686      73F81AE9 
 6686      15F45431 
 6686      91C67520 
 6686      910A
 6687 3c87 70AD0BD6 		.ascii	"p\255\013\326\222\203\361\307\343hL\"\011\274\356\253"
 6687      9283F1C7 
 6687      E3684C22 
 6687      09BCEEAB 
 6688 3c97 E3503AF6 		.ascii	"\343P:\3662+\250\245\232\245:\010\250)\374e\340\207"
 6688      322BA8A5 
 6688      9AA53A08 
 6688      A829FC65 
 6688      E087
 6689 3ca9 53D60FC5 		.ascii	"S\326\017\305H\356\247;\034P\021\236h\251{:(\035\235"
 6689      48EEA73B 
 6689      1C50119E 
 6689      68A97B3A 
 6689      281D9D
 6690 3cbc 11929B27 		.ascii	"\021\222\233'\232U\205$ZU\350?\250\304v\314\336\336"
 6690      9A558524 
 6690      5A55E83F 
 6690      A8C476CC 
ARM GAS  C:\Users\DJESSOU\AppData\Local\Temp\cc3eovRL.s 			page 246


 6690      DEDE
 6691 3cce C18C18B9 		.ascii	"\301\214\030\271p\205\205\255V\301\276R\004\235z\304"
 6691      708585AD 
 6691      56C1BE52 
 6691      049D7AC4 
 6692 3cde D2D7C378 		.ascii	"\322\327\303xD\020\366`C\216C\343\347\362\202T\351h"
 6692      4410F660 
 6692      438E43E3 
 6692      E7F28254 
 6692      E968
 6693 3cf0 2B4BDFD8 		.ascii	"+K\337\3305\341\036\211\316\257\344es\364cZJ\350\252"
 6693      35E11E89 
 6693      CEAFE465 
 6693      73F4635A 
 6693      4AE8AA
 6694 3d03 56E41DED 		.ascii	"V\344\035\355\364\342\011\370\037*\320\271\342y\032"
 6694      F4E209F8 
 6694      1F2AD0B9 
 6694      E2791A
 6695 3d12 A9F31AC2 		.ascii	"\251\363\032\302D\002+\230\2239\332a\036\367\025.\030"
 6695      44022B98 
 6695      9339DA61 
 6695      1EF7152E 
 6695      18
 6696 3d23 D7907AED 		.ascii	"\327\220z\355\257\343\270:b\023O\347At*I\212\331\025"
 6696      AFE3B83A 
 6696      62134FE7 
 6696      41742A49 
 6696      8AD915
 6697 3d36 677728D1 		.ascii	"gw(\321.2\303 \243o\334{\270\036G\330\262\005\263\001"
 6697      2E32C320 
 6697      A36FDC7B 
 6697      B81E47D8 
 6697      B205B301 
 6698 3d4a 0E454931 		.ascii	"\016EI1\241W\232\246\335i\265yE\3524\311\222\006\247"
 6698      A1579AA6 
 6698      DD69B579 
 6698      45EA34C9 
 6698      9206A7
 6699 3d5d 299C683A 		.ascii	")\234h:\227\215=\354\036\362\030\353|\036\023\241\001"
 6699      978D3DEC 
 6699      1EF218EB 
 6699      7C1E13A1 
 6699      01
 6700 3d6e C6B9F1B4 		.ascii	"\306\271\361\264\303\230,<2\272\244\263z\015.\213\254"
 6700      C3982C3C 
 6700      32BAA4B3 
 6700      7A0D2E8B 
 6700      AC
 6701 3d7f 18224AD6 		.ascii	"\030\"J\326I\240'/\021\213\302n\207\271U\210\025\346"
 6701      49A0272F 
 6701      118BC26E 
 6701      87B95588 
 6701      15E6
 6702 3d91 52199405 		.ascii	"R\031\224\005Q\303\326\013\327\300\2279\324>\237\311"
 6702      51C3D60B 
 6702      D7C09739 
ARM GAS  C:\Users\DJESSOU\AppData\Local\Temp\cc3eovRL.s 			page 247


 6702      D43E9FC9 
 6703 3da1 2CCAA647 		.ascii	",\312\246G\371\036\311d\252\215\312=\251\264\001*NV"
 6703      F91EC964 
 6703      AA8DCA3D 
 6703      A9B4012A 
 6703      4E56
 6704 3db3 C90257F6 		.ascii	"\311\002W\366aL\255\227\265\201\244\217\322\220\217"
 6704      614CAD97 
 6704      B581A48F 
 6704      D2908F
 6705 3dc2 8939BE17 		.ascii	"\2119\276\027\257\333Y\226\256%0\214~%\277\320\342\276"
 6705      AFDB5996 
 6705      AE25308C 
 6705      7E25BFD0 
 6705      E2BE
 6706 3dd4 D9FA3845 		.ascii	"\331\3728E\010[!\302\010\236\373\350-\344\215Q\204\234"
 6706      085B21C2 
 6706      089EFBE8 
 6706      2DE48D51 
 6706      849C
 6707 3de6 B4DDD81D 		.ascii	"\264\335\330\0358G\360\247q\252\353\2578\016\017iB-"
 6707      3847F0A7 
 6707      71AAEBAF 
 6707      380E0F69 
 6707      422D
 6708 3df8 01DC86B6 		.ascii	"\001\334\206\266X\354\200Qy\247:\320\321\245\204\232"
 6708      58EC8051 
 6708      79A73AD0 
 6708      D1A5849A 
 6709 3e08 AE78CDF5 		.ascii	"\256x\315\3659\357\354{\374\332\015e\316\012\215\004"
 6709      39EFEC7B 
 6709      FCDA0D65 
 6709      CE0A8D04 
 6710 3e18 8EBF2E94 		.ascii	"\216\277.\224\033EW\346\260\266LK\230X\"\373 \337\203"
 6710      1B4557E6 
 6710      B0B64C4B 
 6710      985822FB 
 6710      20DF83
 6711 3e2b AC6FE036 		.ascii	"\254o\3406\301|\350\007(\032\003\352\201\0276\371K-"
 6711      C17CE807 
 6711      281A03EA 
 6711      811736F9 
 6711      4B2D
 6712 3e3d DB0DBDC9 		.ascii	"\333\015\275\311jX\273&\036\223x0?\224\201\342T\347"
 6712      6A58BB26 
 6712      1E937830 
 6712      3F9481E2 
 6712      54E7
 6713 3e4f BACDEE11 		.ascii	"\272\315\356\021\007\315\230l\2071\230\227D?\253\213"
 6713      07CD986C 
 6713      87319897 
 6713      443FAB8B 
 6714 3e5f 6B6B1DD4 		.ascii	"kk\035\324\233}\0071\037YC\241\251vE\263\224\241\363"
 6714      9B7D0731 
 6714      1F5943A1 
 6714      A97645B3 
 6714      94A1F3
ARM GAS  C:\Users\DJESSOU\AppData\Local\Temp\cc3eovRL.s 			page 248


 6715 3e72 21C55A0D 		.ascii	"!\305Z\015\012\242\224\237T\304\265\272\350\232"
 6715      0AA2949F 
 6715      54C4B5BA 
 6715      E89A
 6716 3e80 FD23EEE0 		.ascii	"\375#\356\340t$\005\361N\360\211i\264\344\013u\212\006"
 6716      742405F1 
 6716      4EF08969 
 6716      B4E40B75 
 6716      8A06
 6717 3e92 597773F3 		.ascii	"Yws\363\012\316\212\325v\367\302\344\337m\264\375Cz"
 6717      0ACE8AD5 
 6717      76F7C2E4 
 6717      DF6DB4FD 
 6717      437A
 6718 3ea4 838586D7 		.ascii	"\203\205\206\327\202NM\342`a\332\027T\347\363\214\231"
 6718      824E4DE2 
 6718      6061DA17 
 6718      54E7F38C 
 6718      99
 6719 3eb5 2337BBEB 		.ascii	"#7\273\353_\245\207W\334lM\015\267\337\327\322`}\022"
 6719      5FA58757 
 6719      DC6C4D0D 
 6719      B7DFD7D2 
 6719      607D12
 6720 3ec8 94AD903F 		.ascii	"\224\255\220?@\036H\301\"\2104\027\223\376\371Y\307"
 6720      401E48C1 
 6720      22883417 
 6720      93FEF959 
 6720      C7
 6721 3ed9 2F236A9F 		.ascii	"/#j\237\310\374\252\267\232W\331\031w\376\245\265\013"
 6721      C8FCAAB7 
 6721      9A57D919 
 6721      77FEA5B5 
 6721      0B
 6722 3eea B74C659C 		.ascii	"\267Le\234_\037Z\036J\264\264`\304T}u_\371\374IB\350"
 6722      5F1F5A1E 
 6722      4AB4B460 
 6722      C4547D75 
 6722      5FF9FC49 
 6723 3f00 04100242 		.ascii	"\004\020\002B\303r\026\2150\266\260n\226\253\177\352"
 6723      C372168D 
 6723      30B6B06E 
 6723      96AB7FEA 
 6724 3f10 E323F7FB 		.ascii	"\343#\367\373\377\346J;!\325\346\235\023!\024\314\350"
 6724      FFE64A3B 
 6724      21D5E69D 
 6724      132114CC 
 6724      E8
 6725 3f21 F3125BD1 		.ascii	"\363\022[\321\001\212\267iA\015\000\263sh\240\266\357"
 6725      018AB769 
 6725      410D00B3 
 6725      7368A0B6 
 6725      EF
 6726 3f32 2637DBBF 		.ascii	"&7\333\277\355\372\344\211\222K,_\254\216\363\020\214"
 6726      EDFAE489 
 6726      924B2C5F 
 6726      AC8EF310 
ARM GAS  C:\Users\DJESSOU\AppData\Local\Temp\cc3eovRL.s 			page 249


 6726      8C
 6727 3f43 1C2DA86D 		.ascii	"\034-\250m4{0\231`0\247\224\376\322O\007\347K\003E\330"
 6727      347B3099 
 6727      6030A794 
 6727      FED24F07 
 6727      E74B0345 
 6728 3f58 524582DC 		.ascii	"RE\202\334'$QN\3220\330\324U;\340t?2\361\345\027z\363"
 6728      2724514E 
 6728      D230D8D4 
 6728      553BE074 
 6728      3F32F1E5 
 6729 3f6f 83E84282 		.ascii	"\203\350B\202F{K\315>a\230\311\321\365\204\330\317\373"
 6729      467B4BCD 
 6729      3E6198C9 
 6729      D1F584D8 
 6729      CFFB
 6730 3f81 4505921E 		.ascii	"E\005\222\036'\243\203J\012q\313qF\221\225i2Q\254\256"
 6730      27A3834A 
 6730      0A71CB71 
 6730      46919569 
 6730      3251ACAE 
 6731 3f95 3121C463 		.ascii	"1!\304c\351V\007\325pR\004P\326Z\334\222\371\274C\237"
 6731      E95607D5 
 6731      70520450 
 6731      D65ADC92 
 6731      F9BC439F 
 6732 3fa9 94752BFD 		.ascii	"\224u+\375\232G\3602\011\312\275\261yA>\3555I\024.\327"
 6732      9A47F032 
 6732      09CABDB1 
 6732      79413EED 
 6732      3549142E 
 6733 3fbe E14398B7 		.ascii	"\341C\230\267\357F\330a\334\254+\323\350\363:\317\327"
 6733      EF46D861 
 6733      DCAC2BD3 
 6733      E8F33ACF 
 6733      D7
 6734 3fcf FB363C03 		.ascii	"\3736<\003G\2328\360mB{\256\320`dK'\227\233y\2537\275"
 6734      479A38F0 
 6734      6D427BAE 
 6734      D060644B 
 6734      27979B79 
 6735 3fe6 EE1329CB 		.ascii	"\356\023)\313zx~\211\251\210\205\244\034y.OX}\2073{"
 6735      7A787E89 
 6735      A98885A4 
 6735      1C792E4F 
 6735      587D8733 
 6736 3ffb 4BDAB2A2 		.ascii	"K\332\262\242\343$\177 \031\300IB[\342%\360\007<\330"
 6736      E3247F20 
 6736      19C04942 
 6736      5BE225F0 
 6736      073CD8
 6737 400e 00336E71 		.ascii	"\0003nq\025B\321\230\322\021u\307\231k\340\243\203\263"
 6737      1542D198 
 6737      D21175C7 
 6737      996BE0A3 
 6737      83B3
 6738 4020 2D7C026D 		.ascii	"-|\002m^\024\262\273p\367\3549\027\016\300\363El\026"
ARM GAS  C:\Users\DJESSOU\AppData\Local\Temp\cc3eovRL.s 			page 250


 6738      5E14B2BB 
 6738      70F7EC39 
 6738      170EC0F3 
 6738      456C16
 6739 4033 F5E73F40 		.ascii	"\365\347?@G\222\013\304\314\223\321\255\013\274\224"
 6739      47920BC4 
 6739      CC93D1AD 
 6739      0BBC94
 6740 4042 E1892474 		.ascii	"\341\211$t\023u\3021\321k\001z+\274\377[\3419\205G\307"
 6740      1375C231 
 6740      D16B017A 
 6740      2BBCFF5B 
 6740      E1398547 
 6741 4057 EFFF060E 		.ascii	"\357\377\006\016M\260\350\015{Y\216'\270\342\005B\215"
 6741      4DB0E80D 
 6741      7B598E27 
 6741      B8E20542 
 6741      8D
 6742 4068 1DCED200 		.ascii	"\035\316\322\000\004F~\305\005\033d\031o\225\251+\315"
 6742      04467EC5 
 6742      051B6419 
 6742      6F95A92B 
 6742      CD
 6743 4079 FE1FBDC4 		.ascii	"\376\037\275\304\271:\340\225i\340\340~(\210\342\373"
 6743      B93AE095 
 6743      69E0E07E 
 6743      2888E2FB 
 6744 4089 4AA9A4ED 		.ascii	"J\251\244\355\037ZM\357\016\323\250\037?\003\244\352"
 6744      1F5A4DEF 
 6744      0ED3A81F 
 6744      3F03A4EA 
 6745 4099 78172301 		.ascii	"x\027#\001\012\372D\300\362\327\231\011o\243\350\200"
 6745      0AFA44C0 
 6745      F2D79909 
 6745      6FA3E880 
 6746 40a9 60645032 		.ascii	"`dP2z\275}\354\207\017%@\267\267\350\266\316\301\345"
 6746      7ABD7DEC 
 6746      870F2540 
 6746      B7B7E8B6 
 6746      CEC1E5
 6747 40bc 8FA9C18D 		.ascii	"\217\251\301\215\024\003\222\272?\002A;/\257\011\264"
 6747      140392BA 
 6747      3F02413B 
 6747      2FAF09B4 
 6748 40cc A2011EF1 		.ascii	"\242\001\036\361y\253\307\332\340\343\370]\234\002A"
 6748      79ABC7DA 
 6748      E0E3F85D 
 6748      9C0241
 6749 40db 7B9D1226 		.ascii	"{\235\022&\200Y\226g\245\254\032c&\266\354(D\276Y\262"
 6749      80599667 
 6749      A5AC1A63 
 6749      26B6EC28 
 6749      44BE59B2 
 6750 40ef 8EB45CD9 		.ascii	"\216\264\\\331\227\200.\346\320\272\260\205D\210\234"
 6750      97802EE6 
 6750      D0BAB085 
 6750      44889C
ARM GAS  C:\Users\DJESSOU\AppData\Local\Temp\cc3eovRL.s 			page 251


 6751 40fe D456ABA2 		.ascii	"\324V\253\242\323\031\2762\001\222j\320\202\340\254"
 6751      D319BE32 
 6751      01926AD0 
 6751      82E0AC
 6752 410d 57B3CFCD 		.ascii	"W\263\317\315WJ\352y\007\022)\374\366^\215J\201\021"
 6752      574AEA79 
 6752      071229FC 
 6752      F65E8D4A 
 6752      8111
 6753 411f 43CDF683 		.ascii	"C\315\366\203\257[l\325\033<\210q+\221(\313:\032\246"
 6753      AF5B6CD5 
 6753      1B3C8871 
 6753      2B9128CB 
 6753      3A1AA6
 6754 4132 73A6C3F2 		.ascii	"s\246\303\362\3060\242\345>\251:H\305l\307\312\003'"
 6754      C630A2E5 
 6754      3EA93A48 
 6754      C56CC7CA 
 6754      0327
 6755 4144 EE01BED2 		.ascii	"\356\001\276\322\330;\224\267\201\016X\320\365\300\245"
 6755      D83B94B7 
 6755      810E58D0 
 6755      F5C0A5
 6756 4153 2AB9C888 		.ascii	"*\271\310\210\347\010vj\210\216\364&\351\331\316Ux\250"
 6756      E708766A 
 6756      888EF426 
 6756      E9D9CE55 
 6756      78A8
 6757 4165 1F0BD7B3 		.ascii	"\037\013\327\263[\253\337\255\331(\230\241\230\006b"
 6757      5BABDFAD 
 6757      D92898A1 
 6757      980662
 6758 4174 5CF9B0D2 		.ascii	"\\\371\260\322\012\265\242z\350Fb@\265\201\331\363"
 6758      0AB5A27A 
 6758      E8466240 
 6758      B581D9F3 
 6759              		.section	.rodata.fw_patch_13_rgbnir_cert,"a"
 6762              	fw_patch_13_rgbnir_cert:
 6763 0000 3081D483 		.ascii	"0\201\324\203\001\001\224@y\321\356l\314q\272\367l\034"
 6763      01019440 
 6763      79D1EE6C 
 6763      CC71BAF7 
 6763      6C1C
 6764 0012 334326A4 		.ascii	"3C&\244\000\342y\241w9GB6\204C\261)>p\330\342[\030E"
 6764      00E279A1 
 6764      77394742 
 6764      368443B1 
 6764      293E70D8 
 6765 002a D09BAEE9 		.ascii	"\320\233\256\351\363,\023\252J\325\313\245\005\261\237"
 6765      F32C13AA 
 6765      4AD5CBA5 
 6765      05B19F
 6766 0039 77DB1D42 		.ascii	"w\333\035Br\312gz\017Q\177\340\260\275\332\212\004S"
 6766      72CA677A 
 6766      0F517FE0 
 6766      B0BDDA8A 
 6766      0453
ARM GAS  C:\Users\DJESSOU\AppData\Local\Temp\cc3eovRL.s 			page 252


 6767 004b 3934308B 		.ascii	"940\213\020\275\236\260\226\304\303u//u\335\256\300"
 6767      10BD9EB0 
 6767      96C4C375 
 6767      2F2F75DD 
 6767      AEC0
 6768 005d B679E681 		.ascii	"\266y\346\201\020\000\000\000\000\000\000\000\000\000"
 6768      10000000 
 6768      00000000 
 6768      0000
 6769 006b 00000000 		.ascii	"\000\000\000\000\000\000\000\204\001\255\207 c\352]"
 6769      00000084 
 6769      01AD8720 
 6769      63EA5D
 6770 007a 77CD0F24 		.ascii	"w\315\017$W7\011\262w\312c\232M\322\326\212\304\230"
 6770      573709B2 
 6770      77CA639A 
 6770      4DD2D68A 
 6770      C498
 6771 008c 1932DC05 		.ascii	"\0312\334\005\357&\202\3022i\217\222\020\241\247\244"
 6771      EF2682C2 
 6771      32698F92 
 6771      10A1A7A4 
 6772 009c 667757B2 		.ascii	"fwW\262p\005\240B\206\000\326\320Y\205\001\000\202\001"
 6772      7005A042 
 6772      8600D6D0 
 6772      59850100 
 6772      8201
 6773 00ae DB302604 		.ascii	"\3330&\004\004ettm1\036\004\004dbgr\004\004olbt\004"
 6773      04657474 
 6773      6D311E04 
 6773      04646267 
 6773      7204046F 
 6774 00c6 0470726F 		.ascii	"\004prov\004\004rcaw\004\004vtrp0F\002!\000\266\231"
 6774      76040472 
 6774      63617704 
 6774      04767472 
 6774      70304602 
 6775 00de C4F8C638 		.ascii	"\304\370\3068\271\231\351\016\325~\001~\313\320\315"
 6775      B999E90E 
 6775      D57E017E 
 6775      CBD0CD
 6776 00ed 734D4C27 		.ascii	"sML':0i\024-\346'\"\243<\343\002!\000\244\316\306\014"
 6776      3A306914 
 6776      2DE62722 
 6776      A33CE302 
 6776      2100A4CE 
 6777 0103 18584F45 		.ascii	"\030XOEDk[\375\221+\335\207\303\013\275S\024\223\300"
 6777      446B5BFD 
 6777      912BDD87 
 6777      C30BBD53 
 6777      1493C0
 6778 0116 EE5B7A76 		.ascii	"\356[zv\010\010\353O\3140\201\214\203\001\001\212\004"
 6778      0808EB4F 
 6778      CC30818C 
 6778      8301018A 
 6778      04
 6779 0127 53393430 		.ascii	"S940\213\020\275\236\260\226\304\303u//u\335\256\300"
ARM GAS  C:\Users\DJESSOU\AppData\Local\Temp\cc3eovRL.s 			page 253


 6779      8B10BD9E 
 6779      B096C4C3 
 6779      752F2F75 
 6779      DDAEC0
 6780 013a B679E681 		.ascii	"\266y\346\201\020\000\000\000\000\000\000\000\000\000"
 6780      10000000 
 6780      00000000 
 6780      0000
 6781 0148 00000000 		.ascii	"\000\000\000\000\000\000\000\204\001\255\207 c\352]"
 6781      00000084 
 6781      01AD8720 
 6781      63EA5D
 6782 0157 77CD0F24 		.ascii	"w\315\017$W7\011\262w\312c\232M\322\326\212\304\230"
 6782      573709B2 
 6782      77CA639A 
 6782      4DD2D68A 
 6782      C498
 6783 0169 1932DC05 		.ascii	"\0312\334\005\357&\202\3022i\217\222\020\241\247\244"
 6783      EF2682C2 
 6783      32698F92 
 6783      10A1A7A4 
 6784 0179 667757B2 		.ascii	"fwW\262p\005\240B\206\000\326\320Y\205\001\000\202\001"
 6784      7005A042 
 6784      8600D6D0 
 6784      59850100 
 6784      8201
 6785 018b DB302004 		.ascii	"\3330 \004\004ettm1\030\004\004dbgr\004\004olbt\004"
 6785      04657474 
 6785      6D311804 
 6785      04646267 
 6785      7204046F 
 6786 01a3 0470726F 		.ascii	"\004prov\004\004vtrp0E\002 lQ\373\355m\203!\330\255"
 6786      76040476 
 6786      74727030 
 6786      4502206C 
 6786      51FBED6D 
 6787 01bb BA713581 		.ascii	"\272q5\201\214W\363O+\035Ep\234\254\337]\345I.\260\376"
 6787      8C57F34F 
 6787      2B1D4570 
 6787      9CACDF5D 
 6787      E5492EB0 
 6788 01d0 B3520221 		.ascii	"\263R\002!\000\264\335\237\237\032\376\017\373\230\331"
 6788      00B4DD9F 
 6788      9F1AFE0F 
 6788      FB98D9
 6789 01df A7A99048 		.ascii	"\247\251\220H\177\310\223G\251\250\314\223\006\214\204"
 6789      7FC89347 
 6789      A9A8CC93 
 6789      068C84
 6790 01ee 79B09439 		.ascii	"y\260\2249\032\314\023"
 6790      1ACC13
 6791              		.section	.rodata.fw_patch_13_rgbnir_array,"a"
 6794              	fw_patch_13_rgbnir_array:
 6795 0000 ECEC9C0F 		.ascii	"\354\354\234\017l\216E\201\300\256\035\347M\226\212"
 6795      6C8E4581 
 6795      C0AE1DE7 
 6795      4D968A
ARM GAS  C:\Users\DJESSOU\AppData\Local\Temp\cc3eovRL.s 			page 254


 6796 000f 66FCF8A2 		.ascii	"f\374\370\242\246j\366\361\3349\244\376\222\235;\210"
 6796      A66AF6F1 
 6796      DC39A4FE 
 6796      929D3B88 
 6797 001f 7F228F30 		.ascii	"\177\"\2170\360\235\\~mg7U\320d\214\250\355<\201\301"
 6797      F09D5C7E 
 6797      6D673755 
 6797      D0648CA8 
 6797      ED3C81C1 
 6798 0033 C75D50E0 		.ascii	"\307]P\340)\373{\025G\334S\257\035S\003\304H\037\267"
 6798      29FB7B15 
 6798      47DC53AF 
 6798      1D5303C4 
 6798      481FB7
 6799 0046 DD4EA664 		.ascii	"\335N\246dP>#\267C\341\314\271\224\356\305\263\354\363"
 6799      503E23B7 
 6799      43E1CCB9 
 6799      94EEC5B3 
 6799      ECF3
 6800 0058 43F35FE6 		.ascii	"C\363_\346F\363\313\255\270\334\236\225D\206\247\273"
 6800      46F3CBAD 
 6800      B8DC9E95 
 6800      4486A7BB 
 6801 0068 A45A4494 		.ascii	"\244ZD\224\011=#D\230P\276'\274\305\357\027\341\337"
 6801      093D2344 
 6801      9850BE27 
 6801      BCC5EF17 
 6801      E1DF
 6802 007a 082A2AD1 		.ascii	"\010**\321Y\216\316V\254\033&\312\204\356\364o\240\031"
 6802      598ECE56 
 6802      AC1B26CA 
 6802      84EEF46F 
 6802      A019
 6803 008c 122B89C2 		.ascii	"\022+\211\3029\031s\336\265J\302\377O\260C\374\202&"
 6803      391973DE 
 6803      B54AC2FF 
 6803      4FB043FC 
 6803      8226
 6804 009e 142581A9 		.ascii	"\024%\201\251\353\232\310{\370\241\253\220,H\244\212"
 6804      EB9AC87B 
 6804      F8A1AB90 
 6804      2C48A48A 
 6805 00ae 9BB4355F 		.ascii	"\233\2645_W\370\222\216\014\256\302\200\234O\030Q\013"
 6805      57F8928E 
 6805      0CAEC280 
 6805      9C4F1851 
 6805      0B
 6806 00bf C40CEA1D 		.ascii	"\304\014\352\035I\212\342\366B\326\277\342L\255Wa\024"
 6806      498AE2F6 
 6806      42D6BFE2 
 6806      4CAD5761 
 6806      14
 6807 00d0 B2B96ACF 		.ascii	"\262\271j\317\205\0324\236q\030\034\210\177$\376\234"
 6807      851A349E 
 6807      71181C88 
 6807      7F24FE9C 
 6808 00e0 A6D895FC 		.ascii	"\246\330\225\374d\364\345^?R\202\024o\304\254Bj\347"
ARM GAS  C:\Users\DJESSOU\AppData\Local\Temp\cc3eovRL.s 			page 255


 6808      64F4E55E 
 6808      3F528214 
 6808      6FC4AC42 
 6808      6AE7
 6809 00f2 9FC66741 		.ascii	"\237\306gA>\016<c\021_\360#B\235\217\221\302?\317\201"
 6809      3E0E3C63 
 6809      115FF023 
 6809      429D8F91 
 6809      C23FCF81 
 6810 0106 C9870AF5 		.ascii	"\311\207\012\3657d\265)5\246\360;\343\326\013OO\217"
 6810      3764B529 
 6810      35A6F03B 
 6810      E3D60B4F 
 6810      4F8F
 6811 0118 C2F01A06 		.ascii	"\302\360\032\006\312\217b\370\351\351VX\364U\2000\303"
 6811      CA8F62F8 
 6811      E9E95658 
 6811      F4558030 
 6811      C3
 6812 0129 FCDE6E45 		.ascii	"\374\336nE\007c}\375\362\275\035)\"Pk\\\277\346\337"
 6812      07637DFD 
 6812      F2BD1D29 
 6812      22506B5C 
 6812      BFE6DF
 6813 013c D49084FD 		.ascii	"\324\220\204\375\213t\207\201\374\211\203\322\302=\216"
 6813      8B748781 
 6813      FC8983D2 
 6813      C23D8E
 6814 014b 434E78A6 		.ascii	"CNx\246.7\214\373:\255\036\025\355\010N|\003\221 \037"
 6814      2E378CFB 
 6814      3AAD1E15 
 6814      ED084E7C 
 6814      0391201F 
 6815 015f E0AB8A58 		.ascii	"\340\253\212X\017\347\245.\002S>8\337\232pf\204'~S\255"
 6815      0FE7A52E 
 6815      02533E38 
 6815      DF9A7066 
 6815      84277E53 
 6816 0174 D5B387AD 		.ascii	"\325\263\207\255'9\206\2055\376\377\364\215\342E\356"
 6816      27398685 
 6816      35FEFFF4 
 6816      8DE245EE 
 6817 0184 A3B1F0FB 		.ascii	"\243\261\360\373N\310\237W\365\354\012\234\345\357\020"
 6817      4EC89F57 
 6817      F5EC0A9C 
 6817      E5EF10
 6818 0193 0EFBCC4F 		.ascii	"\016\373\314O\020\274\3654\375\230l\010\216\005\242"
 6818      10BCF534 
 6818      FD986C08 
 6818      8E05A2
 6819 01a2 597D1646 		.ascii	"Y}\026F\307\353\213\301\317\216\016\344Y\347\261\242"
 6819      C7EB8BC1 
 6819      CF8E0EE4 
 6819      59E7B1A2 
 6820 01b2 D4E250A5 		.ascii	"\324\342P\245i\244\014Y\251I\231\016y\307\264;.Z'\000"
 6820      69A40C59 
 6820      A949990E 
ARM GAS  C:\Users\DJESSOU\AppData\Local\Temp\cc3eovRL.s 			page 256


 6820      79C7B43B 
 6820      2E5A2700 
 6821 01c6 BB3DBCE6 		.ascii	"\273=\274\346\3476\372!\263\013\"_[y \370\333\001\002"
 6821      E736FA21 
 6821      B30B225F 
 6821      5B7920F8 
 6821      DB0102
 6822 01d9 A97AA04D 		.ascii	"\251z\240M*\324\204\264\361\256F\300\013\304\022\226"
 6822      2AD484B4 
 6822      F1AE46C0 
 6822      0BC41296 
 6823 01e9 9BE2EBF8 		.ascii	"\233\342\353\370S9\251\263\" '\260\307\302Z\320\361"
 6823      5339A9B3 
 6823      222027B0 
 6823      C7C25AD0 
 6823      F1
 6824 01fa FE0806A3 		.ascii	"\376\010\006\243\245\350d9\364\010\242\323\362b~iT\375"
 6824      A5E86439 
 6824      F408A2D3 
 6824      F2627E69 
 6824      54FD
 6825 020c 9054D8D7 		.ascii	"\220T\330\327D\002+\244z\212\007\334\337\\\202o\362"
 6825      44022BA4 
 6825      7A8A07DC 
 6825      DF5C826F 
 6825      F2
 6826 021d 844BADF2 		.ascii	"\204K\255\362\374Th\215+\305\321\235f;\300g\255T\322"
 6826      FC54688D 
 6826      2BC5D19D 
 6826      663BC067 
 6826      AD54D2
 6827 0230 F0F0C4B8 		.ascii	"\360\360\304\270 <}u\313Z\267$\222\212\023\376J4\355"
 6827      203C7D75 
 6827      CB5AB724 
 6827      928A13FE 
 6827      4A34ED
 6828 0243 733A4445 		.ascii	"s:DE\321&\320\345\354\257IM\250E\313\300\346\322\336"
 6828      D126D0E5 
 6828      ECAF494D 
 6828      A845CBC0 
 6828      E6D2DE
 6829 0256 A4A51F5E 		.ascii	"\244\245\037^l\273\011\327\020\264}\217F\223\234\037"
 6829      6CBB09D7 
 6829      10B47D8F 
 6829      46939C1F 
 6830 0266 164CA44D 		.ascii	"\026L\244M\0138\030\005\245\253\223\017+\355\014\314"
 6830      0B381805 
 6830      A5AB930F 
 6830      2BED0CCC 
 6831 0276 7F4D5979 		.ascii	"\177MYy4Y\221\311L\340\201G\346\245\334^\331\237{Z?"
 6831      345991C9 
 6831      4CE08147 
 6831      E6A5DC5E 
 6831      D99F7B5A 
 6832 028b C7D349E3 		.ascii	"\307\323I\343>\347\275*\377\206\374h\333\177\025?nd"
 6832      3EE7BD2A 
 6832      FF86FC68 
ARM GAS  C:\Users\DJESSOU\AppData\Local\Temp\cc3eovRL.s 			page 257


 6832      DB7F153F 
 6832      6E64
 6833 029d 63A8749B 		.ascii	"c\250t\233\300E\223\226\014]\361\036\323A\376\377\220"
 6833      C0459396 
 6833      0C5DF11E 
 6833      D341FEFF 
 6833      90
 6834 02ae 4C002E6C 		.ascii	"L\000.l\223\243o\301X\200\027\254<B\033p\227q\321\326"
 6834      93A36FC1 
 6834      588017AC 
 6834      3C421B70 
 6834      9771D1D6 
 6835 02c2 5B07166A 		.ascii	"[\007\026j}\330%\220\272w\021\202\035\027\316^=\273"
 6835      7DD82590 
 6835      BA771182 
 6835      1D17CE5E 
 6835      3DBB
 6836 02d4 1805ED61 		.ascii	"\030\005\355a\243\361\315\000\356\303\316\266\373G\374"
 6836      A3F1CD00 
 6836      EEC3CEB6 
 6836      FB47FC
 6837 02e3 F11F34E8 		.ascii	"\361\0374\350g\276&\215 \212\203>\327\270\345\216\206"
 6837      67BE268D 
 6837      208A833E 
 6837      D7B8E58E 
 6837      86
 6838 02f4 C791E995 		.ascii	"\307\221\351\225\205\3210\337\304@\3026\250\324\341"
 6838      85D130DF 
 6838      C440C236 
 6838      A8D4E1
 6839 0303 C815B18F 		.ascii	"\310\025\261\217\231\002E!\237x\322\352\033H\247\273"
 6839      99024521 
 6839      9F78D2EA 
 6839      1B48A7BB 
 6840 0313 958246CF 		.ascii	"\225\202F\317\006\234MK\036\361\000\310\023L\243^\""
 6840      069C4D4B 
 6840      1EF100C8 
 6840      134CA35E 
 6840      22
 6841 0324 F00CBF0B 		.ascii	"\360\014\277\013o\037P\020\251\372\177\325\374z\360"
 6841      6F1F5010 
 6841      A9FA7FD5 
 6841      FC7AF0
 6842 0333 BA2787E1 		.ascii	"\272'\207\341\247&\"\337q\277k8\316\310\200\275\317"
 6842      A72622DF 
 6842      71BF6B38 
 6842      CEC880BD 
 6842      CF
 6843 0344 15DCF175 		.ascii	"\025\334\361u\251\020\206BU\311\233>5\210\234\367t\344"
 6843      A9108642 
 6843      55C99B3E 
 6843      35889CF7 
 6843      74E4
 6844 0356 15007D36 		.ascii	"\025\000}6a\371\213K\276\027\246\312\347J\202`\373\346"
 6844      61F98B4B 
 6844      BE17A6CA 
 6844      E74A8260 
ARM GAS  C:\Users\DJESSOU\AppData\Local\Temp\cc3eovRL.s 			page 258


 6844      FBE6
 6845 0368 BAA5619E 		.ascii	"\272\245a\236\303\223\361\354&\211\345>|\177n\031\264"
 6845      C393F1EC 
 6845      2689E53E 
 6845      7C7F6E19 
 6845      B4
 6846 0379 23CA4537 		.ascii	"#\312E7\030\\\315\327\246\377N\220h(\327{\306\316f\234"
 6846      185CCDD7 
 6846      A6FF4E90 
 6846      6828D77B 
 6846      C6CE669C 
 6847 038d C1226FD5 		.ascii	"\301\"o\325/\021\003\256@\217\304Fl\251rf\006\262\342"
 6847      2F1103AE 
 6847      408FC446 
 6847      6CA97266 
 6847      06B2E2
 6848 03a0 D8F3F622 		.ascii	"\330\363\366\"\324\246\002\312\2670'\216\020\266\334"
 6848      D4A602CA 
 6848      B730278E 
 6848      10B6DC
 6849 03af 5D1EA63D 		.ascii	"]\036\246=S\005t?\020xW|\353\231\211\003&Ea\263\334"
 6849      5305743F 
 6849      1078577C 
 6849      EB998903 
 6849      264561B3 
 6850 03c4 35056543 		.ascii	"5\005eC\217k=H\341)\3138\027\210'\337\351\311CKhQ\251"
 6850      8F6B3D48 
 6850      E129CB38 
 6850      178827DF 
 6850      E9C9434B 
 6851 03db B07B6F65 		.ascii	"\260{oe.Y\361\272\274\316D%\026R\231\250c\352k\357*"
 6851      2E59F1BA 
 6851      BCCE4425 
 6851      165299A8 
 6851      63EA6BEF 
 6852 03f0 B0DC977C 		.ascii	"\260\334\227|\264\264\234\244_\233g0\341\227\342wZ\200"
 6852      B4B49CA4 
 6852      5F9B6730 
 6852      E197E277 
 6852      5A80
 6853 0402 38B60E71 		.ascii	"8\266\016q\016\311\237\0360\276F\260\005\253O@\024\034"
 6853      0EC99F1E 
 6853      30BE46B0 
 6853      05AB4F40 
 6853      141C
 6854 0414 DF2D7FF8 		.ascii	"\337-\177\370\311\347\337\327O\336\372\364\347\260\200"
 6854      C9E7DFD7 
 6854      4FDEFAF4 
 6854      E7B080
 6855 0423 7C1221EF 		.ascii	"|\022!\357a\235\272\257A?\031^\300\004uw^\027\335\276"
 6855      619DBAAF 
 6855      413F195E 
 6855      C0047577 
 6855      5E17DDBE 
 6856 0437 422B8B7D 		.ascii	"B+\213}\372\370]\214'!\312u\205\016\212\234P\273\363"
 6856      FAF85D8C 
 6856      2721CA75 
ARM GAS  C:\Users\DJESSOU\AppData\Local\Temp\cc3eovRL.s 			page 259


 6856      850E8A9C 
 6856      50BBF3
 6857 044a 303EEFDA 		.ascii	"0>\357\332\333U\353\001|y\345\347\036\362\235\310\012"
 6857      DB55EB01 
 6857      7C79E5E7 
 6857      1EF29DC8 
 6857      0A
 6858 045b 3AED1474 		.ascii	":\355\024t\345\265<\001\355\025Y\323\227\337\214KX\022"
 6858      E5B53C01 
 6858      ED1559D3 
 6858      97DF8C4B 
 6858      5812
 6859 046d A748FB8A 		.ascii	"\247H\373\212\332\002L\253\020L6e\260\304\005\"Pg\214"
 6859      DA024CAB 
 6859      104C3665 
 6859      B0C40522 
 6859      50678C
 6860 0480 B9E55D37 		.ascii	"\271\345]7\363\331\240\015>\233S\210\324\204n\003\234"
 6860      F3D9A00D 
 6860      3E9B5388 
 6860      D4846E03 
 6860      9C
 6861 0491 CB4A4ADF 		.ascii	"\313JJ\337\035\234\326\266WW\237\272\353,[\206x-\331"
 6861      1D9CD6B6 
 6861      57579FBA 
 6861      EB2C5B86 
 6861      782DD9
 6862 04a4 EA40AE96 		.ascii	"\352@\256\226f]\253\273:\017\007C#\305f\001\255B\350"
 6862      665DABBB 
 6862      3A0F0743 
 6862      23C56601 
 6862      AD42E8
 6863 04b7 A6DB8166 		.ascii	"\246\333\201f\"\201\224P\0135\352\010\020\032\254\020"
 6863      22819450 
 6863      0B35EA08 
 6863      101AAC10 
 6864 04c7 81A5408C 		.ascii	"\201\245@\214n\347g*\007\026on\360h:\350x\356\324\323"
 6864      6EE7672A 
 6864      07166F6E 
 6864      F0683AE8 
 6864      78EED4D3 
 6865 04db 816FEDC2 		.ascii	"\201o\355\302Z\337d!\354\207\235\2767\032cQ;\224$\373"
 6865      5ADF6421 
 6865      EC879DBE 
 6865      371A6351 
 6865      3B9424FB 
 6866 04ef C4D51512 		.ascii	"\304\325\025\022\215\014\344\224\273\244\271\005\034"
 6866      8D0CE494 
 6866      BBA4B905 
 6866      1C
 6867 04fc A6718A35 		.ascii	"\246q\2125y6\030\276\252:\030e#Tc\254\363\025\3235\203"
 6867      793618BE 
 6867      AA3A1865 
 6867      235463AC 
 6867      F315D335 
 6868 0511 F9DA5545 		.ascii	"\371\332UERZ\312\252\340\003s\327\346\267!n\324di\323"
 6868      525ACAAA 
ARM GAS  C:\Users\DJESSOU\AppData\Local\Temp\cc3eovRL.s 			page 260


 6868      E00373D7 
 6868      E6B7216E 
 6868      D46469D3 
 6869 0525 BA3E46AE 		.ascii	"\272>F\256~\365\331\374\237\014g\011\3768\315\216y!"
 6869      7EF5D9FC 
 6869      9F0C6709 
 6869      FE38CD8E 
 6869      7921
 6870 0537 014C507B 		.ascii	"\001LP{\205\241\215\344\031Q\355Lt~\241k\3711\216\271"
 6870      85A18DE4 
 6870      1951ED4C 
 6870      747EA16B 
 6870      F9318EB9 
 6871 054b 87ACC59C 		.ascii	"\207\254\305\234\223x\335\323\323\351\327234\334\033"
 6871      9378DDD3 
 6871      D3E9D732 
 6871      3334DC1B 
 6872 055b F5358C03 		.ascii	"\3655\214\003\274\305\277\224?;\241\340\202\321\345"
 6872      BCC5BF94 
 6872      3F3BA1E0 
 6872      82D1E5
 6873 056a 24596720 		.ascii	"$Yg \256\222\025\005J\232\020\2724k\021bf\312\225\307"
 6873      AE921505 
 6873      4A9A10BA 
 6873      346B1162 
 6873      66CA95C7 
 6874 057e D011A2D6 		.ascii	"\320\021\242\326\205k\306\3231BX\\\356\371 Su\350\226"
 6874      856BC6D3 
 6874      3142585C 
 6874      EEF92053 
 6874      75E896
 6875 0591 420531A3 		.ascii	"B\0051\243eM\352\347G\023;\333\265TT\002\305\373\006"
 6875      654DEAE7 
 6875      47133BDB 
 6875      B5545402 
 6875      C5FB06
 6876 05a4 AC51E764 		.ascii	"\254Q\347d\326G\230\015\030\202\330\246\316\266\377"
 6876      D647980D 
 6876      1882D8A6 
 6876      CEB6FF
 6877 05b3 4A207236 		.ascii	"J r6\227\033\312\364\177\352\365\361\253~L\3167\031"
 6877      971BCAF4 
 6877      7FEAF5F1 
 6877      AB7E4CCE 
 6877      3719
 6878 05c5 28726827 		.ascii	"(rh'\205\337=r;+\000\254\346P\023R\272\370W$\261\"\225"
 6878      85DF3D72 
 6878      3B2B00AC 
 6878      E6501352 
 6878      BAF85724 
 6879 05dc 26A2C6B1 		.ascii	"&\242\306\261\352\025\245c\023\343\261\013\015\202M"
 6879      EA15A563 
 6879      13E3B10B 
 6879      0D824D
 6880 05eb 70719E4D 		.ascii	"pq\236M\244l\332\275}\266\214\371\271\304\307|\254m"
 6880      A46CDABD 
 6880      7DB68CF9 
ARM GAS  C:\Users\DJESSOU\AppData\Local\Temp\cc3eovRL.s 			page 261


 6880      B9C4C77C 
 6880      AC6D
 6881 05fd CDE3DD8F 		.ascii	"\315\343\335\217+-v\333\023;\214\373bE\020\366\014\232"
 6881      2B2D76DB 
 6881      133B8CFB 
 6881      624510F6 
 6881      0C9A
 6882 060f E8665081 		.ascii	"\350fP\201\332\251\250n\263%\362\320\346\003:\213\017"
 6882      DAA9A86E 
 6882      B325F2D0 
 6882      E6033A8B 
 6882      0F
 6883 0620 EC99FBFB 		.ascii	"\354\231\373\373\2308EH-S\241\325\217\336\210I\035v"
 6883      98384548 
 6883      2D53A1D5 
 6883      8FDE8849 
 6883      1D76
 6884 0632 DC14137C 		.ascii	"\334\024\023|\314\010\224\030\177\243!\370\204:B\033"
 6884      CC089418 
 6884      7FA321F8 
 6884      843A421B 
 6885 0642 AE61B189 		.ascii	"\256a\261\211\335 \207\305uh\263d\364\341\200X\364x"
 6885      DD2087C5 
 6885      7568B364 
 6885      F4E18058 
 6885      F478
 6886 0654 E35511EA 		.ascii	"\343U\021\352\377u\224\365\255Q\252\33734e>m?M+\315"
 6886      FF7594F5 
 6886      AD51AADF 
 6886      3334653E 
 6886      6D3F4D2B 
 6887 0669 13F771E9 		.ascii	"\023\367q\351A\200\205g\234\212V\357\241{\325\264I\306"
 6887      41808567 
 6887      9C8A56EF 
 6887      A17BD5B4 
 6887      49C6
 6888 067b 26A91764 		.ascii	"&\251\027d5S\354\020\312\374\276\315\224\013\020\256"
 6888      3553EC10 
 6888      CAFCBECD 
 6888      940B10AE 
 6889 068b B7DE8034 		.ascii	"\267\336\2004\246b.\225\300C\317\266\340\014\267T$\226"
 6889      A6622E95 
 6889      C043CFB6 
 6889      E00CB754 
 6889      2496
 6890 069d F7FAB04E 		.ascii	"\367\372\260N\336\306\353m\220a\310N\025\231h\277\227"
 6890      DEC6EB6D 
 6890      9061C84E 
 6890      159968BF 
 6890      97
 6891 06ae 11D71E28 		.ascii	"\021\327\036(\330\373\333\372\222O\275\275t\346\246"
 6891      D8FBDBFA 
 6891      924FBDBD 
 6891      74E6A6
 6892 06bd D2905A53 		.ascii	"\322\220ZS\243\366\272v+L=\335\311\225_\000\237\302"
 6892      A3F6BA76 
 6892      2B4C3DDD 
ARM GAS  C:\Users\DJESSOU\AppData\Local\Temp\cc3eovRL.s 			page 262


 6892      C9955F00 
 6892      9FC2
 6893 06cf D877856A 		.ascii	"\330w\205j\226R\255\377\217\230\260z\357\027\227Jx\225"
 6893      9652ADFF 
 6893      8F98B07A 
 6893      EF17974A 
 6893      7895
 6894 06e1 0B97D200 		.ascii	"\013\227\322\000\346\354vC\255\032\344\177\206r>\222"
 6894      E6EC7643 
 6894      AD1AE47F 
 6894      86723E92 
 6895 06f1 BCA6C731 		.ascii	"\274\246\3071\345\016\207>CR-8&\015\010\374_$\373#\323"
 6895      E50E873E 
 6895      43522D38 
 6895      260D08FC 
 6895      5F24FB23 
 6896 0706 1F430ED5 		.ascii	"\037C\016\325\032h\000)\307\305\2229\034\350\346BM\257"
 6896      1A680029 
 6896      C7C59239 
 6896      1CE8E642 
 6896      4DAF
 6897 0718 5C8146B5 		.ascii	"\\\201F\265\375\006^\322\324\303\200\031\240\374x\363"
 6897      FD065ED2 
 6897      D4C38019 
 6897      A0FC78F3 
 6898 0728 7E90438B 		.ascii	"~\220C\213\0279-\317Y\264\006\356u\364W\037\253\223"
 6898      17392DCF 
 6898      59B406EE 
 6898      75F4571F 
 6898      AB93
 6899 073a 1CB48B5E 		.ascii	"\034\264\213^{\277{\367\233U\326^\027\334\205'\341n"
 6899      7BBF7BF7 
 6899      9B55D65E 
 6899      17DC8527 
 6899      E16E
 6900 074c 8F2DCB67 		.ascii	"\217-\313g\004\225\221I\000l\257'\323\206\015\016\314"
 6900      04959149 
 6900      006CAF27 
 6900      D3860D0E 
 6900      CC
 6901 075d B18F5076 		.ascii	"\261\217Pv\253?\336\341\256\032\313W\330\2107\277\357"
 6901      AB3FDEE1 
 6901      AE1ACB57 
 6901      D88837BF 
 6901      EF
 6902 076e 87B10878 		.ascii	"\207\261\010x\377\214.s\002O\364\220\311rc\377\364\337"
 6902      FF8C2E73 
 6902      024FF490 
 6902      C97263FF 
 6902      F4DF
 6903 0780 10591033 		.ascii	"\020Y\02038\220\341\024#\267\326\212e\354\346\224\177"
 6903      3890E114 
 6903      23B7D68A 
 6903      65ECE694 
 6903      7F
 6904 0791 A47F5AA2 		.ascii	"\244\177Z\2428\\\370J\252\000\206\362\277\222>\244\217"
 6904      385CF84A 
ARM GAS  C:\Users\DJESSOU\AppData\Local\Temp\cc3eovRL.s 			page 263


 6904      AA0086F2 
 6904      BF923EA4 
 6904      8F
 6905 07a2 86E92394 		.ascii	"\206\351#\224^0\037\026\224\005\246\256\304\354U\363"
 6905      5E301F16 
 6905      9405A6AE 
 6905      C4EC55F3 
 6906 07b2 19A1253C 		.ascii	"\031\241%<\266\360$~\242\355A\005\214\025\331C\007\220"
 6906      B6F0247E 
 6906      A2ED4105 
 6906      8C15D943 
 6906      0790
 6907 07c4 D0C2BCA9 		.ascii	"\320\302\274\251\334:\360M\0101\220\235"
 6907      DC3AF04D 
 6907      0831909D 
 6908 07d0 CB699314 		.ascii	"\313i\223\024\210\317\013\265Y\3603S\241\313\232\312"
 6908      88CF0BB5 
 6908      59F03353 
 6908      A1CB9ACA 
 6909 07e0 7B4FEBA8 		.ascii	"{O\353\250\244\214\277i\246T\034D\013\322\252\346G\011"
 6909      A48CBF69 
 6909      A6541C44 
 6909      0BD2AAE6 
 6909      4709
 6910 07f2 72CCD8E5 		.ascii	"r\314\330\345Be\217=\003\231\273\231\210:\030\023\312"
 6910      42658F3D 
 6910      0399BB99 
 6910      883A1813 
 6910      CA
 6911 0803 9F878A84 		.ascii	"\237\207\212\204\307\202k\253\216\377^\271SfP{\016\236"
 6911      C7826BAB 
 6911      8EFF5EB9 
 6911      5366507B 
 6911      0E9E
 6912 0815 CCF0BD88 		.ascii	"\314\360\275\210\337\204P\211>L\350P\303\247]\366\234"
 6912      DF845089 
 6912      3E4CE850 
 6912      C3A75DF6 
 6912      9C
 6913 0826 E77ACBE6 		.ascii	"\347z\313\346$m\224\275g\001x\202\270\262\345\020*\210"
 6913      246D94BD 
 6913      67017882 
 6913      B8B2E510 
 6913      2A88
 6914 0838 512C3FAF 		.ascii	"Q,?\257\213f\020\360K\3268\222m\313\016U\370f\012O\337"
 6914      8B6610F0 
 6914      4BD63892 
 6914      6DCB0E55 
 6914      F8660A4F 
 6915 084d 568F5C29 		.ascii	"V\217\\)\003h\037\311,\322\225\022j\351\373\324\206"
 6915      03681FC9 
 6915      2CD29512 
 6915      6AE9FBD4 
 6915      86
 6916 085e 9AB288CF 		.ascii	"\232\262\210\317\231&r\273\022\373\340\212\011t\222"
 6916      992672BB 
 6916      12FBE08A 
ARM GAS  C:\Users\DJESSOU\AppData\Local\Temp\cc3eovRL.s 			page 264


 6916      097492
 6917 086d 556C3FD9 		.ascii	"Ul?\331+\372\020B\302\344\364\2732\241U\351/!\364\366"
 6917      2BFA1042 
 6917      C2E4F4BB 
 6917      32A155E9 
 6917      2F21F4F6 
 6918 0881 9306CFF7 		.ascii	"\223\006\317\367Z^S\036'\004\272\301\023\212\261\317"
 6918      5A5E531E 
 6918      2704BAC1 
 6918      138AB1CF 
 6919 0891 ADAC0906 		.ascii	"\255\254\011\006_\340p3C\274\232kJ\033\341\034v\362"
 6919      5FE07033 
 6919      43BC9A6B 
 6919      4A1BE11C 
 6919      76F2
 6920 08a3 11D1C473 		.ascii	"\021\321\304s&O(\3473\211\314\002\304\022\027|\373\320"
 6920      264F28E7 
 6920      3389CC02 
 6920      C412177C 
 6920      FBD0
 6921 08b5 E6488CD5 		.ascii	"\346H\214\3258f\364\264~\241\007\213\322\243\307\227"
 6921      3866F4B4 
 6921      7EA1078B 
 6921      D2A3C797 
 6922 08c5 D4F1D8D8 		.ascii	"\324\361\330\330\003\274\376\021\216\273\311\362^\216"
 6922      03BCFE11 
 6922      8EBBC9F2 
 6922      5E8E
 6923 08d3 C2574ECD 		.ascii	"\302WN\315\247)]\000\262~\213K\262\015\273\002\203j"
 6923      A7295D00 
 6923      B27E8B4B 
 6923      B20DBB02 
 6923      836A
 6924 08e5 6668546F 		.ascii	"fhTo\311\370\267\000\240o;\272P\341\316b\253\352\266"
 6924      C9F8B700 
 6924      A06F3BBA 
 6924      50E1CE62 
 6924      ABEAB6
 6925 08f8 1CBD74CB 		.ascii	"\034\275t\313\352\324\303}\342K\270Z-\377\234D\232\314"
 6925      EAD4C37D 
 6925      E24BB85A 
 6925      2DFF9C44 
 6925      9ACC
 6926 090a 711329B6 		.ascii	"q\023)\266(\273N\210\345\254\211B\266g\245\357\020\241"
 6926      28BB4E88 
 6926      E5AC8942 
 6926      B667A5EF 
 6926      10A1
 6927 091c D207D67F 		.ascii	"\322\007\326\177\370\233\220)|>\034q\257\323+\037\222"
 6927      F89B9029 
 6927      7C3E1C71 
 6927      AFD32B1F 
 6927      92
 6928 092d A5072EDD 		.ascii	"\245\007.\335uM.\\F\331n\014G\242\273\357\310\2773\223"
 6928      754D2E5C 
 6928      46D96E0C 
 6928      47A2BBEF 
ARM GAS  C:\Users\DJESSOU\AppData\Local\Temp\cc3eovRL.s 			page 265


 6928      C8BF3393 
 6929 0941 670AC7EE 		.ascii	"g\012\307\356W}@\227\205\220S\323\374t\033\276>\225"
 6929      577D4097 
 6929      859053D3 
 6929      FC741BBE 
 6929      3E95
 6930 0953 C8DCC8C8 		.ascii	"\310\334\310\310w\355+2F\224\0252\333\351\336\035Y?"
 6930      77ED2B32 
 6930      46941532 
 6930      DBE9DE1D 
 6930      593F
 6931 0965 BDB3B3B1 		.ascii	"\275\263\263\261\030\272\000R\270}\377x\230\010\036"
 6931      18BA0052 
 6931      B87DFF78 
 6931      98081E
 6932 0974 F4385139 		.ascii	"\3648Q9\354\356\300\242\372#)\342\032\007\3608\334S"
 6932      ECEEC0A2 
 6932      FA2329E2 
 6932      1A07F038 
 6932      DC53
 6933 0986 E213094A 		.ascii	"\342\023\011JI\007\006GI\007S3\010\272\\\312\301v\213"
 6933      49070647 
 6933      49075333 
 6933      08BA5CCA 
 6933      C1768B
 6934 0999 B0490C2C 		.ascii	"\260I\014,\235/?\225\013|)\331\032|\\\247J\273\002\000"
 6934      9D2F3F95 
 6934      0B7C29D9 
 6934      1A7C5CA7 
 6934      4ABB0200 
 6935 09ad 8056F133 		.ascii	"\200V\3613\232r\031U\375\276\010\001\011\374\302\220"
 6935      9A721955 
 6935      FDBE0801 
 6935      09FCC290 
 6936 09bd 71EED79A 		.ascii	"q\356\327\232P&\304\342'i\336\263S,\2632m\214wA\365"
 6936      5026C4E2 
 6936      2769DEB3 
 6936      532CB332 
 6936      6D8C7741 
 6937 09d2 26DD32B4 		.ascii	"&\3352\264S><\251}p\311\243MYV\224\270\360\241\011\365"
 6937      533E3CA9 
 6937      7D70C9A3 
 6937      4D595694 
 6937      B8F0A109 
 6938 09e7 A0432AC4 		.ascii	"\240C*\304\355'\260%(Oq\355\372y?\257\367\343\226\253"
 6938      ED27B025 
 6938      284F71ED 
 6938      FA793FAF 
 6938      F7E396AB 
 6939 09fb 6527B5B9 		.ascii	"e'\265\271\234`\207\007{F7\177\246\311\251Z.\342\257"
 6939      9C608707 
 6939      7B46377F 
 6939      A6C9A95A 
 6939      2EE2AF
 6940 0a0e 4B56D951 		.ascii	"KV\331Q0%\277E\333\226\267C\227\306*\315\204\264\342"
 6940      3025BF45 
 6940      DB96B743 
ARM GAS  C:\Users\DJESSOU\AppData\Local\Temp\cc3eovRL.s 			page 266


 6940      97C62ACD 
 6940      84B4E2
 6941 0a21 A2F27E04 		.ascii	"\242\362~\004\021\346W\225\364]\237\361Sx\227\311\""
 6941      11E65795 
 6941      F45D9FF1 
 6941      537897C9 
 6941      22
 6942 0a32 11DDCCBA 		.ascii	"\021\335\314\2723$\237\304z\315f\316\003\2713d\205\345"
 6942      33249FC4 
 6942      7ACD66CE 
 6942      03B93364 
 6942      85E5
 6943 0a44 92E1DF20 		.ascii	"\222\341\337 \355\307\322\230q6\353\272\343\024}\363"
 6943      EDC7D298 
 6943      7136EBBA 
 6943      E3147DF3 
 6944 0a54 ECEFAB47 		.ascii	"\354\357\253G_V}\024C\321\243\014\365\2634 \011\365"
 6944      5F567D14 
 6944      43D1A30C 
 6944      F5B33420 
 6944      09F5
 6945 0a66 507ABF02 		.ascii	"Pz\277\002\376bS\263\221`\364\011\341f\324\003\002M"
 6945      FE6253B3 
 6945      9160F409 
 6945      E166D403 
 6945      024D
 6946 0a78 CEDD0B6A 		.ascii	"\316\335\013j\231\014\235\367\007\377i\353\315K\246"
 6946      990C9DF7 
 6946      07FF69EB 
 6946      CD4BA6
 6947 0a87 9D55B749 		.ascii	"\235U\267I\335\357\303n\374\346\264w\276q\327UxT\347"
 6947      DDEFC36E 
 6947      FCE6B477 
 6947      BE71D755 
 6947      7854E7
 6948 0a9a C42394A9 		.ascii	"\304#\224\251k{M]\301\346gsDM5\240^:\344\241s\217\024"
 6948      6B7B4D5D 
 6948      C1E66773 
 6948      444D35A0 
 6948      5E3AE4A1 
 6949 0ab1 E8959BF5 		.ascii	"\350\225\233\365\226\246\267\213\006\352V\303c\371@"
 6949      96A6B78B 
 6949      06EA56C3 
 6949      63F940
 6950 0ac0 DDB26FB8 		.ascii	"\335\262o\270\325\3434T!\226k\325\005x\240\273\251\236"
 6950      D5E33454 
 6950      21966BD5 
 6950      0578A0BB 
 6950      A99E
 6951 0ad2 19598D24 		.ascii	"\031Y\215$\2732\305\001\325\227N\370h\360\001\177\336"
 6951      BB32C501 
 6951      D5974EF8 
 6951      68F0017F 
 6951      DE
 6952 0ae3 BCDB2C63 		.ascii	"\274\333,c-\332\211aBp\207F\214\365\037\224_\307\257"
 6952      2DDA8961 
 6952      42708746 
ARM GAS  C:\Users\DJESSOU\AppData\Local\Temp\cc3eovRL.s 			page 267


 6952      8CF51F94 
 6952      5FC7AF
 6953 0af6 66B65CB8 		.ascii	"f\266\\\270b%c(\236\243n\006\010\"H\336g\276/k\246\372"
 6953      62256328 
 6953      9EA36E06 
 6953      082248DE 
 6953      67BE2F6B 
 6954 0b0c B972EE05 		.ascii	"\271r\356\005\356#`\020\031\370\264\\\356mj\201Ix\267"
 6954      EE236010 
 6954      19F8B45C 
 6954      EE6D6A81 
 6954      4978B7
 6955 0b1f 1BD75673 		.ascii	"\033\327Vsz2\315\345u\362:\011\031=\364\002\273\266"
 6955      7A32CDE5 
 6955      75F23A09 
 6955      193DF402 
 6955      BBB6
 6956 0b31 BB79783D 		.ascii	"\273yx=\310\2546\232ZU4\276\255\201\261?1$wa\246l\264"
 6956      C8AC369A 
 6956      5A5534BE 
 6956      AD81B13F 
 6956      31247761 
 6957 0b48 F1DEC706 		.ascii	"\361\336\307\0069\307\254\263\232\225\311\012\276\222"
 6957      39C7ACB3 
 6957      9A95C90A 
 6957      BE92
 6958 0b56 588165A2 		.ascii	"X\201e\242\301/\025\201\301)\037\012(\306\322M\212:"
 6958      C12F1581 
 6958      C1291F0A 
 6958      28C6D24D 
 6958      8A3A
 6959 0b68 0A0B33C4 		.ascii	"\012\0133\304\355,\034y\334\231\372a\320\274\371\361"
 6959      ED2C1C79 
 6959      DC99FA61 
 6959      D0BCF9F1 
 6960 0b78 B5D3ADA4 		.ascii	"\265\323\255\244\205\037&\377\013\323qDI\314\357/\210"
 6960      851F26FF 
 6960      0BD37144 
 6960      49CCEF2F 
 6960      88
 6961 0b89 F4BC6009 		.ascii	"\364\274`\011\225\226\020\021$[\231\251\270z|8\373\353"
 6961      95961011 
 6961      245B99A9 
 6961      B87A7C38 
 6961      FBEB
 6962 0b9b A0967255 		.ascii	"\240\226rU\030\331\255-\011#r\314\334\302\015\330%\377"
 6962      18D9AD2D 
 6962      092372CC 
 6962      DCC20DD8 
 6962      25FF
 6963 0bad BACDB0A5 		.ascii	"\272\315\260\245\235\246\012N8P\205\312\202VF\271/\237"
 6963      9DA60A4E 
 6963      385085CA 
 6963      825646B9 
 6963      2F9F
 6964 0bbf 60187658 		.ascii	"`\030vX\300\015\274\346xT\322\262\204^i^*\214\312\325"
 6964      C00DBCE6 
ARM GAS  C:\Users\DJESSOU\AppData\Local\Temp\cc3eovRL.s 			page 268


 6964      7854D2B2 
 6964      845E695E 
 6964      2A8CCAD5 
 6965 0bd3 A4DAE343 		.ascii	"\244\332\343C\203\243/\365\313/f\317\344\242\001\006"
 6965      83A32FF5 
 6965      CB2F66CF 
 6965      E4A20106 
 6966 0be3 B92BAA70 		.ascii	"\271+\252p\263\200\375T2\234Pf6\212\2664\026\224\372"
 6966      B380FD54 
 6966      329C5066 
 6966      368AB634 
 6966      1694FA
 6967 0bf6 4E1E7297 		.ascii	"N\036r\227uL\227\216W=\207K\314j6\023r\234\014\012D"
 6967      754C978E 
 6967      573D874B 
 6967      CC6A3613 
 6967      729C0C0A 
 6968 0c0b 6AC63B2B 		.ascii	"j\306;+\014P\010\2452H\356\344,|\257\312\234\340\323"
 6968      0C5008A5 
 6968      3248EEE4 
 6968      2C7CAFCA 
 6968      9CE0D3
 6969 0c1e 589AD337 		.ascii	"X\232\3237\\\177\366\316A\276\272gT\371\304\017Ubc\301"
 6969      5C7FF6CE 
 6969      41BEBA67 
 6969      54F9C40F 
 6969      556263C1 
 6970 0c32 C7B42486 		.ascii	"\307\264$\206ks\225\237\377\267\2504\277\331\337\205"
 6970      6B73959F 
 6970      FFB7A834 
 6970      BFD9DF85 
 6971 0c42 503B4D42 		.ascii	"P;MB\362=\346\177\332\324;l\312! \306#\326T\274\322"
 6971      F23DE67F 
 6971      DAD43B6C 
 6971      CA2120C6 
 6971      23D654BC 
 6972 0c57 E86708B7 		.ascii	"\350g\010\267\373\263\240\210\271\012N;?>K8T\372\366"
 6972      FBB3A088 
 6972      B90A4E3B 
 6972      3F3E4B38 
 6972      54FAF6
 6973 0c6a 3D725E76 		.ascii	"=r^v_{\323.;\305\233\377{\277\336\210B\240zX(\271\216"
 6973      5F7BD32E 
 6973      3BC59BFF 
 6973      7BBFDE88 
 6973      42A07A58 
 6974 0c81 33DDCA65 		.ascii	"3\335\312eaD\260\235\356\257\263<*\371\336i\302:\311"
 6974      6144B09D 
 6974      EEAFB33C 
 6974      2AF9DE69 
 6974      C23AC9
 6975 0c94 EE15D4B5 		.ascii	"\356\025\324\265\011Y6\317\374\354 \303\201\275C\271"
 6975      095936CF 
 6975      FCEC20C3 
 6975      81BD43B9 
 6976 0ca4 CB2FB261 		.ascii	"\313/\262a#J\362\322\211\006M\023\224\363\370\015\343"
 6976      234AF2D2 
ARM GAS  C:\Users\DJESSOU\AppData\Local\Temp\cc3eovRL.s 			page 269


 6976      89064D13 
 6976      94F3F80D 
 6976      E3
 6977 0cb5 6599CBC4 		.ascii	"e\231\313\304\200c\015\221\025\004\215\274\276\020V"
 6977      80630D91 
 6977      15048DBC 
 6977      BE1056
 6978 0cc4 0B639FE8 		.ascii	"\013c\237\350 \357w(X?\265 h\211C\321\\\310\207\177"
 6978      20EF7728 
 6978      583FB520 
 6978      688943D1 
 6978      5CC8877F 
 6979 0cd8 008EA560 		.ascii	"\000\216\245`\023o\250n\310Lp\\c\032\360\250\217\233"
 6979      136FA86E 
 6979      C84C705C 
 6979      631AF0A8 
 6979      8F9B
 6980 0cea 9D82050E 		.ascii	"\235\202\005\016gR\025\330\022\017\366\276\202\022\252"
 6980      675215D8 
 6980      120FF6BE 
 6980      8212AA
 6981 0cf9 CA913201 		.ascii	"\312\2212\0011>|\374\003\267|\036\274\246mk;\311\231"
 6981      313E7CFC 
 6981      03B77C1E 
 6981      BCA66D6B 
 6981      3BC999
 6982 0d0c C6A824B0 		.ascii	"\306\250$\260F\327Bz\000\352\232\303\031\273\305\326"
 6982      46D7427A 
 6982      00EA9AC3 
 6982      19BBC5D6 
 6983 0d1c EBDD342E 		.ascii	"\353\3354.(\026\312\323\032\270\243\262\027\252\366"
 6983      2816CAD3 
 6983      1AB8A3B2 
 6983      17AAF6
 6984 0d2b 48BC52FB 		.ascii	"H\274R\373\000\335v\213\315\264\266\320\361xA(\2237"
 6984      00DD768B 
 6984      CDB4B6D0 
 6984      F1784128 
 6984      9337
 6985 0d3d 7ED8A440 		.ascii	"~\330\244@\202\330\233\330\032\203\301\\\311!\253\345"
 6985      82D89BD8 
 6985      1A83C15C 
 6985      C921ABE5 
 6986 0d4d 00E28994 		.ascii	"\000\342\211\224\226>N\215|\223\2144\274b$\226#\371"
 6986      963E4E8D 
 6986      7C938C34 
 6986      BC622496 
 6986      23F9
 6987 0d5f 78A4FD11 		.ascii	"x\244\375\021~\034\263:Sv\300E\343Y?Ae\004\210\365\216"
 6987      7E1CB33A 
 6987      5376C045 
 6987      E3593F41 
 6987      650488F5 
 6988 0d74 5972EEEF 		.ascii	"Yr\356\357\265\025\\\027\020/\222Q\030\030\245\301\323"
 6988      B5155C17 
 6988      102F9251 
 6988      1818A5C1 
ARM GAS  C:\Users\DJESSOU\AppData\Local\Temp\cc3eovRL.s 			page 270


 6988      D3
 6989 0d85 5215A71F 		.ascii	"R\025\247\037\024a+b\275F\226\210\271\275H^\376\257"
 6989      14612B62 
 6989      BD469688 
 6989      B9BD485E 
 6989      FEAF
 6990 0d97 3E2B3A95 		.ascii	">+:\225\274_\023\033\036Eg\334\021>\271\373\025\201"
 6990      BC5F131B 
 6990      1E4567DC 
 6990      113EB9FB 
 6990      1581
 6991 0da9 B2114BC4 		.ascii	"\262\021K\304`\361\324\254\334|8\007\034\315\226\211"
 6991      60F1D4AC 
 6991      DC7C3807 
 6991      1CCD9689 
 6992 0db9 B88E9749 		.ascii	"\270\216\227I\232\023\012\206\317\222\005\352>\030\251"
 6992      9A130A86 
 6992      CF9205EA 
 6992      3E18A9
 6993 0dc8 7530D6EB 		.ascii	"u0\326\353\356\365\237e`Y\017[{M\031\237K\007.W\321"
 6993      EEF59F65 
 6993      60590F5B 
 6993      7B4D199F 
 6993      4B072E57 
 6994 0ddd 3486A172 		.ascii	"4\206\241r\372\366\010\306\372\315QvV\0364:\025/\"\367"
 6994      FAF608C6 
 6994      FACD5176 
 6994      561E343A 
 6994      152F22F7 
 6995 0df1 A702BC77 		.ascii	"\247\002\274w\026\251\336\"LY\211\006\212\021_\305z"
 6995      16A9DE22 
 6995      4C598906 
 6995      8A115FC5 
 6995      7A
 6996 0e02 B1A38897 		.ascii	"\261\243\210\227\267\342\325\264a\271\303\003\"y\024"
 6996      B7E2D5B4 
 6996      61B9C303 
 6996      227914
 6997 0e11 D3771CA5 		.ascii	"\323w\034\245\254_=\001\022A\233\021G\263\366\326\316"
 6997      AC5F3D01 
 6997      12419B11 
 6997      47B3F6D6 
 6997      CE
 6998 0e22 9178D406 		.ascii	"\221x\324\006\355LF\335q\254\324\217w\350\273mbEK[g"
 6998      ED4C46DD 
 6998      71ACD48F 
 6998      77E8BB6D 
 6998      62454B5B 
 6999 0e37 212951E5 		.ascii	"!)Q\345:\020\351\332\226\300g\216]VW\252\256z\373DN"
 6999      3A10E9DA 
 6999      96C0678E 
 6999      5D5657AA 
 6999      AE7AFB44 
 7000 0e4c 319A7D6D 		.ascii	"1\232}m7\024\226\023\362\307zO\245,sh\260\035\010\210"
 7000      37149613 
 7000      F2C77A4F 
 7000      A52C7368 
ARM GAS  C:\Users\DJESSOU\AppData\Local\Temp\cc3eovRL.s 			page 271


 7000      B01D0888 
 7001 0e60 6E3B2798 		.ascii	"n;'\230\207\340\267F\252\243M\020W\015\325\227\245\000"
 7001      87E0B746 
 7001      AAA34D10 
 7001      570DD597 
 7001      A500
 7002 0e72 3EFBDC5F 		.ascii	">\373\334_\025\261\365\200\033\325\305\2048\312`:\226"
 7002      15B1F580 
 7002      1BD5C584 
 7002      38CA603A 
 7002      96
 7003 0e83 EC382895 		.ascii	"\3548(\225\032\361\006\267\310\212\023\252\024\226}"
 7003      1AF106B7 
 7003      C88A13AA 
 7003      14967D
 7004 0e92 7A7A29D6 		.ascii	"zz)\326\023\363\226\277|<\217\3114#g\005\355rT,\345"
 7004      13F396BF 
 7004      7C3C8FC9 
 7004      34236705 
 7004      ED72542C 
 7005 0ea7 E8AEF099 		.ascii	"\350\256\360\231\227\316WV{Q\236@\030\0221/\271\205"
 7005      97CE5756 
 7005      7B519E40 
 7005      1812312F 
 7005      B985
 7006 0eb9 C9AA1161 		.ascii	"\311\252\021aX\001\231\277\004\003\031\376\213\3720"
 7006      580199BF 
 7006      040319FE 
 7006      8BFA30
 7007 0ec8 6F9FC38F 		.ascii	"o\237\303\217\315\324BR\263\252\201\211\333\357\202"
 7007      CDD44252 
 7007      B3AA8189 
 7007      DBEF82
 7008 0ed7 34BE8FC7 		.ascii	"4\276\217\307\370L\342\354\3158tC\220\222\271\370<\025"
 7008      F84CE2EC 
 7008      CD387443 
 7008      9092B9F8 
 7008      3C15
 7009 0ee9 8911DF44 		.ascii	"\211\021\337D\206\020q\2262\230\277\005^\251\327\230"
 7009      86107196 
 7009      3298BF05 
 7009      5EA9D798 
 7010 0ef9 7F6558AA 		.ascii	"\177eX\252\257\332q\306\345\232\252\346\364\243t\346"
 7010      AFDA71C6 
 7010      E59AAAE6 
 7010      F4A374E6 
 7011 0f09 A99EA3F7 		.ascii	"\251\236\243\367\263\316\274\177\321\323\344\372\342"
 7011      B3CEBC7F 
 7011      D1D3E4FA 
 7011      E2
 7012 0f16 65A56661 		.ascii	"e\245fa\314@jE5\315\316\231\3758\373\302\371\210\267"
 7012      CC406A45 
 7012      35CDCE99 
 7012      FD38FBC2 
 7012      F988B7
 7013 0f29 B4C51481 		.ascii	"\264\305\024\201e\242\2628\321\260Z\272uK\217\300\012"
 7013      65A2B238 
ARM GAS  C:\Users\DJESSOU\AppData\Local\Temp\cc3eovRL.s 			page 272


 7013      D1B05ABA 
 7013      754B8FC0 
 7013      0A
 7014 0f3a BA2090FD 		.ascii	"\272 \220\375\361\370\207\300\323LzJ\245 ~8yP{#$\361"
 7014      F1F887C0 
 7014      D34C7A4A 
 7014      A5207E38 
 7014      79507B23 
 7015 0f50 0EA11ED2 		.ascii	"\016\241\036\322\327\313\255\335<\221\025\211\222\262"
 7015      D7CBADDD 
 7015      3C911589 
 7015      92B2
 7016 0f5e 2D6FF9C9 		.ascii	"-o\371\311\343I\236\005\376\2669\243\\9g*\324\004I\332"
 7016      E3499E05 
 7016      FEB639A3 
 7016      5C39672A 
 7016      D40449DA 
 7017 0f72 C2D31CC6 		.ascii	"\302\323\034\306O\012\225\237\216\355\330_]\225\231"
 7017      4F0A959F 
 7017      8EEDD85F 
 7017      5D9599
 7018 0f81 CF94BE29 		.ascii	"\317\224\276)\304\355\236h\373\225\035!*\234\217\206"
 7018      C4ED9E68 
 7018      FB951D21 
 7018      2A9C8F86 
 7019 0f91 CF04F60F 		.ascii	"\317\004\366\017]\377\002\243\216\235\366\027c\243\304"
 7019      5DFF02A3 
 7019      8E9DF617 
 7019      63A3C4
 7020 0fa0 EA7C2554 		.ascii	"\352|%T\016\205\220vP\013\323\327\035t\251|\232&\265"
 7020      0E859076 
 7020      500BD3D7 
 7020      1D74A97C 
 7020      9A26B5
 7021 0fb3 CEC1FCB2 		.ascii	"\316\301\374\2620\206\270\3625\215\356\374,`\310\252"
 7021      3086B8F2 
 7021      358DEEFC 
 7021      2C60C8AA 
 7022 0fc3 D63D4494 		.ascii	"\326=D\224\224\266\324y\217Q\022\3137`\024\302G\300"
 7022      94B6D479 
 7022      8F5112CB 
 7022      376014C2 
 7022      47C0
 7023 0fd5 EBEDF811 		.ascii	"\353\355\370\021EX\023\250\374\251\3331\371\313C\025"
 7023      455813A8 
 7023      FCA9DB31 
 7023      F9CB4315 
 7024 0fe5 6B4679E1 		.ascii	"kFy\341\034\257\277\022/l\357\027\374\302\375\212\355"
 7024      1CAFBF12 
 7024      2F6CEF17 
 7024      FCC2FD8A 
 7024      ED
 7025 0ff6 633469E2 		.ascii	"c4i\342\361,{\205\313\332\200\203\243\247\003\331M\340"
 7025      F12C7B85 
 7025      CBDA8083 
 7025      A3A703D9 
 7025      4DE0
ARM GAS  C:\Users\DJESSOU\AppData\Local\Temp\cc3eovRL.s 			page 273


 7026 1008 71A1A44A 		.ascii	"q\241\244J\344*\332\234\250>\370P\377f\252\365h\241"
 7026      E42ADA9C 
 7026      A83EF850 
 7026      FF66AAF5 
 7026      68A1
 7027 101a 41BD8831 		.ascii	"A\275\2101v\371\333\354\013\\\007V\031\307\2140\031"
 7027      76F9DBEC 
 7027      0B5C0756 
 7027      19C78C30 
 7027      19
 7028 102b 5DB8419B 		.ascii	"]\270A\233\337\010\213I\264\026\002\350b\017\270\014"
 7028      DF088B49 
 7028      B41602E8 
 7028      620FB80C 
 7029 103b 178C5B19 		.ascii	"\027\214[\031\012.%\360\362\016W?\214\376\001\015\255"
 7029      0A2E25F0 
 7029      F20E573F 
 7029      8CFE010D 
 7029      AD
 7030 104c 614B8B38 		.ascii	"aK\2138\356U\262\242\303\344\262\241l\226[\217B\360"
 7030      EE55B2A2 
 7030      C3E4B2A1 
 7030      6C965B8F 
 7030      42F0
 7031 105e DC6CF36D 		.ascii	"\334l\363mZ\310\333\365T\022Z\017\011\236\312\340\026"
 7031      5AC8DBF5 
 7031      54125A0F 
 7031      099ECAE0 
 7031      16
 7032 106f EB310169 		.ascii	"\3531\001i\265|\370f\264}2R\371\233J\267\222\346'y\034"
 7032      B57CF866 
 7032      B47D3252 
 7032      F99B4AB7 
 7032      92E62779 
 7033 1084 CECF9606 		.ascii	"\316\317\226\006\366\373\376\266\002{0\202\327\247I"
 7033      F6FBFEB6 
 7033      027B3082 
 7033      D7A749
 7034 1093 04F49AB2 		.ascii	"\004\364\232\262Y\344\034\373qUx\007\346X_\363\001b"
 7034      59E41CFB 
 7034      71557807 
 7034      E6585FF3 
 7034      0162
 7035 10a5 0CE62150 		.ascii	"\014\346!P|\011\231\343\310\263\321\234\251\234h\213"
 7035      7C0999E3 
 7035      C8B3D19C 
 7035      A99C688B 
 7036 10b5 415D49E7 		.ascii	"A]I\347y\034yaDR\372\360V\0019C\200\351\374\233\026"
 7036      791C7961 
 7036      4452FAF0 
 7036      56013943 
 7036      80E9FC9B 
 7037 10ca 05841D5E 		.ascii	"\005\204\035^\353\007\337\364#\357\367c)O\343\215\351"
 7037      EB07DFF4 
 7037      23EFF763 
 7037      294FE38D 
 7037      E9
ARM GAS  C:\Users\DJESSOU\AppData\Local\Temp\cc3eovRL.s 			page 274


 7038 10db A830BE18 		.ascii	"\2500\276\030\241\341o\2218\316\325W\213\003\316N\003"
 7038      A1E16F91 
 7038      38CED557 
 7038      8B03CE4E 
 7038      03
 7039 10ec D63C21FA 		.ascii	"\326<!\372dAO\006\332\002\327\030\330\035I\033\312/"
 7039      64414F06 
 7039      DA02D718 
 7039      D81D491B 
 7039      CA2F
 7040 10fe 8FBE2520 		.ascii	"\217\276% \314\243f\0146k\354}\225\246\307\362C\205"
 7040      CCA3660C 
 7040      366BEC7D 
 7040      95A6C7F2 
 7040      4385
 7041 1110 C6DF2738 		.ascii	"\306\337'8\231L#\331\016\344\352\340\035\324_\211\323"
 7041      994C23D9 
 7041      0EE4EAE0 
 7041      1DD45F89 
 7041      D3
 7042 1121 36084E42 		.ascii	"6\010NB\242\014Q5\271\323\030<\366}\024\017\261q\005"
 7042      A20C5135 
 7042      B9D3183C 
 7042      F67D140F 
 7042      B17105
 7043 1134 87D19324 		.ascii	"\207\321\223$\341%\360%\310\021pb\335\305J1\307\016"
 7043      E125F025 
 7043      C8117062 
 7043      DDC54A31 
 7043      C70E
 7044 1146 EEECCE1E 		.ascii	"\356\354\316\036]\021\216\245\204\225\272g\251\331\000"
 7044      5D118EA5 
 7044      8495BA67 
 7044      A9D900
 7045 1155 30D16B28 		.ascii	"0\321k(~\207\214\370a\265\301\253\206\255\230\377\373"
 7045      7E878CF8 
 7045      61B5C1AB 
 7045      86AD98FF 
 7045      FB
 7046 1166 C981BBAF 		.ascii	"\311\201\273\257\273#g\006\326s.\371\310\000P\322\032"
 7046      BB236706 
 7046      D6732EF9 
 7046      C80050D2 
 7046      1A
 7047 1177 8803C43B 		.ascii	"\210\003\304;C\306+\223\253\224\310+\213}Z\302\216u"
 7047      43C62B93 
 7047      AB94C82B 
 7047      8B7D5AC2 
 7047      8E75
 7048 1189 4F47132C 		.ascii	"OG\023,\304\016\220\351\032\217\020\306\347E\321\244"
 7048      C40E90E9 
 7048      1A8F10C6 
 7048      E745D1A4 
 7049 1199 4DF6E862 		.ascii	"M\366\350b\265\355\276e B^\035\016\007\230\002\356F"
 7049      B5EDBE65 
 7049      20425E1D 
 7049      0E079802 
ARM GAS  C:\Users\DJESSOU\AppData\Local\Temp\cc3eovRL.s 			page 275


 7049      EE46
 7050 11ab F6C398CF 		.ascii	"\366\303\230\317X5\375p\214\261\274X\265A\262<\207\364"
 7050      5835FD70 
 7050      8CB1BC58 
 7050      B541B23C 
 7050      87F4
 7051 11bd CB7260C7 		.ascii	"\313r`\307Uw\235\032\3078\204\352Ob\224\212\237\032"
 7051      55779D1A 
 7051      C73884EA 
 7051      4F62948A 
 7051      9F1A
 7052 11cf 972A6AB7 		.ascii	"\227*j\267o\312\001\277\235\037\224=\354z\365\340A\234"
 7052      6FCA01BF 
 7052      9D1F943D 
 7052      EC7AF5E0 
 7052      419C
 7053 11e1 67840789 		.ascii	"g\204\007\211\254\347\037\011\331\334\334}~\005\204"
 7053      ACE71F09 
 7053      D9DCDC7D 
 7053      7E0584
 7054 11f0 6D652E05 		.ascii	"me.\005\357\362@\217\3623\015\333\243\010\336I\212\267"
 7054      EFF2408F 
 7054      F2330DDB 
 7054      A308DE49 
 7054      8AB7
 7055 1202 AC9FE396 		.ascii	"\254\237\343\226\313X\004\323\246\034\244\203\367D\302"
 7055      CB5804D3 
 7055      A61CA483 
 7055      F744C2
 7056 1211 FE1E22BC 		.ascii	"\376\036\"\274\030\356\004\312\341\356\366(\037x}Gv"
 7056      18EE04CA 
 7056      E1EEF628 
 7056      1F787D47 
 7056      76
 7057 1222 93B1B5E0 		.ascii	"\223\261\265\340n\375\002\312\302aG\015\240\241\244"
 7057      6EFD02CA 
 7057      C261470D 
 7057      A0A1A4
 7058 1231 50B17A06 		.ascii	"P\261z\006\332#\244I\012\236%\200\256W\260dl\034?5\316"
 7058      DA23A449 
 7058      0A9E2580 
 7058      AE57B064 
 7058      6C1C3F35 
 7059 1246 72E91165 		.ascii	"r\351\021e\177\337\333\365\241\000oc|N\037M\352\016"
 7059      7FDFDBF5 
 7059      A1006F63 
 7059      7C4E1F4D 
 7059      EA0E
 7060 1258 F1D8E903 		.ascii	"\361\330\351\003\270X\177\315\222\301\030\013\023\345"
 7060      B8587FCD 
 7060      92C1180B 
 7060      13E5
 7061 1266 A48A0253 		.ascii	"\244\212\002SC\202`=\305\310\307i\340\021\031Z]\212"
 7061      4382603D 
 7061      C5C8C769 
 7061      E011195A 
 7061      5D8A
ARM GAS  C:\Users\DJESSOU\AppData\Local\Temp\cc3eovRL.s 			page 276


 7062 1278 3D1326AB 		.ascii	"=\023&\253+\017&y\372N1\024\0269\\`\312S019EP\341\245"
 7062      2B0F2679 
 7062      FA4E3114 
 7062      16395C60 
 7062      CA533031 
 7063 1291 7985785C 		.ascii	"y\205x\\\033\263#8^\231\225u\346;\255<W\363\353\342"
 7063      1BB32338 
 7063      5E999575 
 7063      E63BAD3C 
 7063      57F3EBE2 
 7064 12a5 BB7032C4 		.ascii	"\273p2\304@\273\301/\226\020H'\303\317+g\361,:\330R"
 7064      40BBC12F 
 7064      96104827 
 7064      C3CF2B67 
 7064      F12C3AD8 
 7065 12ba 29C06E76 		.ascii	")\300nv[s\351E\0239\321\207\217\212\025\014S\336\004"
 7065      5B73E945 
 7065      1339D187 
 7065      8F8A150C 
 7065      53DE04
 7066 12cd 0D614257 		.ascii	"\015aBW\257b\276\032\015\313\214\343\036\276\024\357"
 7066      AF62BE1A 
 7066      0DCB8CE3 
 7066      1EBE14EF 
 7067 12dd AFC35AEB 		.ascii	"\257\303Z\353\262S\314\260a\210DT\247\202J\361\013\270"
 7067      B253CCB0 
 7067      61884454 
 7067      A7824AF1 
 7067      0BB8
 7068 12ef DD2342FE 		.ascii	"\335#B\376\264l+-\300\325\361\321R\267\331\340\302\220"
 7068      B46C2B2D 
 7068      C0D5F1D1 
 7068      52B7D9E0 
 7068      C290
 7069 1301 A2CDB431 		.ascii	"\242\315\2641\223|On\027\360y#\374\007\036\253ZF\202"
 7069      937C4F6E 
 7069      17F07923 
 7069      FC071EAB 
 7069      5A4682
 7070 1314 E89D6181 		.ascii	"\350\235a\201\003p\002\346)=u\024\342\330\220\266e\001"
 7070      037002E6 
 7070      293D7514 
 7070      E2D890B6 
 7070      6501
 7071 1326 813FC000 		.ascii	"\201?\300\0009\276\351]\315\364\\\370\276\254\256r\004"
 7071      39BEE95D 
 7071      CDF45CF8 
 7071      BEACAE72 
 7071      04
 7072 1337 B320EDB0 		.ascii	"\263 \355\260lx\035\017*1u\033\231\307dK\363\261@\321"
 7072      6C781D0F 
 7072      2A31751B 
 7072      99C7644B 
 7072      F3B140D1 
 7073 134b 63699914 		.ascii	"ci\231\024gkPH\344P\376=I3\270B\2675>\352\315K\357\003"
 7073      676B5048 
 7073      E450FE3D 
ARM GAS  C:\Users\DJESSOU\AppData\Local\Temp\cc3eovRL.s 			page 277


 7073      4933B842 
 7073      B7353EEA 
 7074 1363 C740569F 		.ascii	"\307@V\237\003\250\243\026\3350\013y\257\353=Ae\015"
 7074      03A8A316 
 7074      DD300B79 
 7074      AFEB3D41 
 7074      650D
 7075 1375 242B422B 		.ascii	"$+B+4\225\222\251\025\036\331qJ\346\272\255\331D\217"
 7075      349592A9 
 7075      151ED971 
 7075      4AE6BAAD 
 7075      D9448F
 7076 1388 25F18F76 		.ascii	"%\361\217v\321t\347\026\223\211\273X\243*\366,\233\377"
 7076      D174E716 
 7076      9389BB58 
 7076      A32AF62C 
 7076      9BFF
 7077 139a 2C348440 		.ascii	",4\204@\325Q\256\241\301\037Q$V\216\332\315\377x7\005"
 7077      D551AEA1 
 7077      C11F5124 
 7077      568EDACD 
 7077      FF783705 
 7078 13ae EE1EBC9E 		.ascii	"\356\036\274\236\252@\317l\320\335C\351\033=O\252\260"
 7078      AA40CF6C 
 7078      D0DD43E9 
 7078      1B3D4FAA 
 7078      B0
 7079 13bf A930F856 		.ascii	"\2510\370V\276\367\375~\275\234\251\203\016`\314 \240"
 7079      BEF7FD7E 
 7079      BD9CA983 
 7079      0E60CC20 
 7079      A0
 7080 13d0 52629A2F 		.ascii	"Rb\232/& \311V\352\275k\271R\2015\374\247\346\211\006"
 7080      2620C956 
 7080      EABD6BB9 
 7080      528135FC 
 7080      A7E68906 
 7081 13e4 42E4E9E0 		.ascii	"B\344\351\340u\004?_A\322'\304\017\302\001\224\312H"
 7081      75043F5F 
 7081      41D227C4 
 7081      0FC20194 
 7081      CA48
 7082 13f6 33CA3495 		.ascii	"3\3124\225]Otg\364\007]\002<$P\301U\3540\006\034BG-"
 7082      5D4F7467 
 7082      F4075D02 
 7082      3C2450C1 
 7082      55EC3006 
 7083 140e 79031104 		.ascii	"y\003\021\004\241\316\006\312\320lC\367\255\236\341"
 7083      A1CE06CA 
 7083      D06C43F7 
 7083      AD9EE1
 7084 141d F261DDDF 		.ascii	"\362a\335\337\265k^\337*\204\3602\272\321)\360BG\345"
 7084      B56B5EDF 
 7084      2A84F032 
 7084      BAD129F0 
 7084      4247E5
 7085 1430 B50BA0F4 		.ascii	"\265\013\240\364\024P\027H\350e\332\245\242\257w#\372"
ARM GAS  C:\Users\DJESSOU\AppData\Local\Temp\cc3eovRL.s 			page 278


 7085      14501748 
 7085      E865DAA5 
 7085      A2AF7723 
 7085      FA
 7086 1441 FBAC317D 		.ascii	"\373\2541}e\350\367\031\371#FHi\237\214z\303\023\307"
 7086      65E8F719 
 7086      F9234648 
 7086      699F8C7A 
 7086      C313C7
 7087 1454 E7DCB0A0 		.ascii	"\347\334\260\240\034\353\340\336\015\325\336<\347 \303"
 7087      1CEBE0DE 
 7087      0DD5DE3C 
 7087      E720C3
 7088 1463 1B1F91D8 		.ascii	"\033\037\221\330\213\01684\014\341\322P\264\206\247"
 7088      8B0E3834 
 7088      0CE1D250 
 7088      B486A7
 7089 1472 392A7D75 		.ascii	"9*}u(\003\3136\260\006\307JT\355<\032.\025\002\024\254"
 7089      2803CB36 
 7089      B006C74A 
 7089      54ED3C1A 
 7089      2E150214 
 7090 1487 BB2F07B8 		.ascii	"\273/\007\270\226y\257\004\321\223\011\201\264\247\370"
 7090      9679AF04 
 7090      D1930981 
 7090      B4A7F8
 7091 1496 54DBACCA 		.ascii	"T\333\254\312\017am\262\350\260v6\225\003\326\253\345"
 7091      0F616DB2 
 7091      E8B07636 
 7091      9503D6AB 
 7091      E5
 7092 14a7 5596CD5E 		.ascii	"U\226\315^\203\367\372\211\262\310\306\216\"dp\366\032"
 7092      83F7FA89 
 7092      B2C8C68E 
 7092      226470F6 
 7092      1A
 7093 14b8 71D8BC9D 		.ascii	"q\330\274\235\350x\312p\205\002\034\212\024)\325G\302"
 7093      E878CA70 
 7093      85021C8A 
 7093      1429D547 
 7093      C2
 7094 14c9 882C0D44 		.ascii	"\210,\015Ds\230I\373A\212\315\320r\374\012\352\316\002"
 7094      739849FB 
 7094      418ACDD0 
 7094      72FC0AEA 
 7094      CE02
 7095 14db 666C418B 		.ascii	"flA\213\357$\207\2262u\251,\033\177\366\313\002\240"
 7095      EF248796 
 7095      3275A92C 
 7095      1B7FF6CB 
 7095      02A0
 7096 14ed AB9617D0 		.ascii	"\253\226\027\320z\352:a\215F\336/T\230\222\334/\210"
 7096      7AEA3A61 
 7096      8D46DE2F 
 7096      549892DC 
 7096      2F88
 7097 14ff 2F449129 		.ascii	"/D\221)\033\013\201\273\210q\344\206W\300\207]\217\225"
ARM GAS  C:\Users\DJESSOU\AppData\Local\Temp\cc3eovRL.s 			page 279


 7097      1B0B81BB 
 7097      8871E486 
 7097      57C0875D 
 7097      8F95
 7098 1511 205D807B 		.ascii	" ]\200{F\264\177\334\005\326\037@\226\015Y\213f\274"
 7098      46B47FDC 
 7098      05D61F40 
 7098      960D598B 
 7098      66BC
 7099 1523 2EE25E45 		.ascii	".\342^ECw+C$W\372\226:r_\354\\\222s\022\006\255}\305"
 7099      43772B43 
 7099      2457FA96 
 7099      3A725FEC 
 7099      5C927312 
 7100 153b 6BF57CE4 		.ascii	"k\365|\344\340\271s f\005\0039s\372\004\"9\223\205 "
 7100      E0B97320 
 7100      66050339 
 7100      73FA0422 
 7100      39938520 
 7101 154f F3844DA7 		.ascii	"\363\204M\247\267L\250\276\012\024\240d\317\203\306"
 7101      B74CA8BE 
 7101      0A14A064 
 7101      CF83C6
 7102 155e 0A2BE368 		.ascii	"\012+\343h\006w\265\370\337K\354\260\230!\023\205\270"
 7102      0677B5F8 
 7102      DF4BECB0 
 7102      98211385 
 7102      B8
 7103 156f 0FBB7B47 		.ascii	"\017\273{Gv\206\310\364P\204r\344\000V\015\350\203\021"
 7103      7686C8F4 
 7103      508472E4 
 7103      00560DE8 
 7103      8311
 7104 1581 55729C55 		.ascii	"Ur\234U\311:W\364\307\313q\352\234\246*\341{i\022\027"
 7104      C93A57F4 
 7104      C7CB71EA 
 7104      9CA62AE1 
 7104      7B691217 
 7105 1595 76DF184F 		.ascii	"v\337\030O\206|\271\323\266+\032\252S\206\346\216\034"
 7105      867CB9D3 
 7105      B62B1AAA 
 7105      5386E68E 
 7105      1C
 7106 15a6 3FE16C04 		.ascii	"?\341l\004\015,O\012\034J\243T\177\015L\317\2534go\313"
 7106      0D2C4F0A 
 7106      1C4AA354 
 7106      7F0D4CCF 
 7106      AB34676F 
 7107 15bb F8538188 		.ascii	"\370S\201\210\347\270\220u\221\336\031G]^Hg\275\234"
 7107      E7B89075 
 7107      91DE1947 
 7107      5D5E4867 
 7107      BD9C
 7108 15cd A663EDDC 		.ascii	"\246c\355\334f5V@\266\222&\360=\255SpkE\004\3176m\222"
 7108      66355640 
 7108      B69226F0 
 7108      3DAD5370 
ARM GAS  C:\Users\DJESSOU\AppData\Local\Temp\cc3eovRL.s 			page 280


 7108      6B4504CF 
 7109 15e4 4AD45DF9 		.ascii	"J\324]\371\250\307\223\365R\370\006#\216r\376\277\202"
 7109      A8C793F5 
 7109      52F80623 
 7109      8E72FEBF 
 7109      82
 7110 15f5 71AC5D5B 		.ascii	"q\254][\203\325/\335\342\035\210\272>\002^\206u\252"
 7110      83D52FDD 
 7110      E21D88BA 
 7110      3E025E86 
 7110      75AA
 7111 1607 756A885B 		.ascii	"uj\210[\350\301\0033\372u\230\215\212\014~\177\206T"
 7111      E8C10333 
 7111      FA75988D 
 7111      8A0C7E7F 
 7111      8654
 7112 1619 82848EA1 		.ascii	"\202\204\216\241\202m\037\207\213@\360:m\353`\330\222"
 7112      826D1F87 
 7112      8B40F03A 
 7112      6DEB60D8 
 7112      92
 7113 162a 7AB37CA8 		.ascii	"z\263|\250$\306\333\250\244\020dQ\3227\362\227\361P"
 7113      24C6DBA8 
 7113      A4106451 
 7113      D237F297 
 7113      F150
 7114 163c 4C2BEF78 		.ascii	"L+\357xaV\000!\217z\242\2061\260\201\227\356aa\255\012"
 7114      61560021 
 7114      8F7AA286 
 7114      31B08197 
 7114      EE6161AD 
 7115 1651 CC19E20C 		.ascii	"\314\031\342\014*\302A\216_\014\034\\\320d\224A$\302"
 7115      2AC2418E 
 7115      5F0C1C5C 
 7115      D0649441 
 7115      24C2
 7116 1663 1AE70E28 		.ascii	"\032\347\016(\350\375\263\305\355\361\335\311\224V\317"
 7116      E8FDB3C5 
 7116      EDF1DDC9 
 7116      9456CF
 7117 1672 79734A94 		.ascii	"ysJ\224\336w\375>\353\\\177\327\322Y\035\020_\\?\356"
 7117      DE77FD3E 
 7117      EB5C7FD7 
 7117      D2591D10 
 7117      5F5C3FEE 
 7118 1686 8AD18B3B 		.ascii	"\212\321\213;\301\271\360\242\363\005\213yvey\321\373"
 7118      C1B9F0A2 
 7118      F3058B79 
 7118      766579D1 
 7118      FB
 7119 1697 8F3831DC 		.ascii	"\21781\334\022\207\011\\\362\250b\267\250\274E\366\224"
 7119      1287095C 
 7119      F2A862B7 
 7119      A8BC45F6 
 7119      94
 7120 16a8 3CBBA8F2 		.ascii	"<\273\250\362\027+C\005Y38\374\326\377$xtrp\312Qu\373"
 7120      172B4305 
ARM GAS  C:\Users\DJESSOU\AppData\Local\Temp\cc3eovRL.s 			page 281


 7120      593338FC 
 7120      D6FF2478 
 7120      747270CA 
 7121 16bf 89C862B0 		.ascii	"\211\310b\260\323%gW\210o\2707\263J!j\017\277/<\243"
 7121      D3256757 
 7121      886FB837 
 7121      B34A216A 
 7121      0FBF2F3C 
 7122 16d4 B5723BB8 		.ascii	"\265r;\270p\261Q=dwy\301\011\2100\303OG\266|\373*\315"
 7122      70B1513D 
 7122      647779C1 
 7122      098830C3 
 7122      4F47B67C 
 7123 16eb F465FBF9 		.ascii	"\364e\373\371\371yPk\205\264\246G\000\031bJ\351xg\331"
 7123      F979506B 
 7123      85B4A647 
 7123      0019624A 
 7123      E97867D9 
 7124 16ff 6B42709F 		.ascii	"kBp\237l(\036Y\245\027\033N\357\213\032\332\011a\\\010"
 7124      6C281E59 
 7124      A5171B4E 
 7124      EF8B1ADA 
 7124      09615C08 
 7125 1713 9B1D578B 		.ascii	"\233\035W\213\261\034\361Nn\007\320\207X\367\010\376"
 7125      B11CF14E 
 7125      6E07D087 
 7125      58F708FE 
 7126 1723 8B6A159E 		.ascii	"\213j\025\236(G\206\343\204\251p\340\001-)\"O9\216\017"
 7126      284786E3 
 7126      84A970E0 
 7126      012D2922 
 7126      4F398E0F 
 7127 1737 F430471B 		.ascii	"\3640G\033x\"\010\002 \240\3067`\217\016\205\372-\331"
 7127      78220802 
 7127      20A0C637 
 7127      608F0E85 
 7127      FA2DD9
 7128 174a 69536FF2 		.ascii	"iSo\3622n\032O;\227\2126m\242m\000\253\273\006M\276"
 7128      326E1A4F 
 7128      3B978A36 
 7128      6DA26D00 
 7128      ABBB064D 
 7129 175f AC291E0D 		.ascii	"\254)\036\015}\020Jd\302f2z\277c\037\250\030"
 7129      7D104A64 
 7129      C266327A 
 7129      BF631FA8 
 7129      18
 7130 1770 D4BA4B09 		.ascii	"\324\272K\011\235Tj\005\370\344\324\221>\323\350\026"
 7130      9D546A05 
 7130      F8E4D491 
 7130      3ED3E816 
 7131 1780 1E1A9A17 		.ascii	"\036\032\232\027\330\027t|1\241\251 \030q0\325\374\032"
 7131      D817747C 
 7131      31A1A920 
 7131      187130D5 
 7131      FC1A
 7132 1792 738199CB 		.ascii	"s\201\231\313o\230W\007l\017L\330\033T\323Y<\266\020"
ARM GAS  C:\Users\DJESSOU\AppData\Local\Temp\cc3eovRL.s 			page 282


 7132      6F985707 
 7132      6C0F4CD8 
 7132      1B54D359 
 7132      3CB610
 7133 17a5 A9278D47 		.ascii	"\251'\215G\336h\2150\3323\203f\300\2748\370D\267\266"
 7133      DE688D30 
 7133      DA338366 
 7133      C0BC38F8 
 7133      44B7B6
 7134 17b8 D509A1C6 		.ascii	"\325\011\241\306\275a\206\306\336|\354\214\020\352'"
 7134      BD6186C6 
 7134      DE7CEC8C 
 7134      10EA27
 7135 17c7 E091CA8C 		.ascii	"\340\221\312\214\206\260\210\013g\345?W{X\352\305\252"
 7135      86B0880B 
 7135      67E53F57 
 7135      7B58EAC5 
 7135      AA
 7136 17d8 09211D24 		.ascii	"\011!\035$\204\231:\013\011\353\266\377\230\250\234"
 7136      84993A0B 
 7136      09EBB6FF 
 7136      98A89C
 7137 17e7 74E44B5A 		.ascii	"t\344KZ\"\372ofS]\\\223\024\027\330c\310\221V\262:~"
 7137      22FA6F66 
 7137      535D5C93 
 7137      1417D863 
 7137      C89156B2 
 7138 17fd 52ED4039 		.ascii	"R\355@9\003Mg\320\371\371\340\2301\235\323\265~\226"
 7138      034D67D0 
 7138      F9F9E098 
 7138      319DD3B5 
 7138      7E96
 7139 180f 55567A7E 		.ascii	"UVz~\363O\375\254\363\262y*\036[\350W\260\202\200\217"
 7139      F34FFDAC 
 7139      F3B2792A 
 7139      1E5BE857 
 7139      B082808F 
 7140 1823 FE0501C5 		.ascii	"\376\005\001\305\312\254\334\240\332\261\324`[\315["
 7140      CAACDCA0 
 7140      DAB1D460 
 7140      5BCD5B
 7141 1832 EAB34D7E 		.ascii	"\352\263M~\251\334WA)\275\323\236\224\\\367a=\300\300"
 7141      A9DC5741 
 7141      29BDD39E 
 7141      945CF761 
 7141      3DC0C0
 7142 1845 8F3BA15E 		.ascii	"\217;\241^H=pv\237\332I\213gL\364d\\\212z]\376\012\361"
 7142      483D7076 
 7142      9FDA498B 
 7142      674CF464 
 7142      5C8A7A5D 
 7143 185c 8F79762A 		.ascii	"\217yv*\323\224\012]\362\272U\326\240\320\236\2045\013"
 7143      D3940A5D 
 7143      F2BA55D6 
 7143      A0D09E84 
 7143      350B
 7144 186e 9FEE3F94 		.ascii	"\237\356?\224\302\225\313\315&\033vj7D\016OC\361T\316"
ARM GAS  C:\Users\DJESSOU\AppData\Local\Temp\cc3eovRL.s 			page 283


 7144      C295CBCD 
 7144      261B766A 
 7144      37440E4F 
 7144      43F154CE 
 7145 1882 4B8D6158 		.ascii	"K\215aXB\031\234T\216\212l\002\277(\274\223$pR&\364"
 7145      42199C54 
 7145      8E8A6C02 
 7145      BF28BC93 
 7145      24705226 
 7146 1897 926D96E2 		.ascii	"\222m\226\342\247\254\307\232\346kud&J\366\3753\024"
 7146      A7ACC79A 
 7146      E66B7564 
 7146      264AF6FD 
 7146      3314
 7147 18a9 3042F5B4 		.ascii	"0B\365\264\001D|\306E\026\261w\271\230\363^\266\361"
 7147      01447CC6 
 7147      4516B177 
 7147      B998F35E 
 7147      B6F1
 7148 18bb 464349EA 		.ascii	"FCI\352\275\317f\0064M{\334\037\207\327\321(\241\011"
 7148      BDCF6606 
 7148      344D7BDC 
 7148      1F87D7D1 
 7148      28A109
 7149 18ce 5C4B8E63 		.ascii	"\\K\216c\227\360h?\010e\250\224.\310k\204\013\342\301"
 7149      97F0683F 
 7149      0865A894 
 7149      2EC86B84 
 7149      0BE2C1
 7150 18e1 E3A45BF0 		.ascii	"\343\244[\360\222\203/\316\321]-L\321\000\356\012\245"
 7150      92832FCE 
 7150      D15D2D4C 
 7150      D100EE0A 
 7150      A5
 7151 18f2 A91FDF98 		.ascii	"\251\037\337\230\2738B\342\002\020[\366\214\316\215"
 7151      BB3842E2 
 7151      02105BF6 
 7151      8CCE8D
 7152 1901 75920E81 		.ascii	"u\222\016\201i\233\003\031\366\351#\367r~fd1\2719jV"
 7152      699B0319 
 7152      F6E923F7 
 7152      727E6664 
 7152      31B9396A 
 7153 1916 60A65158 		.ascii	"`\246QX?J\005\350\245V\000\252\022\3144=\264\016\370"
 7153      3F4A05E8 
 7153      A55600AA 
 7153      12CC343D 
 7153      B40EF8
 7154 1929 E8206E70 		.ascii	"\350 np\222\325|\336\365\012\"\374\340Ld\275\236\220"
 7154      92D57CDE 
 7154      F50A22FC 
 7154      E04C64BD 
 7154      9E90
 7155 193b D62738EB 		.ascii	"\326'8\353\033\274a\306n\341\366\255\245\335=\203\353"
 7155      1BBC61C6 
 7155      6EE1F6AD 
 7155      A5DD3D83 
ARM GAS  C:\Users\DJESSOU\AppData\Local\Temp\cc3eovRL.s 			page 284


 7155      EB
 7156 194c 522CF0EF 		.ascii	"R,\360\357\357&\026\3611\005\320I\246<P\252\321\257"
 7156      EF2616F1 
 7156      3105D049 
 7156      A63C50AA 
 7156      D1AF
 7157 195e 372743F1 		.ascii	"7'C\361\233p\025\220\006\010\367\215\201\361\224\001"
 7157      9B701590 
 7157      0608F78D 
 7157      81F19401 
 7158 196e D9A47791 		.ascii	"\331\244w\221\335]\252\376r\030\272\244\350\3326p\250"
 7158      DD5DAAFE 
 7158      7218BAA4 
 7158      E8DA3670 
 7158      A8
 7159 197f E89F32F1 		.ascii	"\350\2372\361^\302\353\276]\376\321\326Q\342N\022\327"
 7159      5EC2EBBE 
 7159      5DFED1D6 
 7159      51E24E12 
 7159      D7
 7160 1990 FC36E5D1 		.ascii	"\3746\345\321\252+p\357`\246Y\015\205\371\302\321\230"
 7160      AA2B70EF 
 7160      60A6590D 
 7160      85F9C2D1 
 7160      98
 7161 19a1 16F5E4C9 		.ascii	"\026\365\344\311\254R:\373*\347\362\227T\177F,\304_"
 7161      AC523AFB 
 7161      2AE7F297 
 7161      547F462C 
 7161      C45F
 7162 19b3 393350D2 		.ascii	"93P\322\344\207\327\247\374\327\216\020\314_\031'\332"
 7162      E487D7A7 
 7162      FCD78E10 
 7162      CC5F1927 
 7162      DA
 7163 19c4 61BAAFF8 		.ascii	"a\272\257\370\315\225Fx\347\255I\2078G\320Q\267\022"
 7163      CD954678 
 7163      E7AD4987 
 7163      3847D051 
 7163      B712
 7164 19d6 F7AB0021 		.ascii	"\367\253\000!k\222;k\003\031\235\202\227fp\261\374\244"
 7164      6B923B6B 
 7164      03199D82 
 7164      976670B1 
 7164      FCA4
 7165 19e8 5D144CC6 		.ascii	"]\024L\3061\260o<\334\342yP\365}\3204\200|\021\276\254"
 7165      31B06F3C 
 7165      DCE27950 
 7165      F57DD034 
 7165      807C11BE 
 7166 19fd 640B69B7 		.ascii	"d\013i\267T\200V/\001\315U\353\"\002\242\026\020\276"
 7166      5480562F 
 7166      01CD55EB 
 7166      2202A216 
 7166      10BE
 7167 1a0f 32205DB9 		.ascii	"2 ]\271\377n\374\245\306\032\215\255\246\205\324\037"
 7167      FF6EFCA5 
ARM GAS  C:\Users\DJESSOU\AppData\Local\Temp\cc3eovRL.s 			page 285


 7167      C61A8DAD 
 7167      A685D41F 
 7168 1a1f D5007FAC 		.ascii	"\325\000\177\254\327\024\351`@^\334\376\303\355F\371"
 7168      D714E960 
 7168      405EDCFE 
 7168      C3ED46F9 
 7169 1a2f 1A254014 		.ascii	"\032%@\024x;H\006\220\376\241\322\331\237\2372CD\032"
 7169      783B4806 
 7169      90FEA1D2 
 7169      D99F9F32 
 7169      43441A
 7170 1a42 EC7A0171 		.ascii	"\354z\001q\024\356\177/)\300U\235\233\011\252\021\317"
 7170      14EE7F2F 
 7170      29C0559D 
 7170      9B09AA11 
 7170      CF
 7171 1a53 33EB6C92 		.ascii	"3\353l\222\327\016|\241 \370\342t\352\211j\305\331\360"
 7171      D70E7CA1 
 7171      20F8E274 
 7171      EA896AC5 
 7171      D9F0
 7172 1a65 BFE2353C 		.ascii	"\277\3425<u\277\010\347\366\210\333\272\017E\254\213"
 7172      75BF08E7 
 7172      F688DBBA 
 7172      0F45AC8B 
 7173 1a75 5B39693E 		.ascii	"[9i>)\306\201\371@\207\352\330\036\356\217\261\361\320"
 7173      29C681F9 
 7173      4087EAD8 
 7173      1EEE8FB1 
 7173      F1D0
 7174 1a87 F3911F12 		.ascii	"\363\221\037\022\363\343\254\201yx\332\232X\002\377"
 7174      F3E3AC81 
 7174      7978DA9A 
 7174      5802FF
 7175 1a96 642BF0FE 		.ascii	"d+\360\376LH\037D\376'\351\032Z\223\241\033\212\232"
 7175      4C481F44 
 7175      FE27E91A 
 7175      5A93A11B 
 7175      8A9A
 7176 1aa8 2E2CEF5C 		.ascii	".,\357\\^\330\262\255JJ\211\244[\222\003y\241\265\324"
 7176      5ED8B2AD 
 7176      4A4A89A4 
 7176      5B920379 
 7176      A1B5D4
 7177 1abb 0095B072 		.ascii	"\000\225\260r+\342\237\353\316A\363\332w*\264\352vO"
 7177      2BE29FEB 
 7177      CE41F3DA 
 7177      772AB4EA 
 7177      764F
 7178 1acd F4559D9A 		.ascii	"\364U\235\232=\312C\374h\374A\337&G\342SD\262Q\\5\243"
 7178      3DCA43FC 
 7178      68FC41DF 
 7178      2647E253 
 7178      44B2515C 
 7179 1ae3 CD2B9EDF 		.ascii	"\315+\236\337qR\310u\306'Vpn\264`uS\\\267\002[\036\266"
 7179      7152C875 
 7179      C6275670 
ARM GAS  C:\Users\DJESSOU\AppData\Local\Temp\cc3eovRL.s 			page 286


 7179      6EB46075 
 7179      535CB702 
 7180 1afa FF183D85 		.ascii	"\377\030=\2059?\340\365?\346 \004\224\205\332=\0337"
 7180      393FE0F5 
 7180      3FE62004 
 7180      9485DA3D 
 7180      1B37
 7181 1b0c C0B17187 		.ascii	"\300\261q\207;9\250b\003\240oY\215\261H\361]+\016\377"
 7181      3B39A862 
 7181      03A06F59 
 7181      8DB148F1 
 7181      5D2B0EFF 
 7182 1b20 E8E8B80F 		.ascii	"\350\350\270\017\264(A\324\372\300\220wt\334\305\301"
 7182      B42841D4 
 7182      FAC09077 
 7182      74DCC5C1 
 7183 1b30 5FC865CF 		.ascii	"_\310e\317\007\271\313\345\216V\205\376\200O\245\215"
 7183      07B9CBE5 
 7183      8E5685FE 
 7183      804FA58D 
 7184 1b40 15827AD1 		.ascii	"\025\202z\321\257\225+\037\342\253\003\337\024B@\237"
 7184      AF952B1F 
 7184      E2AB03DF 
 7184      1442409F 
 7185 1b50 E914803F 		.ascii	"\351\024\200?\036\016\326,\3023\024\206\010m\351\365"
 7185      1E0ED62C 
 7185      C2331486 
 7185      086DE9F5 
 7186 1b60 FAC02776 		.ascii	"\372\300'vY\022\035l\263\017\027\370\254y#3\241\"qi"
 7186      59121D6C 
 7186      B30F17F8 
 7186      AC792333 
 7186      A1227169 
 7187 1b74 3BA70AD2 		.ascii	";\247\012\322M\231_G\3663\231\256<\242\321wh\235\034"
 7187      4D995F47 
 7187      F63399AE 
 7187      3CA2D177 
 7187      689D1C
 7188 1b87 A3E79BB5 		.ascii	"\243\347\233\265\277\020\261x\363U\021\311K|\372Trm"
 7188      BF10B178 
 7188      F35511C9 
 7188      4B7CFA54 
 7188      726D
 7189 1b99 3796AE40 		.ascii	"7\226\256@i){\302\023\033\305\202</\321\247\275\361"
 7189      69297BC2 
 7189      131BC582 
 7189      3C2FD1A7 
 7189      BDF1
 7190 1bab 6333396F 		.ascii	"c39oF\327\321\374\336\021\257\236L\250\352s\242'~\240"
 7190      46D7D1FC 
 7190      DE11AF9E 
 7190      4CA8EA73 
 7190      A2277EA0 
 7191 1bbf 943EFFC2 		.ascii	"\224>\377\302L\345{9\321\011\"\033a\300\341\027\261"
 7191      4CE57B39 
 7191      D109221B 
 7191      61C0E117 
ARM GAS  C:\Users\DJESSOU\AppData\Local\Temp\cc3eovRL.s 			page 287


 7191      B1
 7192 1bd0 A7981E94 		.ascii	"\247\230\036\2247\302P\023\367\270\270\374\000\2220"
 7192      37C25013 
 7192      F7B8B8FC 
 7192      009230
 7193 1bdf E1ADC099 		.ascii	"\341\255\300\231\303v\024\254h\243E\237@\302\363U\305"
 7193      C37614AC 
 7193      68A3459F 
 7193      40C2F355 
 7193      C5
 7194 1bf0 564D003D 		.ascii	"VM\000=\327\017y\354\251\372\0233O2\034\252N\371\333"
 7194      D70F79EC 
 7194      A9FA1333 
 7194      4F321CAA 
 7194      4EF9DB
 7195 1c03 ABDF41DD 		.ascii	"\253\337A\335\212\367von\261\025\253\024\352\257T\340"
 7195      8AF7766F 
 7195      6EB115AB 
 7195      14EAAF54 
 7195      E0
 7196 1c14 C94E4B9D 		.ascii	"\311NK\235e\002\2253T\357\212\256A\261\260\025\006\343"
 7196      65029533 
 7196      54EF8AAE 
 7196      41B1B015 
 7196      06E3
 7197 1c26 6913892C 		.ascii	"i\023\211,\304\250\216\361\277\244'2\225\200\366\276"
 7197      C4A88EF1 
 7197      BFA42732 
 7197      9580F6BE 
 7198 1c36 985906A4 		.ascii	"\230Y\006\244\005*\204#\361\246[\373\302f\2371x\001"
 7198      052A8423 
 7198      F1A65BFB 
 7198      C2669F31 
 7198      7801
 7199 1c48 4D6F2413 		.ascii	"Mo$\023}\262$\311l\300\245G\213\232'\356<\246\024\333"
 7199      7DB224C9 
 7199      6CC0A547 
 7199      8B9A27EE 
 7199      3CA614DB 
 7200 1c5c DF526BB0 		.ascii	"\337Rk\260\317L\327\260\214DC>\312\247\371\254\335\212"
 7200      CF4CD7B0 
 7200      8C44433E 
 7200      CAA7F9AC 
 7200      DD8A
 7201 1c6e E7C5FD0A 		.ascii	"\347\305\375\012,)\342k\013~\366\247\246\227h}\316\262"
 7201      2C29E26B 
 7201      0B7EF6A7 
 7201      A697687D 
 7201      CEB2
 7202 1c80 805EFAC8 		.ascii	"\200^\372\310\233\214U\012\200\232\240@\237\354\310"
 7202      9B8C550A 
 7202      809AA040 
 7202      9FECC8
 7203 1c8f 423181F1 		.ascii	"B1\201\361\264Z\010\340\201G\304\343\302\333o\347>\343"
 7203      B45A08E0 
 7203      8147C4E3 
 7203      C2DB6FE7 
ARM GAS  C:\Users\DJESSOU\AppData\Local\Temp\cc3eovRL.s 			page 288


 7203      3EE3
 7204 1ca1 D97B57AE 		.ascii	"\331{W\256VWb.\017Z$\310K\322`F\307g\023B\251\034\235"
 7204      5657622E 
 7204      0F5A24C8 
 7204      4BD26046 
 7204      C7671342 
 7205 1cb8 ED291AF4 		.ascii	"\355)\032\364\233\272\030\337\004\333\3721z\202\344"
 7205      9BBA18DF 
 7205      04DBFA31 
 7205      7A82E4
 7206 1cc7 4DA5849F 		.ascii	"M\245\204\23735\243\273*\013\237\033\362\273\341'\264"
 7206      3335A3BB 
 7206      2A0B9F1B 
 7206      F2BBE127 
 7206      B4
 7207 1cd8 47C75401 		.ascii	"G\307T\001>\210%s\207\272\203H\254A$X*(\272\342\305"
 7207      3E882573 
 7207      87BA8348 
 7207      AC412458 
 7207      2A28BAE2 
 7208 1ced BE8A2334 		.ascii	"\276\212#4R\227\366\\\323\015\312\012\350\371\245\346"
 7208      5297F65C 
 7208      D30DCA0A 
 7208      E8F9A5E6 
 7209 1cfd 12CD1E3C 		.ascii	"\022\315\036<\255be\340\356T\315\247\251\370_H\270\003"
 7209      AD6265E0 
 7209      EE54CDA7 
 7209      A9F85F48 
 7209      B803
 7210 1d0f BB168142 		.ascii	"\273\026\201B\256{\206\177\377\013\323\325\201\246\356"
 7210      AE7B867F 
 7210      FF0BD3D5 
 7210      81A6EE
 7211 1d1e C90486EF 		.ascii	"\311\004\206\357s(\355K\267L\245\020\365\366N\315n\026"
 7211      7328ED4B 
 7211      B74CA510 
 7211      F5F64ECD 
 7211      6E16
 7212 1d30 F0C73419 		.ascii	"\360\3074\031\035>\3121\321+\212\3376}\344{\301Hg8\244"
 7212      1D3ECA31 
 7212      D12B8ADF 
 7212      367DE47B 
 7212      C1486738 
 7213 1d45 D6162DCB 		.ascii	"\326\026-\313\357\206\015\2621\277\210\020:\261v\247"
 7213      EF860DB2 
 7213      31BF8810 
 7213      3AB176A7 
 7214 1d55 ED74CA1F 		.ascii	"\355t\312\037'\034\3529\224\325\246h\241w\242`\031\324"
 7214      271CEA39 
 7214      94D5A668 
 7214      A177A260 
 7214      19D4
 7215 1d67 9D2CC3DF 		.ascii	"\235,\303\337\032\265L\030K4nf\\w\314\017#\305\343D"
 7215      1AB54C18 
 7215      4B346E66 
 7215      5C77CC0F 
 7215      23C5E344 
ARM GAS  C:\Users\DJESSOU\AppData\Local\Temp\cc3eovRL.s 			page 289


 7216 1d7b 525C9BEA 		.ascii	"R\\\233\352Cg\261>\227\277\300Es\320Z\211\315:\275&"
 7216      4367B13E 
 7216      97BFC045 
 7216      73D05A89 
 7216      CD3ABD26 
 7217 1d8f E804363D 		.ascii	"\350\0046=\227e\004\233\355c\262\022\324\025\227`k\036"
 7217      9765049B 
 7217      ED63B212 
 7217      D4159760 
 7217      6B1E
 7218 1da1 F24E4834 		.ascii	"\362NH4\320N2k19\355\253g%U\367\371\024S\273[\360\331"
 7218      D04E326B 
 7218      3139EDAB 
 7218      672555F7 
 7218      F91453BB 
 7219 1db8 064C301E 		.ascii	"\006L0\036\275\357\214\203\337\361\373R\033\360\005"
 7219      BDEF8C83 
 7219      DFF1FB52 
 7219      1BF005
 7220 1dc7 BBEFD5B5 		.ascii	"\273\357\325\265\344\262ft\2169\007Y\215\336\030\334"
 7220      E4B26674 
 7220      8E390759 
 7220      8DDE18DC 
 7221 1dd7 D0FDBF7B 		.ascii	"\320\375\277{\306I]\306\302\360\254\212\340\357 \326"
 7221      C6495DC6 
 7221      C2F0AC8A 
 7221      E0EF20D6 
 7222 1de7 357894DB 		.ascii	"5x\224\333\220\346\346\2449\000\253r\244SB\303\336I"
 7222      90E6E6A4 
 7222      3900AB72 
 7222      A45342C3 
 7222      DE49
 7223 1df9 EA0648B2 		.ascii	"\352\006H\262o\344gS=\324\2514\003A5\246|\320O\254\351"
 7223      6FE46753 
 7223      3DD4A934 
 7223      034135A6 
 7223      7CD04FAC 
 7224 1e0e 4E86600B 		.ascii	"N\206`\013\325\254\276\241l\262\250\245v\306\031\302"
 7224      D5ACBEA1 
 7224      6CB2A8A5 
 7224      76C619C2 
 7225 1e1e BFCF7DD9 		.ascii	"\277\317}\331\353L\010\345\363\222\342q4\312\226\331"
 7225      EB4C08E5 
 7225      F392E271 
 7225      34CA96D9 
 7226 1e2e E5FDE352 		.ascii	"\345\375\343R\201q\031\022\007$\252\217\024\326\316"
 7226      81711912 
 7226      0724AA8F 
 7226      14D6CE
 7227 1e3d 7C439572 		.ascii	"|C\225r\243XU\027q>qZ)\033\001;\275W\212\225q\372\231"
 7227      A3585517 
 7227      713E715A 
 7227      291B013B 
 7227      BD578A95 
 7228 1e54 2E0F6E0C 		.ascii	".\017n\014:x0\015\"\366\203\264\210\266\254\261\202"
 7228      3A78300D 
 7228      22F683B4 
ARM GAS  C:\Users\DJESSOU\AppData\Local\Temp\cc3eovRL.s 			page 290


 7228      88B6ACB1 
 7228      82
 7229 1e65 7B627223 		.ascii	"{br#\257\222\250\\\264i\253\357\200\264\325\271l*\275"
 7229      AF92A85C 
 7229      B469ABEF 
 7229      80B4D5B9 
 7229      6C2ABD
 7230 1e78 61C2316A 		.ascii	"a\3021j\307\030\370\016\343\340\361\226m/\3725\310s"
 7230      C718F80E 
 7230      E3E0F196 
 7230      6D2FFA35 
 7230      C873
 7231 1e8a 6D2C1257 		.ascii	"m,\022W\220@\366\266)\2639\263\367\307\350\222\246="
 7231      9040F6B6 
 7231      29B339B3 
 7231      F7C7E892 
 7231      A63D
 7232 1e9c 1A417F20 		.ascii	"\032A\177 \332\020\214\257{\227\016\263\271\304h\010"
 7232      DA108CAF 
 7232      7B970EB3 
 7232      B9C46808 
 7233 1eac 47B5539F 		.ascii	"G\265S\2374\314-\355\211N\254\222\346\264M\321\240\016"
 7233      34CC2DED 
 7233      894EAC92 
 7233      E6B44DD1 
 7233      A00E
 7234 1ebe E3A3FDF7 		.ascii	"\343\243\375\367x\017&@\276\222cp\253g\340t_\203\337"
 7234      780F2640 
 7234      BE926370 
 7234      AB67E074 
 7234      5F83DF
 7235 1ed1 BFBF928D 		.ascii	"\277\277\222\215W\337\214\201\242\027E\005?\227Ps*\340"
 7235      57DF8C81 
 7235      A2174505 
 7235      3F975073 
 7235      2AE0
 7236 1ee3 606585D3 		.ascii	"`e\205\323\357\251\205\234bo3.\252\306\326\304\023\361"
 7236      EFA9859C 
 7236      626F332E 
 7236      AAC6D6C4 
 7236      13F1
 7237 1ef5 E86EDCEB 		.ascii	"\350n\334\353\024\006#l\370\020\242\217\3347\247\250"
 7237      1406236C 
 7237      F810A28F 
 7237      DC37A7A8 
 7238 1f05 1CE55A84 		.ascii	"\034\345Z\204 \241G\313c\357\033\277\3400I\201\003v"
 7238      20A147CB 
 7238      63EF1BBF 
 7238      E0304981 
 7238      0376
 7239 1f17 BB313C31 		.ascii	"\2731<1\336&\312\273\242bB\304\311~H\232.\332\320+<"
 7239      DE26CABB 
 7239      A26242C4 
 7239      C97E489A 
 7239      2EDAD02B 
 7240 1f2c 2C5EBECA 		.ascii	",^\276\312'\235\237ho\302jQ\266x\267A\357\346\235\232"
 7240      279D9F68 
ARM GAS  C:\Users\DJESSOU\AppData\Local\Temp\cc3eovRL.s 			page 291


 7240      6FC26A51 
 7240      B678B741 
 7240      EFE69D9A 
 7241 1f40 BECA39D5 		.ascii	"\276\3129\325\226\264\304\005\210W1+F\010 \200\376g"
 7241      96B4C405 
 7241      8857312B 
 7241      46082080 
 7241      FE67
 7242 1f52 952F34F0 		.ascii	"\225/4\3603U\223\213\216\324UW^\241\314\307U\004xcc"
 7242      3355938B 
 7242      8ED45557 
 7242      5EA1CCC7 
 7242      55047863 
 7243 1f67 5901520E 		.ascii	"Y\001R\016\372\013\177'o\342\020\203\352\212W\012o\376"
 7243      FA0B7F27 
 7243      6FE21083 
 7243      EA8A570A 
 7243      6FFE
 7244 1f79 BC42CF9B 		.ascii	"\274B\317\233\357\314cr\324\231fH\034)XI>\034q\271F"
 7244      EFCC6372 
 7244      D4996648 
 7244      1C295849 
 7244      3E1C71B9 
 7245 1f8e 80268D04 		.ascii	"\200&\215\004\356J\233\000K\253\022\344E\347qwk\356"
 7245      EE4A9B00 
 7245      4BAB12E4 
 7245      45E77177 
 7245      6BEE
 7246 1fa0 C343AF38 		.ascii	"\303C\2578\325 ,Kg\357\370\316\211D\347\360\024\212"
 7246      D5202C4B 
 7246      67EFF8CE 
 7246      8944E7F0 
 7246      148A
 7247 1fb2 19847087 		.ascii	"\031\204p\207\342)\275\373\011\353b\224\376\377\263"
 7247      E229BDFB 
 7247      09EB6294 
 7247      FEFFB3
 7248 1fc1 FA924E2C 		.ascii	"\372\222N,cS\326]\030\304AU1~0\025\023\364;\260\347"
 7248      6353D65D 
 7248      18C44155 
 7248      317E3015 
 7248      13F43BB0 
 7249 1fd6 36DE4DBF 		.ascii	"6\336M\277H\212dn\302\232<\327\253\025#\334+\312\212"
 7249      488A646E 
 7249      C29A3CD7 
 7249      AB1523DC 
 7249      2BCA8A
 7250 1fe9 171329F3 		.ascii	"\027\023)\363y\267;\261On\264\0169;\207\377\347qDX\300"
 7250      79B73BB1 
 7250      4F6EB40E 
 7250      393B87FF 
 7250      E7714458 
 7251 1ffe 6D3D2379 		.ascii	"m=#y\200\201;E\375$\226\302x$\367&\302\257e\254i\204"
 7251      80813B45 
 7251      FD2496C2 
 7251      7824F726 
 7251      C2AF65AC 
ARM GAS  C:\Users\DJESSOU\AppData\Local\Temp\cc3eovRL.s 			page 292


 7252 2014 D06F3DF0 		.ascii	"\320o=\360p\214\346e~\350^h/\001\021\312\335\216\344"
 7252      708CE665 
 7252      7EE85E68 
 7252      2F0111CA 
 7252      DD8EE4
 7253 2027 1C2179E6 		.ascii	"\034!y\346/\27015\030r\037\365\335\271\376/q\324\224"
 7253      2FB83135 
 7253      18721FF5 
 7253      DDB9FE2F 
 7253      71D494
 7254 203a 41FCD003 		.ascii	"A\374\320\003\\\220\214y\3203\3421E\235\207r\357$\240"
 7254      5C908C79 
 7254      D033E231 
 7254      459D8772 
 7254      EF24A0
 7255 204d 286691D5 		.ascii	"(f\221\325\240l@\302R6\204\265=\010\201\372A\320aR\302"
 7255      A06C40C2 
 7255      523684B5 
 7255      3D0881FA 
 7255      41D06152 
 7256 2062 429F1B3F 		.ascii	"B\237\033?\215\\\232\237\236\2624\203]\2668\215\247"
 7256      8D5C9A9F 
 7256      9EB23483 
 7256      5DB6388D 
 7256      A7
 7257 2073 8C4DF8C8 		.ascii	"\214M\370\310\251f\251\235\261\227I\235\012\013\005"
 7257      A966A99D 
 7257      B197499D 
 7257      0A0B05
 7258 2082 CB0AA53C 		.ascii	"\313\012\245<b\350j\012\264\264,3z}\035\263\202#\237"
 7258      62E86A0A 
 7258      B4B42C33 
 7258      7A7D1DB3 
 7258      82239F
 7259 2095 00C9144B 		.ascii	"\000\311\024K*\206eS\022\262\201+\035\363\265\326\350"
 7259      2A866553 
 7259      12B2812B 
 7259      1DF3B5D6 
 7259      E8
 7260 20a6 519FB066 		.ascii	"Q\237\260f\247\356\257R\037Oa\006X\374\315\375q\275"
 7260      A7EEAF52 
 7260      1F4F6106 
 7260      58FCCDFD 
 7260      71BD
 7261 20b8 045E1B5D 		.ascii	"\004^\033]~\016\217 u\257\2205L\333\325wu\254\306\007"
 7261      7E0E8F20 
 7261      75AF9035 
 7261      4CDBD577 
 7261      75ACC607 
 7262 20cc 59B60BCB 		.ascii	"Y\266\013\313\235\027\"*RO\277Cy\377\350\326\026\251"
 7262      9D17222A 
 7262      524FBF43 
 7262      79FFE8D6 
 7262      16A9
 7263 20de 49120190 		.ascii	"I\022\001\220_\212\202\002G\341\342el\257\265\037\237"
 7263      5F8A8202 
 7263      47E1E265 
ARM GAS  C:\Users\DJESSOU\AppData\Local\Temp\cc3eovRL.s 			page 293


 7263      6CAFB51F 
 7263      9F
 7264 20ef 75C766F3 		.ascii	"u\307f\363\301\222\306\311\002;\326\037.\001\374\216"
 7264      C192C6C9 
 7264      023BD61F 
 7264      2E01FC8E 
 7265 20ff BB9796B9 		.ascii	"\273\227\226\271At\265\346@\217\266<\244\206\246\014"
 7265      4174B5E6 
 7265      408FB63C 
 7265      A486A60C 
 7266 210f 7556F5FE 		.ascii	"uV\365\376\356R\243\326\007\311\314L;\251\211 \333\312"
 7266      EE52A3D6 
 7266      07C9CC4C 
 7266      3BA98920 
 7266      DBCA
 7267 2121 C3F15089 		.ascii	"\303\361P\211\006\343<\216\367}\243t\233\203\254\011"
 7267      06E33C8E 
 7267      F77DA374 
 7267      9B83AC09 
 7268 2131 0F6271B8 		.ascii	"\017bq\2708h\354iS=\024^\374\036\211\245:\207 \326J"
 7268      3868EC69 
 7268      533D145E 
 7268      FC1E89A5 
 7268      3A8720D6 
 7269 2146 07611162 		.ascii	"\007a\021b\324N2\314\312\261C\242\257*\264w&y:\273;"
 7269      D44E32CC 
 7269      CAB143A2 
 7269      AF2AB477 
 7269      26793ABB 
 7270 215b C0F7F001 		.ascii	"\300\367\360\001\021)*\304\272\223\030\262\353\3540"
 7270      11292AC4 
 7270      BA9318B2 
 7270      EBEC30
 7271 216a 189A1728 		.ascii	"\030\232\027(@M\256\310\207\371q\233\352#\337Gz\245"
 7271      404DAEC8 
 7271      87F9719B 
 7271      EA23DF47 
 7271      7AA5
 7272 217c F484C094 		.ascii	"\364\204\300\224N\252\3350\277\362E\304\342\323\323"
 7272      4EAADD30 
 7272      BFF245C4 
 7272      E2D3D3
 7273 218b FBFC23B7 		.ascii	"\373\374#\267\240{O\220\2118\0150\311\216q'\027+w\261"
 7273      A07B4F90 
 7273      89380D30 
 7273      C98E7127 
 7273      172B77B1 
 7274 219f 29E07465 		.ascii	")\340tePx\3429a\306\036\027X\375\252{\217\364\323\233"
 7274      5078E239 
 7274      61C61E17 
 7274      58FDAA7B 
 7274      8FF4D39B 
 7275 21b3 4EBAAD89 		.ascii	"N\272\255\211\251Aj\337\260\253R\233\2779#\005+_6\014"
 7275      A9416ADF 
 7275      B0AB529B 
 7275      BF392305 
 7275      2B5F360C 
ARM GAS  C:\Users\DJESSOU\AppData\Local\Temp\cc3eovRL.s 			page 294


 7276 21c7 1595F444 		.ascii	"\025\225\364DR\204\200\375N\330\255\376\233)\377\024"
 7276      528480FD 
 7276      4ED8ADFE 
 7276      9B29FF14 
 7277 21d7 0C8FB499 		.ascii	"\014\217\264\231\307\265\013\010\205>\022\014>\2455"
 7277      C7B50B08 
 7277      853E120C 
 7277      3EA535
 7278 21e6 AD0617E8 		.ascii	"\255\006\027\350\277\032\255\236\313\005t\2638\351>"
 7278      BF1AAD9E 
 7278      CB0574B3 
 7278      38E93E
 7279 21f5 5BF9379D 		.ascii	"[\3717\235\315\011\027b`\310\177\245\345\370qr\210\300"
 7279      CD091762 
 7279      60C87FA5 
 7279      E5F87172 
 7279      88C0
 7280 2207 A18CD361 		.ascii	"\241\214\323aYn\004\010\215\224\334\220\207A{\247\360"
 7280      596E0408 
 7280      8D94DC90 
 7280      87417BA7 
 7280      F0
 7281 2218 322510C5 		.ascii	"2%\020\305\317\274\013\332Wc~\247\240\314\335\015\261"
 7281      CFBC0BDA 
 7281      57637EA7 
 7281      A0CCDD0D 
 7281      B1
 7282 2229 43F3F375 		.ascii	"C\363\363u\310\366CI\031\277\213>k\301\322\335\033S"
 7282      C8F64349 
 7282      19BF8B3E 
 7282      6BC1D2DD 
 7282      1B53
 7283 223b 3ECDB10A 		.ascii	">\315\261\012(C\221\251O~\334K~A\177\013\264\336\322"
 7283      284391A9 
 7283      4F7EDC4B 
 7283      7E417F0B 
 7283      B4DED2
 7284 224e 5C1AF522 		.ascii	"\\\032\365\"Wv\007Ze'x\327\305\306\362'\362\334>\036"
 7284      5776075A 
 7284      652778D7 
 7284      C5C6F227 
 7284      F2DC3E1E 
 7285 2262 10C9722E 		.ascii	"\020\311r.\017Y\301\252%x*\312~b\316\374\011V\262B\362"
 7285      0F59C1AA 
 7285      25782ACA 
 7285      7E62CEFC 
 7285      0956B242 
 7286 2277 3B9FC6A1 		.ascii	";\237\306\241L\230.\277\271\345\275\002\232\224D\000"
 7286      4C982EBF 
 7286      B9E5BD02 
 7286      9A944400 
 7287 2287 D1F0F2FE 		.ascii	"\321\360\362\3762\372\026\234\223\011a!\3657\253a0\222"
 7287      32FA169C 
 7287      93096121 
 7287      F537AB61 
 7287      3092
 7288 2299 518798BE 		.ascii	"Q\207\230\276v\027\335ar\323i\242\260\254\265U\017\370"
ARM GAS  C:\Users\DJESSOU\AppData\Local\Temp\cc3eovRL.s 			page 295


 7288      7617DD61 
 7288      72D369A2 
 7288      B0ACB555 
 7288      0FF8
 7289 22ab 2D061C29 		.ascii	"-\006\034)\240 \340\004\342mz-\254\353e\252f\245\212"
 7289      A020E004 
 7289      E26D7A2D 
 7289      ACEB65AA 
 7289      66A58A
 7290 22be 434550CC 		.ascii	"CEP\314\362\331Q\262\356\330\301\312\317s+\232\364,"
 7290      F2D951B2 
 7290      EED8C1CA 
 7290      CF732B9A 
 7290      F42C
 7291 22d0 8A15201C 		.ascii	"\212\025 \034@\311iK\276\240\351\214\210\303W\323\373"
 7291      40C9694B 
 7291      BEA0E98C 
 7291      88C357D3 
 7291      FB
 7292 22e1 6A4AAD0A 		.ascii	"jJ\255\012x\202\255\250\0132\302\233d\226T\034\367\245"
 7292      7882ADA8 
 7292      0B32C29B 
 7292      6496541C 
 7292      F7A5
 7293 22f3 9F3FA3FE 		.ascii	"\237?\243\376\363\202\207B\330'\321ou\261\327\241\211"
 7293      F3828742 
 7293      D827D16F 
 7293      75B1D7A1 
 7293      89
 7294 2304 EAACC67A 		.ascii	"\352\254\306z\357e\324\373\260YD\355\350\356|\257Tm"
 7294      EF65D4FB 
 7294      B05944ED 
 7294      E8EE7CAF 
 7294      546D
 7295 2316 980750AF 		.ascii	"\230\007P\257\255\347\344$0\316`{\223\023\025\2421\252"
 7295      ADE7E424 
 7295      30CE607B 
 7295      931315A2 
 7295      31AA
 7296 2328 37564923 		.ascii	"7VI#\2760 NQ\352@u\366g,\017-\312iKv\354\343o\364I\003"
 7296      BE30204E 
 7296      51EA4075 
 7296      F6672C0F 
 7296      2DCA694B 
 7297 2343 A6EB7D82 		.ascii	"\246\353}\202Z\204\017}\237\217\376\302\316&(~i\023"
 7297      5A840F7D 
 7297      9F8FFEC2 
 7297      CE26287E 
 7297      6913
 7298 2355 694A6187 		.ascii	"iJa\207b\004*\247Q}\202\272=\274\002\246\365M\267e\007"
 7298      62042AA7 
 7298      517D82BA 
 7298      3DBC02A6 
 7298      F54DB765 
 7299 236a 51D2252F 		.ascii	"Q\322%/N\224|w\301\036?t\222\306\266-\332\313L\204\350"
 7299      4E947C77 
 7299      C11E3F74 
ARM GAS  C:\Users\DJESSOU\AppData\Local\Temp\cc3eovRL.s 			page 296


 7299      92C6B62D 
 7299      DACB4C84 
 7300 237f 8F9CFE0F 		.ascii	"\217\234\376\017@\244#|\303\217\306\333^$\304\031'C"
 7300      40A4237C 
 7300      C38FC6DB 
 7300      5E24C419 
 7300      2743
 7301 2391 7A633861 		.ascii	"zc8a\000M|t:\030!\006\177@\177;]\322\341\332\274\367"
 7301      004D7C74 
 7301      3A182106 
 7301      7F407F3B 
 7301      5DD2E1DA 
 7302 23a7 0C20C080 		.ascii	"\014 \300\200\217\2530\222)\253\255\3242\027S\203A\336"
 7302      8FAB3092 
 7302      29ABADD4 
 7302      32175383 
 7302      41DE
 7303 23b9 FC086C35 		.ascii	"\374\010l5\243\003\177\305\227:\254H\342c\235M\306\361"
 7303      A3037FC5 
 7303      973AAC48 
 7303      E2639D4D 
 7303      C6F1
 7304 23cb AEA4E36C 		.ascii	"\256\244\343l2\336;\2146\360I\274\246\260\025\026#\270"
 7304      32DE3B8C 
 7304      36F049BC 
 7304      A6B01516 
 7304      23B8
 7305 23dd 5DFB5C5D 		.ascii	"]\373\\]D\363\355\234\340\371\361\004V,\027\027(\227"
 7305      44F3ED9C 
 7305      E0F9F104 
 7305      562C1717 
 7305      2897
 7306 23ef 05831081 		.ascii	"\005\203\020\2011y\300|\377\267q\360h`\325\306)\324"
 7306      3179C07C 
 7306      FFB771F0 
 7306      6860D5C6 
 7306      29D4
 7307 2401 A2742108 		.ascii	"\242t!\010\3650)e\026\015X\352\2267\203\215\314e\347"
 7307      F5302965 
 7307      160D58EA 
 7307      9637838D 
 7307      CC65E7
 7308 2414 FF24C2D0 		.ascii	"\377$\302\320Y\021\317\372\376\364S\301\010&\263G\217"
 7308      5911CFFA 
 7308      FEF453C1 
 7308      0826B347 
 7308      8F
 7309 2425 1B2AB7E4 		.ascii	"\033*\267\344\201\206\302\332\316\263\032\323fp\345"
 7309      8186C2DA 
 7309      CEB31AD3 
 7309      6670E5
 7310 2434 62340DAC 		.ascii	"b4\015\254G2\250\260\005\317[\226\371J\350\304*\312"
 7310      4732A8B0 
 7310      05CF5B96 
 7310      F94AE8C4 
 7310      2ACA
 7311 2446 E0858B98 		.ascii	"\340\205\213\230\032\366\314\3533\374\354\220\025\032"
ARM GAS  C:\Users\DJESSOU\AppData\Local\Temp\cc3eovRL.s 			page 297


 7311      1AF6CCEB 
 7311      33FCEC90 
 7311      151A
 7312 2454 9869F658 		.ascii	"\230i\366X\254\\I\345Go\320\350\254(0\177\274\036\265"
 7312      AC5C49E5 
 7312      476FD0E8 
 7312      AC28307F 
 7312      BC1EB5
 7313 2467 0400A8EA 		.ascii	"\004\000\250\352\243\234\357\253\232!\007\373mZ\304"
 7313      A39CEFAB 
 7313      9A2107FB 
 7313      6D5AC4
 7314 2476 0E1E5EE5 		.ascii	"\016\036^\3452\305\317h`{\327&\370\017\257f\213\366"
 7314      32C5CF68 
 7314      607BD726 
 7314      F80FAF66 
 7314      8BF6
 7315 2488 A90BCCFB 		.ascii	"\251\013\314\373\217\213\346Vz\010\353\303\030y\267"
 7315      8F8BE656 
 7315      7A08EBC3 
 7315      1879B7
 7316 2497 5938F96D 		.ascii	"Y8\371m\014\022F\341\005\205Z\322yn\225\243\027\\]\346"
 7316      0C1246E1 
 7316      05855AD2 
 7316      796E95A3 
 7316      175C5DE6 
 7317 24ab 82C44584 		.ascii	"\202\304E\204O\215\007d\225\245~\306c`\235~Sg\237\305"
 7317      4F8D0764 
 7317      95A57EC6 
 7317      63609D7E 
 7317      53679FC5 
 7318 24bf 4A600949 		.ascii	"J`\011I\024\224\016\216\224\247\364\341\301\012Hz\030"
 7318      14940E8E 
 7318      94A7F4E1 
 7318      C10A487A 
 7318      18
 7319 24d0 F925BA15 		.ascii	"\371%\272\025\366(\274\374\340\266\312\243C\241\222"
 7319      F628BCFC 
 7319      E0B6CAA3 
 7319      43A192
 7320 24df A9D18D97 		.ascii	"\251\321\215\2277\235v/`i\271\027\023f\311G\302\370"
 7320      379D762F 
 7320      6069B917 
 7320      1366C947 
 7320      C2F8
 7321 24f1 AD9513AB 		.ascii	"\255\225\023\253\211y\236\2750L\212Ov\373D\305\363k"
 7321      89799EBD 
 7321      304C8A4F 
 7321      76FB44C5 
 7321      F36B
 7322 2503 E233CB9F 		.ascii	"\3423\313\237\013\021\252!\3168\262\214\\5\323#\330"
 7322      0B11AA21 
 7322      CE38B28C 
 7322      5C35D323 
 7322      D8
 7323 2514 33FE675C 		.ascii	"3\376g\\\257\253\312\222\350:\372\325Boi\254X\375\005"
 7323      AFABCA92 
ARM GAS  C:\Users\DJESSOU\AppData\Local\Temp\cc3eovRL.s 			page 298


 7323      E83AFAD5 
 7323      426F69AC 
 7323      58FD05
 7324 2527 9B04811C 		.ascii	"\233\004\201\034p\267\333|*\343^Xr\036.\205.%\350~Q"
 7324      70B7DB7C 
 7324      2AE35E58 
 7324      721E2E85 
 7324      2E25E87E 
 7325 253c FEBB32AD 		.ascii	"\376\2732\255_g2\377>+@J\324\216Sud\303F\035\001t\237"
 7325      5F6732FF 
 7325      3E2B404A 
 7325      D48E5375 
 7325      64C3461D 
 7326 2553 134DBA86 		.ascii	"\023M\272\206\254\257H:\264\033U\331\367n*\336\330%"
 7326      ACAF483A 
 7326      B41B55D9 
 7326      F76E2ADE 
 7326      D825
 7327 2565 C57EEF23 		.ascii	"\305~\357#\356=\3261\365^B\013Kc\355\342\276n\325\326"
 7327      EE3DD631 
 7327      F55E420B 
 7327      4B63EDE2 
 7327      BE6ED5D6 
 7328 2579 17436099 		.ascii	"\027C`\231\316O\024\362\306\206n(\351\367\266\263\177"
 7328      CE4F14F2 
 7328      C6866E28 
 7328      E9F7B6B3 
 7328      7F
 7329 258a D7F50EDE 		.ascii	"\327\365\016\336\210\375\024KC\223\361\253\"8\267=T"
 7329      88FD144B 
 7329      4393F1AB 
 7329      2238B73D 
 7329      54
 7330 259b 4C1E1146 		.ascii	"L\036\021F\025\236Uj}\343\322\320iFl\034\264\353\021"
 7330      159E556A 
 7330      7DE3D2D0 
 7330      69466C1C 
 7330      B4EB11
 7331 25ae DF44C9B5 		.ascii	"\337D\311\265\034y\0112\031\005\266\336\201\224\277"
 7331      1C790932 
 7331      1905B6DE 
 7331      8194BF
 7332 25bd E1F4D950 		.ascii	"\341\364\331P\353\274\354D\273\341\315\207x\307\333"
 7332      EBBCEC44 
 7332      BBE1CD87 
 7332      78C7DB
 7333 25cc A7AC5F4E 		.ascii	"\247\254_N\207\"\316r\2267\205Ue\267\231\\\000\350\035"
 7333      8722CE72 
 7333      96378555 
 7333      65B7995C 
 7333      00E81D
 7334 25df 8B09D965 		.ascii	"\213\011\331eD\206\226s=\321&\272s\334bS\015HH\006\307"
 7334      44869673 
 7334      3DD126BA 
 7334      73DC6253 
 7334      0D484806 
 7335 25f4 97D95298 		.ascii	"\227\331R\230\363\3679\021)<\006\252'\2349\247\357F"
ARM GAS  C:\Users\DJESSOU\AppData\Local\Temp\cc3eovRL.s 			page 299


 7335      F3F73911 
 7335      293C06AA 
 7335      279C39A7 
 7335      EF46
 7336 2606 0AC82E9E 		.ascii	"\012\310.\236\261\005\221Ur\177JD#\254\314\255\3778"
 7336      B1059155 
 7336      727F4A44 
 7336      23ACCCAD 
 7336      FF38
 7337 2618 AAA825CB 		.ascii	"\252\250%\313U)\302HO\012\321\300\211\346\336l`U!KO"
 7337      5529C248 
 7337      4F0AD1C0 
 7337      89E6DE6C 
 7337      6055214B 
 7338 262d 23975A62 		.ascii	"#\227Zb\035W\023\356DK\230!\006\011\027mBm*\002\276"
 7338      1D5713EE 
 7338      444B9821 
 7338      0609176D 
 7338      426D2A02 
 7339 2642 6943CD56 		.ascii	"iC\315V]\260\214\305\353\"\023\251\204\034\244g;\364"
 7339      5DB08CC5 
 7339      EB2213A9 
 7339      841CA467 
 7339      3BF4
 7340 2654 B161A80B 		.ascii	"\261a\250\013w\017?\361\226\210\372\030\365\222\216"
 7340      770F3FF1 
 7340      9688FA18 
 7340      F5928E
 7341 2663 5F1842AA 		.ascii	"_\030B\252\376\250\3357\255\326\373\\2\377&\374\224"
 7341      FEA8DD37 
 7341      ADD6FB5C 
 7341      32FF26FC 
 7341      94
 7342 2674 9B3DA1E8 		.ascii	"\233=\241\350\312\317\024 g\3378;-?>\333\247t\010\224"
 7342      CACF1420 
 7342      67DF383B 
 7342      2D3F3EDB 
 7342      A7740894 
 7343 2688 6B7C9226 		.ascii	"k|\222&\350Z6|\247\303Z4\202\035Vh\326\017\331\371\005"
 7343      E85A367C 
 7343      A7C35A34 
 7343      821D5668 
 7343      D60FD9F9 
 7344 269d BF389C62 		.ascii	"\2778\234b.\027a6\234\207\206\242\344\206n(/F\2371\016"
 7344      2E176136 
 7344      9C8786A2 
 7344      E4866E28 
 7344      2F469F31 
 7345 26b2 8C49EDE7 		.ascii	"\214I\355\347T\226\277\365\312\002\217\026:\023\223"
 7345      5496BFF5 
 7345      CA028F16 
 7345      3A1393
 7346 26c1 6E05F863 		.ascii	"n\005\370c\305\254*\351\021\031g\336-!\234\205\250\277"
 7346      C5AC2AE9 
 7346      111967DE 
 7346      2D219C85 
 7346      A8BF
ARM GAS  C:\Users\DJESSOU\AppData\Local\Temp\cc3eovRL.s 			page 300


 7347 26d3 29D53A7D 		.ascii	")\325:}\037\205\216\2707\315##\222\270\332\213\351\300"
 7347      1F858EB8 
 7347      37CD2323 
 7347      92B8DA8B 
 7347      E9C0
 7348 26e5 83897692 		.ascii	"\203\211v\222\261\031n\270\007\035\001T~|!\202\213\325"
 7348      B1196EB8 
 7348      071D0154 
 7348      7E7C2182 
 7348      8BD5
 7349 26f7 C6218D5F 		.ascii	"\306!\215_7\331\203\026'\021.\227\203Lk\360\200\224"
 7349      37D98316 
 7349      27112E97 
 7349      834C6BF0 
 7349      8094
 7350 2709 D84D30F6 		.ascii	"\330M0\366\275\224>"
 7350      BD943E
 7351 2710 156672F3 		.ascii	"\025fr\363N\311rd\010rWC;J\310\205\207\375\0374\235"
 7351      4EC97264 
 7351      08725743 
 7351      3B4AC885 
 7351      87FD1F34 
 7352 2725 BB78A107 		.ascii	"\273x\241\007\237JC\373\012d\006b:0\230|uV\364\255\013"
 7352      9F4A43FB 
 7352      0A640662 
 7352      3A30987C 
 7352      7556F4AD 
 7353 273a 3AFC9572 		.ascii	":\374\225r\331\310Tt\301\200l\205u\377 \273'\345\\\266"
 7353      D9C85474 
 7353      C1806C85 
 7353      75FF20BB 
 7353      27E55CB6 
 7354 274e 7048AFC2 		.ascii	"pH\257\302>owP7\375\264\351\012\"\027y\356\311\365t"
 7354      3E6F7750 
 7354      37FDB4E9 
 7354      0A221779 
 7354      EEC9F574 
 7355 2762 FA7D1F19 		.ascii	"\372}\037\031\260\331\317\302\326\322\322\2103\323\246"
 7355      B0D9CFC2 
 7355      D6D2D288 
 7355      33D3A6
 7356 2771 F8689538 		.ascii	"\370h\2258\213\377\202\372[\251\032\213K\247\344{\223"
 7356      8BFF82FA 
 7356      5BA91A8B 
 7356      4BA7E47B 
 7356      93
 7357 2782 A0B3FC4F 		.ascii	"\240\263\374O\235h\320%\222<d*\250\262q\345-Yp\"\272"
 7357      9D68D025 
 7357      923C642A 
 7357      A8B271E5 
 7357      2D597022 
 7358 2797 01C6BEB9 		.ascii	"\001\306\276\271\336\3051\204\361\277B\331\204\224\204"
 7358      DEC53184 
 7358      F1BF42D9 
 7358      849484
 7359 27a6 A37ABA04 		.ascii	"\243z\272\004\313\015\337\330\220\250Gu)#p\367\272~"
 7359      CB0DDFD8 
ARM GAS  C:\Users\DJESSOU\AppData\Local\Temp\cc3eovRL.s 			page 301


 7359      90A84775 
 7359      292370F7 
 7359      BA7E
 7360 27b8 10412D98 		.ascii	"\020A-\230\\\267\221\035t\370\232\254\371\231\027\226"
 7360      5CB7911D 
 7360      74F89AAC 
 7360      F9991796 
 7361 27c8 1C875304 		.ascii	"\034\207S\004\035\031\335\262\216R\224\004\267Q\252"
 7361      1D19DDB2 
 7361      8E529404 
 7361      B751AA
 7362 27d7 8464DD93 		.ascii	"\204d\335\223w\366\321RD%\001r\326\005\370\256\"\177"
 7362      77F6D152 
 7362      44250172 
 7362      D605F8AE 
 7362      227F
 7363 27e9 8CD81412 		.ascii	"\214\330\024\022\315.\252\322<\351\204\013(\304\315"
 7363      CD2EAAD2 
 7363      3CE9840B 
 7363      28C4CD
 7364 27f8 7CA89C19 		.ascii	"|\250\234\031\305\254K\002\344\311\346\034\016\014."
 7364      C5AC4B02 
 7364      E4C9E61C 
 7364      0E0C2E
 7365 2807 9CF6CE62 		.ascii	"\234\366\316bD\306\233+`+\206\350a\270\004\026?\020"
 7365      44C69B2B 
 7365      602B86E8 
 7365      61B80416 
 7365      3F10
 7366 2819 F4DEE4B6 		.ascii	"\364\336\344\266\2507\340\252\355\2229\360\017p\367"
 7366      A837E0AA 
 7366      ED9239F0 
 7366      0F70F7
 7367 2828 DDF6163B 		.ascii	"\335\366\026;\036\354N\252\364T\000`\261\217`PPq9\356"
 7367      1EEC4EAA 
 7367      F4540060 
 7367      B18F6050 
 7367      507139EE 
 7368 283c 4273073C 		.ascii	"Bs\007<\335Ep_<O\035d7 *\245B\353\027\273\331e\260="
 7368      DD45705F 
 7368      3C4F1D64 
 7368      37202AA5 
 7368      42EB17BB 
 7369 2854 53392ECC 		.ascii	"S9.\314o\312\205\216\034\341(\273\270W\276\224\275\301"
 7369      6FCA858E 
 7369      1CE128BB 
 7369      B857BE94 
 7369      BDC1
 7370 2866 CA9D2BCB 		.ascii	"\312\235+\313%T\306\324\330\010\275\177\357\365C\361"
 7370      2554C6D4 
 7370      D808BD7F 
 7370      EFF543F1 
 7371 2876 6B4F86AF 		.ascii	"kO\206\257\276\316\326\204\231\316\337\361\353\"\026"
 7371      BECED684 
 7371      99CEDFF1 
 7371      EB2216
 7372 2885 CDEC5ACB 		.ascii	"\315\354Z\313\333c\006\336\002\263\364W\374\023\324"
ARM GAS  C:\Users\DJESSOU\AppData\Local\Temp\cc3eovRL.s 			page 302


 7372      DB6306DE 
 7372      02B3F457 
 7372      FC13D4
 7373 2894 C4A6E38B 		.ascii	"\304\246\343\213w\364\353\375\210u\327\240\036x\022"
 7373      77F4EBFD 
 7373      8875D7A0 
 7373      1E7812
 7374 28a3 20D3F195 		.ascii	" \323\361\225\206\243\317\266\0365B\010bWK\342ZW\242"
 7374      86A3CFB6 
 7374      1E354208 
 7374      62574BE2 
 7374      5A57A2
 7375 28b6 CA7437C3 		.ascii	"\312t7\303\012\235\037\035\350IO\301RR\354\2714\261"
 7375      0A9D1F1D 
 7375      E8494FC1 
 7375      5252ECB9 
 7375      34B1
 7376 28c8 B5A3EDA9 		.ascii	"\265\243\355\251\017\354\007\366\267M\372\254\262\324"
 7376      0FEC07F6 
 7376      B74DFAAC 
 7376      B2D4
 7377 28d6 E7C7D124 		.ascii	"\347\307\321$\001`S\246@u\214\344\275\361\305\326\372"
 7377      016053A6 
 7377      40758CE4 
 7377      BDF1C5D6 
 7377      FA
 7378 28e7 71D678A5 		.ascii	"q\326x\245\215\017\243\306\235\005\236\373\037\3642"
 7378      8D0FA3C6 
 7378      9D059EFB 
 7378      1FF432
 7379 28f6 88116BC2 		.ascii	"\210\021k\302\264$_d\205\324\203\364\316\267/f\211\223"
 7379      B4245F64 
 7379      85D483F4 
 7379      CEB72F66 
 7379      8993
 7380 2908 CCD6B226 		.ascii	"\314\326\262&-\031\202^I\222\021\232a\335\253\011\257"
 7380      2D19825E 
 7380      4992119A 
 7380      61DDAB09 
 7380      AF
 7381 2919 E41C7F0A 		.ascii	"\344\034\177\012\361\341a\3645\263\210\327\033k\241"
 7381      F1E161F4 
 7381      35B388D7 
 7381      1B6BA1
 7382 2928 AE94B090 		.ascii	"\256\224\260\220+\015Z@.\357\240L\257!kv\330>\010c_"
 7382      2B0D5A40 
 7382      2EEFA04C 
 7382      AF216B76 
 7382      D83E0863 
 7383 293d D7D8FA1C 		.ascii	"\327\330\372\034\001\004\025'\372\343\332\321\016h)"
 7383      01041527 
 7383      FAE3DAD1 
 7383      0E6829
 7384 294c FF1F278E 		.ascii	"\377\037'\216>\270l\211\256\032\036\316\327\3361\"7"
 7384      3EB86C89 
 7384      AE1A1ECE 
 7384      D7DE3122 
ARM GAS  C:\Users\DJESSOU\AppData\Local\Temp\cc3eovRL.s 			page 303


 7384      37
 7385 295d 9CC97C41 		.ascii	"\234\311|A\210\361\342sTJ\027\316\230\274\340`\036\025"
 7385      88F1E273 
 7385      544A17CE 
 7385      98BCE060 
 7385      1E15
 7386 296f D5FD02DF 		.ascii	"\325\375\002\337|\250qH\352Lf\355\224w(H\300F.\003\315"
 7386      7CA87148 
 7386      EA4C66ED 
 7386      94772848 
 7386      C0462E03 
 7387 2984 7025A6D2 		.ascii	"p%\246\322\240\215\347\237\013\273\252ec\3273\2608H"
 7387      A08DE79F 
 7387      0BBBAA65 
 7387      63D733B0 
 7387      3848
 7388 2996 CD850962 		.ascii	"\315\205\011b?\270\000k\354y\327\266\355\227B\007k\222"
 7388      3FB8006B 
 7388      EC79D7B6 
 7388      ED974207 
 7388      6B92
 7389 29a8 E234ECB4 		.ascii	"\3424\354\2641r6\024\350P\360\022Io\351,\264- >\230"
 7389      31723614 
 7389      E850F012 
 7389      496FE92C 
 7389      B42D203E 
 7390 29bd A5234385 		.ascii	"\245#C\2059FaBe\310\273\312\314w1R[BvD\343\304\273\253"
 7390      39466142 
 7390      65C8BBCA 
 7390      CC773152 
 7390      5B427644 
 7391 29d5 0E86908F 		.ascii	"\016\206\220\217\361\210\251&\372\255\344\233\367\374"
 7391      F188A926 
 7391      FAADE49B 
 7391      F7FC
 7392 29e3 996CF0C9 		.ascii	"\231l\360\311\030\215\014G\221]\251\017U\252]\353\017"
 7392      188D0C47 
 7392      915DA90F 
 7392      55AA5DEB 
 7392      0F
 7393 29f4 28B06AEF 		.ascii	"(\260j\357\360\235S\317\006f\330\212\320\312*~\235R"
 7393      F09D53CF 
 7393      0666D88A 
 7393      D0CA2A7E 
 7393      9D52
 7394 2a06 C686BF25 		.ascii	"\306\206\277%\261f\272\353\010\346\023\210$\001J\036"
 7394      B166BAEB 
 7394      08E61388 
 7394      24014A1E 
 7395 2a16 DD25C6D6 		.ascii	"\335%\306\326=\010H\327\251T\005\323\220T1\206\277\306"
 7395      3D0848D7 
 7395      A95405D3 
 7395      90543186 
 7395      BFC6
 7396 2a28 A841DFF4 		.ascii	"\250A\337\364\2168[\237C:\223\251\001\276\220b\305\330"
 7396      8E385B9F 
 7396      433A93A9 
ARM GAS  C:\Users\DJESSOU\AppData\Local\Temp\cc3eovRL.s 			page 304


 7396      01BE9062 
 7396      C5D8
 7397 2a3a 3E933889 		.ascii	">\2238\211\005\361P^$\341\303\360]d/\325\004\245\017"
 7397      05F1505E 
 7397      24E1C3F0 
 7397      5D642FD5 
 7397      04A50F
 7398 2a4d 75AEA808 		.ascii	"u\256\250\010\302\374\240\0113\006\220U\337A]c\336*"
 7398      C2FCA009 
 7398      33069055 
 7398      DF415D63 
 7398      DE2A
 7399 2a5f BE9D28D6 		.ascii	"\276\235(\326e\014\350\376\021\261\000&,\316\316\200"
 7399      650CE8FE 
 7399      11B10026 
 7399      2CCECE80 
 7400 2a6f 13515D9E 		.ascii	"\023Q]\236>jF\233\177-\205I\233\325\231\371\223\257"
 7400      3E6A469B 
 7400      7F2D8549 
 7400      9BD599F9 
 7400      93AF
 7401 2a81 B285BF19 		.ascii	"\262\205\277\031\332\264\215\347\000=\\(g\230=J\303"
 7401      DAB48DE7 
 7401      003D5C28 
 7401      67983D4A 
 7401      C3
 7402 2a92 11D9327D 		.ascii	"\021\3312}\373\261\361PW\206\223\247\310\320\261\256"
 7402      FBB1F150 
 7402      578693A7 
 7402      C8D0B1AE 
 7403 2aa2 7DFC3870 		.ascii	"}\3748p\330\312K\224\226~`\033i\231\356\316\337_\221"
 7403      D8CA4B94 
 7403      967E601B 
 7403      6999EECE 
 7403      DF5F91
 7404 2ab5 69C56EF7 		.ascii	"i\305n\367\015\016\234\012\023\013#\343\322\366\233"
 7404      0D0E9C0A 
 7404      130B23E3 
 7404      D2F69B
 7405 2ac4 4DC07103 		.ascii	"M\300q\003\\\372\363\352\377\002\301\345\346TL\201\310"
 7405      5CFAF3EA 
 7405      FF02C1E5 
 7405      E6544C81 
 7405      C8
 7406 2ad5 4BC3C51A 		.ascii	"K\303\305\032\274\203\033\026?\335\006\372\326\264\001"
 7406      BC831B16 
 7406      3FDD06FA 
 7406      D6B401
 7407 2ae4 CAA9555D 		.ascii	"\312\251U]\222\033\322g\331\345\016\327\231n\226S,\204"
 7407      921BD267 
 7407      D9E50ED7 
 7407      996E9653 
 7407      2C84
 7408 2af6 193F1099 		.ascii	"\031?\020\231\\\257\333y\273\253(\367\236hE\022\361"
 7408      5CAFDB79 
 7408      BBAB28F7 
 7408      9E684512 
ARM GAS  C:\Users\DJESSOU\AppData\Local\Temp\cc3eovRL.s 			page 305


 7408      F1
 7409 2b07 5D64C806 		.ascii	"]d\310\006\370I\362(\016)\275\270\252\214\3575e2\023"
 7409      F849F228 
 7409      0E29BDB8 
 7409      AA8CEF35 
 7409      653213
 7410 2b1a AB026AF9 		.ascii	"\253\002j\371\225*@?\273sY\303\332\301\276o\370\206"
 7410      952A403F 
 7410      BB7359C3 
 7410      DAC1BE6F 
 7410      F886
 7411 2b2c 06F1DC45 		.ascii	"\006\361\334E\257\242\012{\024t\313\313\225~*\307\201"
 7411      AFA20A7B 
 7411      1474CBCB 
 7411      957E2AC7 
 7411      81
 7412 2b3d 7BE6E905 		.ascii	"{\346\351\005i\367P\017\342\003{\0133\337\335\237\203"
 7412      69F7500F 
 7412      E2037B0B 
 7412      33DFDD9F 
 7412      83
 7413 2b4e 1A578187 		.ascii	"\032W\201\207\316\016\300\276wRF$x\312*\010)\336\005"
 7413      CE0EC0BE 
 7413      77524624 
 7413      78CA2A08 
 7413      29DE05
 7414 2b61 0E7B8999 		.ascii	"\016{\211\231d\277\300\007&VP\245\300h\241\354\015\375"
 7414      64BFC007 
 7414      265650A5 
 7414      C068A1EC 
 7414      0DFD
 7415 2b73 BA2E6750 		.ascii	"\272.gP-\377\207XT%\331\255\014V\256\022+Q[*\255\301"
 7415      2DFF8758 
 7415      5425D9AD 
 7415      0C56AE12 
 7415      2B515B2A 
 7416 2b89 273B1EBE 		.ascii	"';\036\276\367\376\367E\036\323\012\310yP\236=#F\331"
 7416      F7FEF745 
 7416      1ED30AC8 
 7416      79509E3D 
 7416      2346D9
 7417 2b9c AFA19C97 		.ascii	"\257\241\234\227\327z\372z\014\253u3=\232|\207\307*"
 7417      D77AFA7A 
 7417      0CAB7533 
 7417      3D9A7C87 
 7417      C72A
 7418 2bae 47B8B2D1 		.ascii	"G\270\262\321\216\306\316\216x.\304:\240l\340\304\334"
 7418      8EC6CE8E 
 7418      782EC43A 
 7418      A06CE0C4 
 7418      DC
 7419 2bbf A4FB5C4F 		.ascii	"\244\373\\O\330\022\261\356;\001\012\000\213\017\250"
 7419      D812B1EE 
 7419      3B010A00 
 7419      8B0FA8
 7420 2bce 37430EDC 		.ascii	"7C\016\334W\237vF\242\345\344\"\326:b&\257DB\234\012"
 7420      579F7646 
ARM GAS  C:\Users\DJESSOU\AppData\Local\Temp\cc3eovRL.s 			page 306


 7420      A2E5E422 
 7420      D63A6226 
 7420      AF44429C 
 7421 2be3 139104EB 		.ascii	"\023\221\004\353\002\250\374\021x\252\034G\354\012\261"
 7421      02A8FC11 
 7421      78AA1C47 
 7421      EC0AB1
 7422 2bf2 8143AC12 		.ascii	"\201C\254\022\236F`F\303\336/:K\360\001'r\334\022Dj"
 7422      9E466046 
 7422      C3DE2F3A 
 7422      4BF00127 
 7422      72DC1244 
 7423 2c07 97946500 		.ascii	"\227\224e\000\350\013\032#\324_\357\035\216\011\227"
 7423      E80B1A23 
 7423      D45FEF1D 
 7423      8E0997
 7424 2c16 1C2EF0D5 		.ascii	"\034.\360\3251lE\355\2408\3035\333\237\035\357\267\274"
 7424      316C45ED 
 7424      A038C335 
 7424      DB9F1DEF 
 7424      B7BC
 7425 2c28 BB136104 		.ascii	"\273\023a\004\336\021\336\025z\216\025\263\200\"\367"
 7425      DE11DE15 
 7425      7A8E15B3 
 7425      8022F7
 7426 2c37 ED6B5D8E 		.ascii	"\355k]\216\314\344\373Ce\031\211\257\261\240\227\333"
 7426      CCE4FB43 
 7426      651989AF 
 7426      B1A097DB 
 7427 2c47 0613297A 		.ascii	"\006\023)z(\307\336\344&\221\273\252\322\024w\227m1"
 7427      28C7DEE4 
 7427      2691BBAA 
 7427      D2147797 
 7427      6D31
 7428 2c59 6677C43C 		.ascii	"fw\304<\217\2208\242\006\247\366}\014\231\315\366\320"
 7428      8F9038A2 
 7428      06A7F67D 
 7428      0C99CDF6 
 7428      D0
 7429 2c6a A75EE57A 		.ascii	"\247^\345z(Z\321]p:\024\037\240\264}\002\375\027\000"
 7429      285AD15D 
 7429      703A141F 
 7429      A0B47D02 
 7429      FD1700
 7430 2c7d 6A6148CA 		.ascii	"jaH\312'\374\242\250\342\217\233\376;i\013\243\324\023"
 7430      27FCA2A8 
 7430      E28F9BFE 
 7430      3B690BA3 
 7430      D413
 7431 2c8f F3443009 		.ascii	"\363D0\011<\326\227<\220\300%C\032)\016\263\36776\356"
 7431      3CD6973C 
 7431      90C02543 
 7431      1A290EB3 
 7431      F73736EE 
 7432 2ca3 4F69928A 		.ascii	"Oi\222\212~\002\320\247\352\223z\361^\206^\320a4\025"
 7432      7E02D0A7 
 7432      EA937AF1 
ARM GAS  C:\Users\DJESSOU\AppData\Local\Temp\cc3eovRL.s 			page 307


 7432      5E865ED0 
 7432      613415
 7433 2cb6 66BD8868 		.ascii	"f\275\210h\206*\260j`\244\321*\222\301B\377\265\314"
 7433      862AB06A 
 7433      60A4D12A 
 7433      92C142FF 
 7433      B5CC
 7434 2cc8 46C65BCF 		.ascii	"F\306[\317\221\2066\3701\274\247\374\2149Te\333.K\254"
 7434      918636F8 
 7434      31BCA7FC 
 7434      8C395465 
 7434      DB2E4BAC 
 7435 2cdc 7D2799B5 		.ascii	"}'\231\265,\033[\377\307\313\303\301\037\226)@\014\331"
 7435      2C1B5BFF 
 7435      C7CBC3C1 
 7435      1F962940 
 7435      0CD9
 7436 2cee E1F40F34 		.ascii	"\341\364\0174\231\225\215\030h\345^\374\023R\335]Y5"
 7436      99958D18 
 7436      68E55EFC 
 7436      1352DD5D 
 7436      5935
 7437 2d00 5B49C46C 		.ascii	"[I\304l).4\312-\322\201B\244O\2476\275!J\351\340\213"
 7437      292E34CA 
 7437      2DD28142 
 7437      A44FA736 
 7437      BD214AE9 
 7438 2d16 476D4F70 		.ascii	"GmOp\2662\20046Lp\372Z\270\354\216\330#M\373\227m\221"
 7438      B6328034 
 7438      364C70FA 
 7438      5AB8EC8E 
 7438      D8234DFB 
 7439 2d2d 246F2241 		.ascii	"$o\"A*\203\011\\\2616S\004TI\236z=}\021F\256\030T7\237"
 7439      2A83095C 
 7439      B1365304 
 7439      54499E7A 
 7439      3D7D1146 
 7440 2d46 433B4263 		.ascii	"C;Bc\2162\206hW\370\267\334/(\037\007x9\232\272\233"
 7440      8E328668 
 7440      57F8B7DC 
 7440      2F281F07 
 7440      78399ABA 
 7441 2d5b 8BE37C2D 		.ascii	"\213\343|-\332\275T\007\372\004Sq\3203\026-\351l(\210"
 7441      DABD5407 
 7441      FA045371 
 7441      D033162D 
 7441      E96C2888 
 7442 2d6f BA63F827 		.ascii	"\272c\370'x\363\271\245X \276\3319\025'b\312\277\237"
 7442      78F3B9A5 
 7442      5820BED9 
 7442      39152762 
 7442      CABF9F
 7443 2d82 EF045497 		.ascii	"\357\004T\227\300\010\"\351\301\206Pi]\210r\256l\300"
 7443      C00822E9 
 7443      C1865069 
 7443      5D8872AE 
 7443      6CC0
ARM GAS  C:\Users\DJESSOU\AppData\Local\Temp\cc3eovRL.s 			page 308


 7444 2d94 BCBA9ADE 		.ascii	"\274\272\232\336\251O7\317v\202\254\276\223\334\322"
 7444      A94F37CF 
 7444      7682ACBE 
 7444      93DCD2
 7445 2da3 C4FD8D2D 		.ascii	"\304\375\215-\001\251\261\024[\241\217-\025R\3501B["
 7445      01A9B114 
 7445      5BA18F2D 
 7445      1552E831 
 7445      425B
 7446 2db5 F3CE015D 		.ascii	"\363\316\001]l~cdg\017>\214\373S\265l$\236>\3259\037"
 7446      6C7E6364 
 7446      670F3E8C 
 7446      FB53B56C 
 7446      249E3ED5 
 7447 2dcb 92063AA7 		.ascii	"\222\006:\247\220\216\007\336\216\324\352\242:`14b\377"
 7447      908E07DE 
 7447      8ED4EAA2 
 7447      3A603134 
 7447      62FF
 7448 2ddd DDE7FF1C 		.ascii	"\335\347\377\034\272\203`\2232I&\261\333\231\275\002"
 7448      BA836093 
 7448      324926B1 
 7448      DB99BD02 
 7449 2ded 50C4A25C 		.ascii	"P\304\242\\C\256q\255\275\377\013\242\375\377\2346\327"
 7449      43AE71AD 
 7449      BDFF0BA2 
 7449      FDFF9C36 
 7449      D7
 7450 2dfe BA881483 		.ascii	"\272\210\024\203\211I\325\304\271\350\000\223\012\373"
 7450      8949D5C4 
 7450      B9E80093 
 7450      0AFB
 7451 2e0c F1876787 		.ascii	"\361\207g\207\333\336\376\2045\025\317>O\033\305\224"
 7451      DBDEFE84 
 7451      3515CF3E 
 7451      4F1BC594 
 7452 2e1c F92DC81C 		.ascii	"\371-\310\034\215\225\\D\206\315|\244n\225J\326\273"
 7452      8D955C44 
 7452      86CD7CA4 
 7452      6E954AD6 
 7452      BB
 7453 2e2d 6FB0AEFB 		.ascii	"o\260\256\373GE\327\031\031\232\351&g\241\312y1\225"
 7453      4745D719 
 7453      199AE926 
 7453      67A1CA79 
 7453      3195
 7454 2e3f 257E026D 		.ascii	"%~\002m\376\332\253)\271]\033\321#\014\022\350\257\010"
 7454      FEDAAB29 
 7454      B95D1BD1 
 7454      230C12E8 
 7454      AF08
 7455 2e51 0592F88F 		.ascii	"\005\222\370\217]k\227\353+\202\2320\357\021\331\011"
 7455      5D6B97EB 
 7455      2B829A30 
 7455      EF11D909 
 7456 2e61 9DC63C86 		.ascii	"\235\306<\206\304k\247r\267\0307\302\341\266\020\361"
 7456      C46BA772 
ARM GAS  C:\Users\DJESSOU\AppData\Local\Temp\cc3eovRL.s 			page 309


 7456      B71837C2 
 7456      E1B610F1 
 7457 2e71 5C286F63 		.ascii	"\\(oc9\000\305\223\244\3723:\202\207;\015\313\311\374"
 7457      3900C593 
 7457      A4FA333A 
 7457      82873B0D 
 7457      CBC9FC
 7458 2e84 7A9ADF7A 		.ascii	"z\232\337z\273\310\330r\234\200?\026\322\177\005\241"
 7458      BBC8D872 
 7458      9C803F16 
 7458      D27F05A1 
 7459 2e94 517FC22D 		.ascii	"Q\177\302-\301.RBL),\031C\232Gq\241g\212\364\235\332"
 7459      C12E5242 
 7459      4C292C19 
 7459      439A4771 
 7459      A1678AF4 
 7460 2eaa D9DBD0A2 		.ascii	"\331\333\320\242\325\351\024~\224\224<\277q\367D\345"
 7460      D5E9147E 
 7460      94943CBF 
 7460      71F744E5 
 7461 2eba 06467DC0 		.ascii	"\006F}\300\365X\341\255\346V\234}'\010N\246,\377\263"
 7461      F558E1AD 
 7461      E6569C7D 
 7461      27084EA6 
 7461      2CFFB3
 7462 2ecd 629BD08E 		.ascii	"b\233\320\216*)\332\312f\220\031\322x\330V\204\356\344"
 7462      2A29DACA 
 7462      669019D2 
 7462      78D85684 
 7462      EEE4
 7463 2edf 25       		.ascii	"%"
 7464 2ee0 6D94C6F4 		.ascii	"m\224\306\364\015\013\314\340P\272v\026\303\221\357"
 7464      0D0BCCE0 
 7464      50BA7616 
 7464      C391EF
 7465 2eef 7F8D9B47 		.ascii	"\177\215\233G\362\373\023\3703`\333T\277\315\232\210"
 7465      F2FB13F8 
 7465      3360DB54 
 7465      BFCD9A88 
 7466 2eff 079DFF7C 		.ascii	"\007\235\377|\371\314\342\275\241\277\375e\214\024\346"
 7466      F9CCE2BD 
 7466      A1BFFD65 
 7466      8C14E6
 7467 2f0e A2E60923 		.ascii	"\242\346\011#\266\373IzN,\341%\024U\235b\210\251q\240"
 7467      B6FB497A 
 7467      4E2CE125 
 7467      14559D62 
 7467      88A971A0 
 7468 2f22 F9F9302A 		.ascii	"\371\3710*eH\243\255%\177\340>+\025\027\252Aa\362(\355"
 7468      6548A3AD 
 7468      257FE03E 
 7468      2B1517AA 
 7468      4161F228 
 7469 2f37 651D943B 		.ascii	"e\035\224;k,\304k*\374\237\005\013\202E`\240\232>\307"
 7469      6B2CC46B 
 7469      2AFC9F05 
 7469      0B824560 
ARM GAS  C:\Users\DJESSOU\AppData\Local\Temp\cc3eovRL.s 			page 310


 7469      A09A3EC7 
 7470 2f4b 5E6D987A 		.ascii	"^m\230z\210.jF\321\036\211\333\222\212\024S}x\237\317"
 7470      882E6A46 
 7470      D11E89DB 
 7470      928A1453 
 7470      7D789FCF 
 7471 2f5f 1ECBDA0A 		.ascii	"\036\313\332\0128\225\360\177\214\336\016\21171\214"
 7471      3895F07F 
 7471      8CDE0E89 
 7471      37318C
 7472 2f6e F80D8C9E 		.ascii	"\370\015\214\236\3317\323\372\351\014\361\373\201\030"
 7472      D937D3FA 
 7472      E90CF1FB 
 7472      8118
 7473 2f7c 7D51640F 		.ascii	"}Qd\017\336\025\006\260s\305\000\316a\030 \370\011\260"
 7473      DE1506B0 
 7473      73C500CE 
 7473      611820F8 
 7473      09B0
 7474 2f8e D64FE918 		.ascii	"\326O\351\030dV^C&\036\271\202\272f\224\275\024\013"
 7474      64565E43 
 7474      261EB982 
 7474      BA6694BD 
 7474      140B
 7475 2fa0 6BEACFA9 		.ascii	"k\352\317\251(1\017\010x\0149\220\213vl\251\004\234"
 7475      28310F08 
 7475      780C3990 
 7475      8B766CA9 
 7475      049C
 7476 2fb2 B487DC56 		.ascii	"\264\207\334V_R\334X\263\276.\377c\026\362a\261\233"
 7476      5F52DC58 
 7476      B3BE2EFF 
 7476      6316F261 
 7476      B19B
 7477 2fc4 64649AB2 		.ascii	"dd\232\262V\346\370\311\350\215\234\025\212\276k\221"
 7477      56E6F8C9 
 7477      E88D9C15 
 7477      8ABE6B91 
 7478 2fd4 84D5D288 		.ascii	"\204\325\322\210\342\336\\\272:\254\376\331\210\260"
 7478      E2DE5CBA 
 7478      3AACFED9 
 7478      88B0
 7479 2fe2 9E1E6383 		.ascii	"\236\036c\203\203\323\217L\246\252\031c\272h\273\340"
 7479      83D38F4C 
 7479      A6AA1963 
 7479      BA68BBE0 
 7480 2ff2 FE5CCCA6 		.ascii	"\376\\\314\246\311\235\350\361W1!\326\241\020\262\226"
 7480      C99DE8F1 
 7480      573121D6 
 7480      A110B296 
 7481 3002 B13F5999 		.ascii	"\261?Y\231\344\207`\300@\227\340\273J\311\267\222\244"
 7481      E48760C0 
 7481      4097E0BB 
 7481      4AC9B792 
 7481      A4
 7482 3013 A8DA0F9E 		.ascii	"\250\332\017\2367\362\324\015\366wL \373\025p\233a\240"
 7482      37F2D40D 
ARM GAS  C:\Users\DJESSOU\AppData\Local\Temp\cc3eovRL.s 			page 311


 7482      F6774C20 
 7482      FB15709B 
 7482      61A0
 7483 3025 35EA138B 		.ascii	"5\352\023\213\221f+\007\3313\224\220X\275\343N\360\022"
 7483      91662B07 
 7483      D9339490 
 7483      58BDE34E 
 7483      F012
 7484 3037 EB8AE571 		.ascii	"\353\212\345q\362\322y\367\215D\276\327l\222\261\200"
 7484      F2D279F7 
 7484      8D44BED7 
 7484      6C92B180 
 7485 3047 B805BDB7 		.ascii	"\270\005\275\267\204\357\336z\034*(\332\377\240\032"
 7485      84EFDE7A 
 7485      1C2A28DA 
 7485      FFA01A
 7486 3056 C0B44C81 		.ascii	"\300\264L\201\021o\334\273\334L?\303r\245\302\023\226"
 7486      116FDCBB 
 7486      DC4C3FC3 
 7486      72A5C213 
 7486      96
 7487 3067 6EFA0DD7 		.ascii	"n\372\015\327^%\316.\306\331\277\360\373\305\344\314"
 7487      5E25CE2E 
 7487      C6D9BFF0 
 7487      FBC5E4CC 
 7488 3077 D7804F23 		.ascii	"\327\200O#\363.\234\025'\301\260\005&C\272\320\243\242"
 7488      F32E9C15 
 7488      27C1B005 
 7488      2643BAD0 
 7488      A3A2
 7489 3089 BEB2E172 		.ascii	"\276\262\341riM\232\337@\345\254E\260\305p\230k\233"
 7489      694D9ADF 
 7489      40E5AC45 
 7489      B0C57098 
 7489      6B9B
 7490 309b 0768BA12 		.ascii	"\007h\272\022q3\274\036\242$\232\024P\014\3243B>\256"
 7490      7133BC1E 
 7490      A2249A14 
 7490      500CD433 
 7490      423EAE
 7491 30ae B92049B0 		.ascii	"\271 I\260\334\243\370\214l}\025f\267\335\244)`O\010"
 7491      DCA3F88C 
 7491      6C7D1566 
 7491      B7DDA429 
 7491      604F08
 7492 30c1 37742FB6 		.ascii	"7t/\266\360D\210n1E9\261\336s\206m\022@@f\355\204\333"
 7492      F044886E 
 7492      314539B1 
 7492      DE73866D 
 7492      12404066 
 7493 30d8 01573599 		.ascii	"\001W5\231\341\344+h\036\011\257\220\353\017\304\310"
 7493      E1E42B68 
 7493      1E09AF90 
 7493      EB0FC4C8 
 7494 30e8 4AC819B7 		.ascii	"J\310\031\267\233\244\301]\305\023^7\360\033\232P\003"
 7494      9BA4C15D 
 7494      C5135E37 
ARM GAS  C:\Users\DJESSOU\AppData\Local\Temp\cc3eovRL.s 			page 312


 7494      F01B9A50 
 7494      03
 7495 30f9 8EA26231 		.ascii	"\216\242b1\000<o\245\357\010\011\325\240\020\003\271"
 7495      003C6FA5 
 7495      EF0809D5 
 7495      A01003B9 
 7496 3109 21AC9B05 		.ascii	"!\254\233\005fBd\324(\327a\305\315\326wH\025\325\014"
 7496      664264D4 
 7496      28D761C5 
 7496      CDD67748 
 7496      15D50C
 7497 311c 5A88DCB2 		.ascii	"Z\210\334\262\234\322\3460\234|X\205w\037\315i\340\010"
 7497      9CD2E630 
 7497      9C7C5885 
 7497      771FCD69 
 7497      E008
 7498 312e 0FD3F518 		.ascii	"\017\323\365\030\207\250\275\012jD\350T\200\004\251"
 7498      87A8BD0A 
 7498      6A44E854 
 7498      8004A9
 7499 313d 0E487F5D 		.ascii	"\016H\177]\205\272\\\006\000G0\015\336\321\355u:\301"
 7499      85BA5C06 
 7499      0047300D 
 7499      DED1ED75 
 7499      3AC1
 7500 314f AE56A902 		.ascii	"\256V\251\002\371lp@\317\205G\3278\255\311>$\332\263"
 7500      F96C7040 
 7500      CF8547D7 
 7500      38ADC93E 
 7500      24DAB3
 7501 3162 9D5679C1 		.ascii	"\235Vy\301\027\017\014\247\261)\365\023\322\203\375"
 7501      170F0CA7 
 7501      B129F513 
 7501      D283FD
 7502 3171 800BAD61 		.ascii	"\200\013\255a\272\367\235O\333\303[\035{\346O~\004\307"
 7502      BAF79D4F 
 7502      DBC35B1D 
 7502      7BE64F7E 
 7502      04C7
 7503 3183 DE4BF5D3 		.ascii	"\336K\365\3235\327A\341\201\254\277\260UR\344\032?\215"
 7503      35D741E1 
 7503      81ACBFB0 
 7503      5552E41A 
 7503      3F8D
 7504 3195 78DA3537 		.ascii	"x\33257\254\342\273\331Vh\343\240|\243\234z;\230\256"
 7504      ACE2BBD9 
 7504      5668E3A0 
 7504      7CA39C7A 
 7504      3B98AE
 7505 31a8 FB01A9A6 		.ascii	"\373\001\251\246\270\260\232\317b \271g\332+\240\332"
 7505      B8B09ACF 
 7505      6220B967 
 7505      DA2BA0DA 
 7506 31b8 C817036A 		.ascii	"\310\027\003j\253\361\313 VJ\023\306\263\271\240\271"
 7506      ABF1CB20 
 7506      564A13C6 
 7506      B3B9A0B9 
ARM GAS  C:\Users\DJESSOU\AppData\Local\Temp\cc3eovRL.s 			page 313


 7507 31c8 6521D205 		.ascii	"e!\322\005p?\214\277\374\"\001nb\227\331%t\235\324Y"
 7507      703F8CBF 
 7507      FC22016E 
 7507      6297D925 
 7507      749DD459 
 7508 31dc 8F359076 		.ascii	"\2175\220v\3648>\353g\211\016\227\253cD\024\253&Z\002"
 7508      F4383EEB 
 7508      67890E97 
 7508      AB634414 
 7508      AB265A02 
 7509 31f0 44881610 		.ascii	"D\210\026\020\030h`#\363q\244}Qg\314\021R\215\230\314"
 7509      18686023 
 7509      F371A47D 
 7509      5167CC11 
 7509      528D98CC 
 7510 3204 57CCFA37 		.ascii	"W\314\3727zQ4\323\213\213\272\2336\331\224\216\300\370"
 7510      7A5134D3 
 7510      8B8BBA9B 
 7510      36D9948E 
 7510      C0F8
 7511 3216 B1AF605C 		.ascii	"\261\257`\\B:\315\267(J\235\314\327J\312-D\036\265\223"
 7511      423ACDB7 
 7511      284A9DCC 
 7511      D74ACA2D 
 7511      441EB593 
 7512 322a ABD6E558 		.ascii	"\253\326\345X\317\3572#\005%\324N\001\356\270p E\317"
 7512      CFEF3223 
 7512      0525D44E 
 7512      01EEB870 
 7512      2045CF
 7513 323d 58B4B2BC 		.ascii	"X\264\262\274\230n\177\004\330\007\013\377\004\347n"
 7513      986E7F04 
 7513      D8070BFF 
 7513      04E76E
 7514 324c D6DAEDB3 		.ascii	"\326\332\355\263\006\016\376\234\320\375\254\274Cm\255"
 7514      060EFE9C 
 7514      D0FDACBC 
 7514      436DAD
 7515 325b 9197D506 		.ascii	"\221\227\325\006C(\206\037\327\263NMa{\027\366)>[\246"
 7515      4328861F 
 7515      D7B34E4D 
 7515      617B17F6 
 7515      293E5BA6 
 7516 326f 8E3A12FE 		.ascii	"\216:\022\376\260\346\207\233Px\024\3469\306\362\010"
 7516      B0E6879B 
 7516      507814E6 
 7516      39C6F208 
 7517 327f 9D74F685 		.ascii	"\235t\366\205B\007\323\200\376\357F5\256O\206\221\242"
 7517      4207D380 
 7517      FEEF4635 
 7517      AE4F8691 
 7517      A2
 7518 3290 8A9C5177 		.ascii	"\212\234Qw\222\276\262\326\200\020b\245\264f\363\337"
 7518      92BEB2D6 
 7518      801062A5 
 7518      B466F3DF 
 7519 32a0 0FCBFF0F 		.ascii	"\017\313\377\017\276a\0106+\303|\254\237\310|\371z\016"
ARM GAS  C:\Users\DJESSOU\AppData\Local\Temp\cc3eovRL.s 			page 314


 7519      BE610836 
 7519      2BC37CAC 
 7519      9FC87CF9 
 7519      7A0E
 7520 32b2 BE90C2F5 		.ascii	"\276\220\302\365i1B\377\241\336\017\223\301an\006\241"
 7520      693142FF 
 7520      A1DE0F93 
 7520      C1616E06 
 7520      A1
 7521 32c3 EEF41F0E 		.ascii	"\356\364\037\016\222b*\221 \013\315\260\371\211\252"
 7521      92622A91 
 7521      200BCDB0 
 7521      F989AA
 7522 32d2 09CA0270 		.ascii	"\011\312\002p\305\226\241W\320\264xQ\270\335\251\311"
 7522      C596A157 
 7522      D0B47851 
 7522      B8DDA9C9 
 7523 32e2 4084C582 		.ascii	"@\204\305\202\3355\370\315\370\372\207\027\021\325\205"
 7523      DD35F8CD 
 7523      F8FA8717 
 7523      11D585
 7524 32f1 B9951D88 		.ascii	"\271\225\035\210d\003jR\334\201;^vn\0179\310C\362\226"
 7524      64036A52 
 7524      DC813B5E 
 7524      766E0F39 
 7524      C843F296 
 7525 3305 5002F41A 		.ascii	"P\002\364\032?\322\010\203^\030U\035+4\247\001M\215"
 7525      3FD20883 
 7525      5E18551D 
 7525      2B34A701 
 7525      4D8D
 7526 3317 657CEB24 		.ascii	"e|\353$\204U\014c\023.c\245M\255Iz$\327\025\"\244:\001"
 7526      84550C63 
 7526      132E63A5 
 7526      4DAD497A 
 7526      24D71522 
 7527 332e A73BE819 		.ascii	"\247;\350\031\000\377\306\010\246\031\033\372;p:O=\327"
 7527      00FFC608 
 7527      A6191BFA 
 7527      3B703A4F 
 7527      3DD7
 7528 3340 107B5D82 		.ascii	"\020{]\202k\301\341Y\372\261\321\023\345(f\256{\342"
 7528      6BC1E159 
 7528      FAB1D113 
 7528      E52866AE 
 7528      7BE2
 7529 3352 70DA8B83 		.ascii	"p\332\213\203\254\336W\221\264*i\3350Lr\204\000\304"
 7529      ACDE5791 
 7529      B42A69DD 
 7529      304C7284 
 7529      00C4
 7530 3364 948D336B 		.ascii	"\224\2153k,\035\371\036\253(\366\246\275\207wgL\217"
 7530      2C1DF91E 
 7530      AB28F6A6 
 7530      BD877767 
 7530      4C8F
 7531 3376 DB34F688 		.ascii	"\3334\366\21036o0\241\322\235@\024UI\341\3340\275H!"
ARM GAS  C:\Users\DJESSOU\AppData\Local\Temp\cc3eovRL.s 			page 315


 7531      33366F30 
 7531      A1D29D40 
 7531      145549E1 
 7531      DC30BD48 
 7532 338b DF300DBA 		.ascii	"\3370\015\272\232*\313\003m\021V9\351\007\347zY\230"
 7532      9A2ACB03 
 7532      6D115639 
 7532      E907E77A 
 7532      5998
 7533 339d 82E45A09 		.ascii	"\202\344Z\011\311\350\200\024\"\332j?1\252\334\"w\353"
 7533      C9E88014 
 7533      22DA6A3F 
 7533      31AADC22 
 7533      77EB
 7534 33af 255366F2 		.ascii	"%Sf\362\325@\022\271\202\251\301\022Z!?\324\302\212"
 7534      D54012B9 
 7534      82A9C112 
 7534      5A213FD4 
 7534      C28A
 7535 33c1 15D40632 		.ascii	"\025\324\0062\274nCU\003\240~\0175\370d\204\227\220"
 7535      BC6E4355 
 7535      03A07E0F 
 7535      35F86484 
 7535      9790
 7536 33d3 8B48EC0B 		.ascii	"\213H\354\013`e\333\3763\221oSN\351\220'\212\316+,\177"
 7536      6065DBFE 
 7536      33916F53 
 7536      4EE99027 
 7536      8ACE2B2C 
 7537 33e8 78658608 		.ascii	"xe\206\010\327:\304px*\263\367k\233@\352\0101\017\177"
 7537      D73AC470 
 7537      782AB3F7 
 7537      6B9B40EA 
 7537      08310F7F 
 7538 33fc 8A0883C1 		.ascii	"\212\010\203\301\273\371e\363@\014\236\202ci\010n7\217"
 7538      BBF965F3 
 7538      400C9E82 
 7538      6369086E 
 7538      378F
 7539 340e C780158E 		.ascii	"\307\200\025\216\036\302\035Y5\212\202\226\253\"\230"
 7539      1EC21D59 
 7539      358A8296 
 7539      AB2298
 7540 341d D39F791B 		.ascii	"\323\237y\033-E \305Bf\000\371\322\256\245\351\220\377"
 7540      2D4520C5 
 7540      426600F9 
 7540      D2AEA5E9 
 7540      90FF
 7541 342f A7B8B1DC 		.ascii	"\247\270\261\334\323G\236\227\325\002\0020\263\006W"
 7541      D3479E97 
 7541      D5020230 
 7541      B30657
 7542 343e F6857A41 		.ascii	"\366\205zA'\026~\033\235\365\240\020\235\321\233\005"
 7542      27167E1B 
 7542      9DF5A010 
 7542      9DD19B05 
 7543 344e 3354C983 		.ascii	"3T\311\203,\012\003(\010\3264p(\256\357\256\037\266"
ARM GAS  C:\Users\DJESSOU\AppData\Local\Temp\cc3eovRL.s 			page 316


 7543      2C0A0328 
 7543      08D63470 
 7543      28AEEFAE 
 7543      1FB6
 7544 3460 782826EB 		.ascii	"x(&\353b\351\253\314\346\245\260\342\233\374\026\033"
 7544      62E9ABCC 
 7544      E6A5B0E2 
 7544      9BFC161B 
 7545 3470 9945C2D4 		.ascii	"\231E\302\324\357\362\345\351\035=t\334\256Y\177Y\255"
 7545      EFF2E5E9 
 7545      1D3D74DC 
 7545      AE597F59 
 7545      AD
 7546 3481 0BCEC088 		.ascii	"\013\316\300\210\350\012\334\306G\012c\367\311\235\012"
 7546      E80ADCC6 
 7546      470A63F7 
 7546      C99D0A
 7547 3490 96787A00 		.ascii	"\226xz\0002\231\3161\347\214\317XnO\274\366\262\256"
 7547      3299CE31 
 7547      E78CCF58 
 7547      6E4FBCF6 
 7547      B2AE
 7548 34a2 9DFB05FA 		.ascii	"\235\373\005\372/|N\334\263\345\336\202\024\244\231"
 7548      2F7C4EDC 
 7548      B3E5DE82 
 7548      14A499
 7549 34b1 C56DFDDC 		.ascii	"\305m\375\334\001\0264\010I\244\006\022|z\214\243\370"
 7549      01163408 
 7549      49A40612 
 7549      7C7A8CA3 
 7549      F8
 7550 34c2 E5283AEF 		.ascii	"\345(:\357o\231\022\233\235\037\343]\343\334\254\026"
 7550      6F99129B 
 7550      9D1FE35D 
 7550      E3DCAC16 
 7551 34d2 769CFF9A 		.ascii	"v\234\377\232.{\013\234\2708\377M\211J\265\314\377\366"
 7551      2E7B0B9C 
 7551      B838FF4D 
 7551      894AB5CC 
 7551      FFF6
 7552 34e4 4DA067DD 		.ascii	"M\240g\335\015\325jd\360\033\326\222\236\325\324u\317"
 7552      0DD56A64 
 7552      F01BD692 
 7552      9ED5D475 
 7552      CF
 7553 34f5 A6957F63 		.ascii	"\246\225\177cv\003#^\266\362\247\204v\027\246 \032%"
 7553      7603235E 
 7553      B6F2A784 
 7553      7617A620 
 7553      1A25
 7554 3507 B1C3B980 		.ascii	"\261\303\271\200\346\314\222\3444E\321\306\336\313\021"
 7554      E6CC92E4 
 7554      3445D1C6 
 7554      DECB11
 7555 3516 71894EE2 		.ascii	"q\211N\342\027\232u>\332\346\363H\303\335d\011<,\034"
 7555      179A753E 
 7555      DAE6F348 
ARM GAS  C:\Users\DJESSOU\AppData\Local\Temp\cc3eovRL.s 			page 317


 7555      C3DD6409 
 7555      3C2C1C
 7556 3529 03798E13 		.ascii	"\003y\216\023\373\303\217\253\266\015!B\\\"o3\223\256"
 7556      FBC38FAB 
 7556      B60D2142 
 7556      5C226F33 
 7556      93AE
 7557 353b 297FDD6A 		.ascii	")\177\335j0\022\340-\277>G5\323@d\344\025\243`Zf\374"
 7557      3012E02D 
 7557      BF3E4735 
 7557      D34064E4 
 7557      15A3605A 
 7558 3551 581C052B 		.ascii	"X\034\005+F\263B`\036\001\335x\343\341RW\276+<}7\206"
 7558      46B34260 
 7558      1E01DD78 
 7558      E3E15257 
 7558      BE2B3C7D 
 7559 3567 066691DE 		.ascii	"\006f\221\336y\023\355\357\0303\322\243k\207\006\361"
 7559      7913EDEF 
 7559      1833D2A3 
 7559      6B8706F1 
 7560 3577 71F9973D 		.ascii	"q\371\227=\304;\201PbZ\031\024\322\317:\236\231\337"
 7560      C43B8150 
 7560      625A1914 
 7560      D2CF3A9E 
 7560      99DF
 7561 3589 8E519D3A 		.ascii	"\216Q\235:\034Y\375\237\317|\221\016Z\334\234\221\304"
 7561      1C59FD9F 
 7561      CF7C910E 
 7561      5ADC9C91 
 7561      C4
 7562 359a D8B73FB5 		.ascii	"\330\267?\265G\177\314;\237F\377\333\374i\375\345\251"
 7562      477FCC3B 
 7562      9F46FFDB 
 7562      FC69FDE5 
 7562      A9
 7563 35ab B5E2A3F4 		.ascii	"\265\342\243\364A\265\000\017Z\300\225}\014\324\267"
 7563      41B5000F 
 7563      5AC0957D 
 7563      0CD4B7
 7564 35ba 04C3C37B 		.ascii	"\004\303\303{=\020\343\204\273L\225\207\212\331\266"
 7564      3D10E384 
 7564      BB4C9587 
 7564      8AD9B6
 7565 35c9 763D4B92 		.ascii	"v=K\222\034\362\370\321\237\234x\216T\374~\331\220\320"
 7565      1CF2F8D1 
 7565      9F9C788E 
 7565      54FC7ED9 
 7565      90D0
 7566 35db 7E57616C 		.ascii	"~Wal\243\246s5\312X's\311\027\237\3247Wf\276\371P@\304"
 7566      A3A67335 
 7566      CA582773 
 7566      C9179FD4 
 7566      375766BE 
 7567 35f3 BA7D63C6 		.ascii	"\272}c\306\236\032C\022\306\3168_\206\026\357\342\003"
 7567      9E1A4312 
 7567      C6CE385F 
ARM GAS  C:\Users\DJESSOU\AppData\Local\Temp\cc3eovRL.s 			page 318


 7567      8616EFE2 
 7567      03
 7568 3604 A4E5C0F1 		.ascii	"\244\345\300\361\346'\213\200L\273\036\326\300\023w"
 7568      E6278B80 
 7568      4CBB1ED6 
 7568      C01377
 7569 3613 FAB8CFFB 		.ascii	"\372\270\317\373\213\001\2516\373\207\016\204\000\321"
 7569      8B01A936 
 7569      FB870E84 
 7569      00D1
 7570 3621 0D2F2773 		.ascii	"\015/'s\266`\225\206\352\341\0142\265\260\220_O\026"
 7570      B6609586 
 7570      EAE10C32 
 7570      B5B0905F 
 7570      4F16
 7571 3633 EE4D1990 		.ascii	"\356M\031\220\265\015\013\014k\277y\242'\225\304\331"
 7571      B50D0B0C 
 7571      6BBF79A2 
 7571      2795C4D9 
 7572 3643 B2B359E3 		.ascii	"\262\263Y\343t}\342&z\0330\225\355=\333\030\267\202"
 7572      747DE226 
 7572      7A1B3095 
 7572      ED3DDB18 
 7572      B782
 7573 3655 6830D578 		.ascii	"h0\325x\273\3000\364\373q\322t\030\203\325i\347r\033"
 7573      BBC030F4 
 7573      FB71D274 
 7573      1883D569 
 7573      E7721B
 7574 3668 D4FEDFBB 		.ascii	"\324\376\337\273}\213\225\316-\207\330\245\006\345\255"
 7574      7D8B95CE 
 7574      2D87D8A5 
 7574      06E5AD
 7575 3677 DC568764 		.ascii	"\334V\207d\351:\231\302\266r\030\223\012\242IJ\351f"
 7575      E93A99C2 
 7575      B6721893 
 7575      0AA2494A 
 7575      E966
 7576 3689 79DA81E4 		.ascii	"y\332\201\344\015\340\264+\344\365'\242\010\002E\325"
 7576      0DE0B42B 
 7576      E4F527A2 
 7576      080245D5 
 7577 3699 0E2A337F 		.ascii	"\016*3\177\3343\334\\\245\017a\205'bD\207\3638}=\210"
 7577      DC33DC5C 
 7577      A50F6185 
 7577      27624487 
 7577      F3387D3D 
 7578 36ae F300     		.ascii	"\363\000"
 7579 36b0 ABAB1F2D 		.ascii	"\253\253\037-j\005\252R\247\344\301'\337\335\207=_\323"
 7579      6A05AA52 
 7579      A7E4C127 
 7579      DFDD873D 
 7579      5FD3
 7580 36c2 335132AA 		.ascii	"3Q2\252\316\245\372#*~\373\202\344\001\231>Zj\017;u"
 7580      CEA5FA23 
 7580      2A7EFB82 
 7580      E401993E 
ARM GAS  C:\Users\DJESSOU\AppData\Local\Temp\cc3eovRL.s 			page 319


 7580      5A6A0F3B 
 7581 36d7 329F77EB 		.ascii	"2\237w\353\356\260Z\330\320qR\363\264\204\005\251\\"
 7581      EEB05AD8 
 7581      D07152F3 
 7581      B48405A9 
 7581      5C
 7582 36e8 CCBF1292 		.ascii	"\314\277\022\222\213P8]\222\016g{\024\312\246r1\345"
 7582      8B50385D 
 7582      920E677B 
 7582      14CAA672 
 7582      31E5
 7583 36fa 8973A187 		.ascii	"\211s\241\207\213\3773\260\357Y\267\016x\327\357\364"
 7583      8BFF33B0 
 7583      EF59B70E 
 7583      78D7EFF4 
 7584 370a D2513839 		.ascii	"\322Q897`\260\030\204\001\013U\022\243\020\360h\003"
 7584      3760B018 
 7584      84010B55 
 7584      12A310F0 
 7584      6803
 7585 371c E6A4F59B 		.ascii	"\346\244\365\233\360\032\"$\234\274\277\240\327\016"
 7585      F01A2224 
 7585      9CBCBFA0 
 7585      D70E
 7586 372a 76E84CAD 		.ascii	"v\350L\255H\030\222A@\221=\277\237\017xd\243Vk7\037"
 7586      48189241 
 7586      40913DBF 
 7586      9F0F7864 
 7586      A3566B37 
 7587 373f 2DD803AD 		.ascii	"-\330\003\2555\254r\3522\274l+\326\332\026\203\275\204"
 7587      35AC72EA 
 7587      32BC6C2B 
 7587      D6DA1683 
 7587      BD84
 7588 3751 9B961362 		.ascii	"\233\226\023b\012K+\031\212\331\341\177I[\360`\001\341"
 7588      0A4B2B19 
 7588      8AD9E17F 
 7588      495BF060 
 7588      01E1
 7589 3763 EF16458F 		.ascii	"\357\026E\217Zp\345\002y\3130\363Q\246\323\303\327\035"
 7589      5A70E502 
 7589      79CB30F3 
 7589      51A6D3C3 
 7589      D71D
 7590 3775 9927B8CF 		.ascii	"\231'\270\317\203\225\251V\245\355T\306!\211\330{\362"
 7590      8395A956 
 7590      A5ED54C6 
 7590      2189D87B 
 7590      F2
 7591 3786 A3E831E4 		.ascii	"\243\3501\344\3715l\340\007-\276\323?}\344\337\032\310"
 7591      F9356CE0 
 7591      072DBED3 
 7591      3F7DE4DF 
 7591      1AC8
 7592 3798 6F42C902 		.ascii	"oB\311\002$\031\322{\317\316\216aY\333S/q\237\000\304"
 7592      2419D27B 
 7592      CFCE8E61 
ARM GAS  C:\Users\DJESSOU\AppData\Local\Temp\cc3eovRL.s 			page 320


 7592      59DB532F 
 7592      719F00C4 
 7593 37ac E3D932CB 		.ascii	"\343\3312\313_\307\216e\372%\335\014\233\233\273\366"
 7593      5FC78E65 
 7593      FA25DD0C 
 7593      9B9BBBF6 
 7594 37bc AA869ED9 		.ascii	"\252\206\236\331\377Xl\352\003\365\306\016\320\377K"
 7594      FF586CEA 
 7594      03F5C60E 
 7594      D0FF4B
 7595 37cb 878802BC 		.ascii	"\207\210\002\274X\317\326\360G\027\000\\\322\3722\315"
 7595      58CFD6F0 
 7595      4717005C 
 7595      D2FA32CD 
 7596 37db 57991CB8 		.ascii	"W\231\034\270O.*\320\357`'\020\200\323l\234\225\017"
 7596      4F2E2AD0 
 7596      EF602710 
 7596      80D36C9C 
 7596      950F
 7597 37ed 229CDF7A 		.ascii	"\"\234\337z\030#\356\240t\356E\214\237\202\271*\010"
 7597      1823EEA0 
 7597      74EE458C 
 7597      9F82B92A 
 7597      08
 7598 37fe F5837D3B 		.ascii	"\365\203};M_\2508,\017\257\266KA\266\266\025\260\242"
 7598      4D5FA838 
 7598      2C0FAFB6 
 7598      4B41B6B6 
 7598      15B0A2
 7599 3811 3CC27009 		.ascii	"<\302p\011\222BK\354\266\253\026r\215\221\254\243\227"
 7599      92424BEC 
 7599      B6AB1672 
 7599      8D91ACA3 
 7599      97
 7600 3822 C95932C3 		.ascii	"\311Y2\303\360\\\362\021p\251w8w\316<\006\3537\341]"
 7600      F05CF211 
 7600      70A97738 
 7600      77CE3C06 
 7600      EB37E15D 
 7601 3836 0C4C8417 		.ascii	"\014L\204\027\2373\361e@\237{\376\254\222zq\375/\236"
 7601      9F33F165 
 7601      409F7BFE 
 7601      AC927A71 
 7601      FD2F9E
 7602 3849 491C0B2D 		.ascii	"I\034\013-p8\270\217\214)s\334\307\033\037o\276\330"
 7602      7038B88F 
 7602      8C2973DC 
 7602      C71B1F6F 
 7602      BED8
 7603 385b E4945801 		.ascii	"\344\224X\001\331Xh\210\012\245\030\261w\304\232DJ\261"
 7603      D9586888 
 7603      0AA518B1 
 7603      77C49A44 
 7603      4AB1
 7604 386d 2FDA43E1 		.ascii	"/\332C\341\306\235\305\237\033\022\005\327IV\222=\227"
 7604      C69DC59F 
 7604      1B1205D7 
ARM GAS  C:\Users\DJESSOU\AppData\Local\Temp\cc3eovRL.s 			page 321


 7604      4956923D 
 7604      97
 7605 387e 04B134C7 		.ascii	"\004\2614\307\2410\031\301I\016\361\342H\026%~\306\200"
 7605      A13019C1 
 7605      490EF1E2 
 7605      4816257E 
 7605      C680
 7606 3890 5EFAED25 		.ascii	"^\372\355%~jK_\355 \355\032Y\274!VV\231\356j\020\310"
 7606      7E6A4B5F 
 7606      ED20ED1A 
 7606      59BC2156 
 7606      5699EE6A 
 7607 38a6 E83B47DB 		.ascii	"\350;G\333?T\034nL-\357\316\350\302@\262\233\002\032"
 7607      3F541C6E 
 7607      4C2DEFCE 
 7607      E8C240B2 
 7607      9B021A
 7608 38b9 9E9FD8BB 		.ascii	"\236\237\330\273\377\274\004\364\015G@\341\005\202\366"
 7608      FFBC04F4 
 7608      0D4740E1 
 7608      0582F6
 7609 38c8 AF4B1CDC 		.ascii	"\257K\034\334\315\375\356\340)AY\361\363\313@0\374\264"
 7609      CDFDEEE0 
 7609      294159F1 
 7609      F3CB4030 
 7609      FCB4
 7610 38da 0486E91C 		.ascii	"\004\206\351\0341)\220-\201\316\360;)\220u\236\345\015"
 7610      3129902D 
 7610      81CEF03B 
 7610      2990759E 
 7610      E50D
 7611 38ec 03FD3642 		.ascii	"\003\3756B\217\260`\227\245vx\024U\317a\355E\024%\215"
 7611      8FB06097 
 7611      A5767814 
 7611      55CF61ED 
 7611      4514258D 
 7612 3900 C52DD48B 		.ascii	"\305-\324\213>\312N&iO\211\260\214a\337\2247H\010\006"
 7612      3ECA4E26 
 7612      694F89B0 
 7612      8C61DF94 
 7612      37480806 
 7613 3914 60650560 		.ascii	"`e\005`\254\007\221D\207o\211Oa*\332\371\006\344B\344"
 7613      AC079144 
 7613      876F894F 
 7613      612ADAF9 
 7613      06E442E4 
 7614 3928 35488069 		.ascii	"5H\200i.'\374\252F\214J\264\037g\332\363\011o\247\336"
 7614      2E27FCAA 
 7614      468C4AB4 
 7614      1F67DAF3 
 7614      096FA7DE 
 7615 393c 8CFDB187 		.ascii	"\214\375\261\207G\206\373\224\210\025,\323c\232\254"
 7615      4786FB94 
 7615      88152CD3 
 7615      639AAC
 7616 394b 34E3B0FD 		.ascii	"4\343\260\375\372\3757\300\242\336\356\333Q\207\216"
 7616      FAFD37C0 
ARM GAS  C:\Users\DJESSOU\AppData\Local\Temp\cc3eovRL.s 			page 322


 7616      A2DEEEDB 
 7616      51878E
 7617 395a 1AE2E1CC 		.ascii	"\032\342\341\314\367y\307\315l\303\301T\251\014\323"
 7617      F779C7CD 
 7617      6CC3C154 
 7617      A90CD3
 7618 3969 CC3C6C21 		.ascii	"\314<l!\365Mq:+\014\356\3166\0100(\256\025i\230YB%\231"
 7618      F54D713A 
 7618      2B0CEECE 
 7618      36083028 
 7618      AE156998 
 7619 3981 AFC6DB45 		.ascii	"\257\306\333E5\227\302\231\307\200 \021i,\203\347%y"
 7619      3597C299 
 7619      C7802011 
 7619      692C83E7 
 7619      2579
 7620 3993 4FBD8D86 		.ascii	"O\275\215\206\223\227\341\021g\000\224K\355\311V6*\020"
 7620      9397E111 
 7620      6700944B 
 7620      EDC95636 
 7620      2A10
 7621 39a5 6DD68BAD 		.ascii	"m\326\213\255O\223\005<\362\026\022B7i\327A_\235{\306"
 7621      4F93053C 
 7621      F2161242 
 7621      3769D741 
 7621      5F9D7BC6 
 7622 39b9 7B1DBC27 		.ascii	"{\035\274'p\016ZT\262\337\010\254\356\341\213w\207\230"
 7622      700E5A54 
 7622      B2DF08AC 
 7622      EEE18B77 
 7622      8798
 7623 39cb D4D1884D 		.ascii	"\324\321\210M\037\036~\2002?\274\214\255\267\317v\311"
 7623      1F1E7E80 
 7623      323FBC8C 
 7623      ADB7CF76 
 7623      C9
 7624 39dc 8E855FCB 		.ascii	"\216\205_\313\344\3079d\355\213\241\203\343]\243V\261"
 7624      E4C73964 
 7624      ED8BA183 
 7624      E35DA356 
 7624      B1
 7625 39ed 7E623EBA 		.ascii	"~b>\272\373C\225\014_v\230\324\205\243\241\304\365\034"
 7625      FB43950C 
 7625      5F7698D4 
 7625      85A3A1C4 
 7625      F51C
 7626 39ff BFD14968 		.ascii	"\277\321Ih\201\246\323\"\342v%0\325\323\322\002e\022"
 7626      81A6D322 
 7626      E2762530 
 7626      D5D3D202 
 7626      6512
 7627 3a11 A5E45B43 		.ascii	"\245\344[C\250\022\317\233\243\234S\\e_\320z;\032\350"
 7627      A812CF9B 
 7627      A39C535C 
 7627      655FD07A 
 7627      3B1AE8
 7628 3a24 17C3F0C4 		.ascii	"\027\303\360\304\366t\177\000\257\303\247\325j\006\303"
ARM GAS  C:\Users\DJESSOU\AppData\Local\Temp\cc3eovRL.s 			page 323


 7628      F6747F00 
 7628      AFC3A7D5 
 7628      6A06C3
 7629 3a33 F3842814 		.ascii	"\363\204(\024\3636\012\035\330\317Y[{{\247\373\024\237"
 7629      F3360A1D 
 7629      D8CF595B 
 7629      7B7BA7FB 
 7629      149F
 7630 3a45 95B7532E 		.ascii	"\225\267S.\350\016\030\3152\255\260\240\010\353\270"
 7630      E80E18CD 
 7630      32ADB0A0 
 7630      08EBB8
 7631 3a54 006CAA30 		.ascii	"\000l\2520\371K\000`%\033\031\307\246Q\276=\305X\244"
 7631      F94B0060 
 7631      251B19C7 
 7631      A651BE3D 
 7631      C558A4
 7632 3a67 751ABD65 		.ascii	"u\032\275e\200O\226?>\252\347M\223<\330\207\014K\367"
 7632      804F963F 
 7632      3EAAE74D 
 7632      933CD887 
 7632      0C4BF7
 7633 3a7a 15FC7472 		.ascii	"\025\374tr\374\304+\364\274\333\306\220\022\324/\034"
 7633      FCC42BF4 
 7633      BCDBC690 
 7633      12D42F1C 
 7634 3a8a FDF88992 		.ascii	"\375\370\211\222\023\257\304.\032\022?.\005{O\031\226"
 7634      13AFC42E 
 7634      1A123F2E 
 7634      057B4F19 
 7634      96
 7635 3a9b 561F5051 		.ascii	"V\037PQ9\033}\213\3101\343\302\273&\034:\030q\225\332"
 7635      391B7D8B 
 7635      C831E3C2 
 7635      BB261C3A 
 7635      187195DA 
 7636 3aaf EBB96685 		.ascii	"\353\271f\205\232\3454\031\347\377\274\317j\331\272"
 7636      9AE53419 
 7636      E7FFBCCF 
 7636      6AD9BA
 7637 3abe 34714BB6 		.ascii	"4qK\266\331&$S\306\361\221\231\354\307\320i\221\030"
 7637      D9262453 
 7637      C6F19199 
 7637      ECC7D069 
 7637      9118
 7638 3ad0 2B1CAECC 		.ascii	"+\034\256\314#\200\312a\021*\225n|\347O\237\003\257"
 7638      2380CA61 
 7638      112A956E 
 7638      7CE74F9F 
 7638      03AF
 7639 3ae2 80EFDAF1 		.ascii	"\200\357\332\361w\201H\310\202Z\243R\032\376\235\260"
 7639      778148C8 
 7639      825AA352 
 7639      1AFE9DB0 
 7640 3af2 F4FD69C0 		.ascii	"\364\375i\3009\037\2764Kba\201HC+w@\362\224\362\241"
 7640      391FBE34 
 7640      4B626181 
ARM GAS  C:\Users\DJESSOU\AppData\Local\Temp\cc3eovRL.s 			page 324


 7640      48432B77 
 7640      40F294F2 
 7641 3b07 4F028859 		.ascii	"O\002\210Y \236\273\223\225\210\3715W?\200H\177b\375"
 7641      209EBB93 
 7641      9588F935 
 7641      573F8048 
 7641      7F62FD
 7642 3b1a 6555AB04 		.ascii	"eU\253\004\321\315_\250}\205:3M#\251|\251\315\273_\200"
 7642      D1CD5FA8 
 7642      7D853A33 
 7642      4D23A97C 
 7642      A9CDBB5F 
 7643 3b2f 1C440E08 		.ascii	"\034D\016\010@\350o\325*},_\007Z(\216G\020?Gk-\177m"
 7643      40E86FD5 
 7643      2A7D2C5F 
 7643      075A288E 
 7643      47103F47 
 7644 3b47 C230905E 		.ascii	"\3020\220^\032es\3474\012\252\244\3676\000~\326\357"
 7644      1A6573E7 
 7644      340AAAA4 
 7644      F736007E 
 7644      D6EF
 7645 3b59 5FC3EC6E 		.ascii	"_\303\354n\256\214\267\002Gg,\245\244\274\354t\003\026"
 7645      AE8CB702 
 7645      47672CA5 
 7645      A4BCEC74 
 7645      0316
 7646 3b6b 0DA97E0D 		.ascii	"\015\251~\015\015G\346\342t2\375\276!\305/\375\275m"
 7646      0D47E6E2 
 7646      7432FDBE 
 7646      21C52FFD 
 7646      BD6D
 7647 3b7d 71B11B56 		.ascii	"q\261\033V\2114\247\233\277\224\017#2\364\032\017o\260"
 7647      8934A79B 
 7647      BF940F23 
 7647      32F41A0F 
 7647      6FB0
 7648 3b8f 3F79660D 		.ascii	"?yf\015\330\370\256\224\006\000\251M\"NT\371\263&\033"
 7648      D8F8AE94 
 7648      0600A94D 
 7648      224E54F9 
 7648      B3261B
 7649 3ba2 FC93C04D 		.ascii	"\374\223\300M\367\251\355tJ\301\307O.\250e\216\304\334"
 7649      F7A9ED74 
 7649      4AC1C74F 
 7649      2EA8658E 
 7649      C4DC
 7650 3bb4 84E145EB 		.ascii	"\204\341E\353\002\225:\242\311\214\011\324a\\>\020\256"
 7650      02953AA2 
 7650      C98C09D4 
 7650      615C3E10 
 7650      AE
 7651 3bc5 E4521E32 		.ascii	"\344R\0362<FB\006\205\252\371\341\327\012\323\010\015"
 7651      3C464206 
 7651      85AAF9E1 
 7651      D70AD308 
 7651      0D
ARM GAS  C:\Users\DJESSOU\AppData\Local\Temp\cc3eovRL.s 			page 325


 7652 3bd6 C5552C47 		.ascii	"\305U,G\253\220\232\361\240X\232\022\216\325\201}\237"
 7652      AB909AF1 
 7652      A0589A12 
 7652      8ED5817D 
 7652      9F
 7653 3be7 90E7E609 		.ascii	"\220\347\346\011\242\274J\216\230\2713\036\353Z\\\""
 7653      A2BC4A8E 
 7653      98B9331E 
 7653      EB5A5C22 
 7654 3bf7 433F10B3 		.ascii	"C?\020\263\224 \331\357\335\334x\305k\325\337\036_5"
 7654      9420D9EF 
 7654      DDDC78C5 
 7654      6BD5DF1E 
 7654      5F35
 7655 3c09 19A112FE 		.ascii	"\031\241\022\376\312\223\232\014\013\237/\030`O\205"
 7655      CA939A0C 
 7655      0B9F2F18 
 7655      604F85
 7656 3c18 70CF885F 		.ascii	"p\317\210_\372\266\365hid\375\340\3369\336\021\203Z"
 7656      FAB6F568 
 7656      6964FDE0 
 7656      DE39DE11 
 7656      835A
 7657 3c2a BCF06658 		.ascii	"\274\360fX\223F\364\356\026Xa*\203\345\313`w\235\377"
 7657      9346F4EE 
 7657      1658612A 
 7657      83E5CB60 
 7657      779DFF
 7658 3c3d FCF228C8 		.ascii	"\374\362(\310\254\036|\351\241\027\337f`\243^\370\026"
 7658      AC1E7CE9 
 7658      A117DF66 
 7658      60A35EF8 
 7658      16
 7659 3c4e 8E34D77A 		.ascii	"\2164\327z\361i\244YiO?\"\307\352\237\364i\377\233w"
 7659      F169A459 
 7659      694F3F22 
 7659      C7EA9FF4 
 7659      69FF9B77 
 7660 3c62 68DCA265 		.ascii	"h\334\242e\025\003A\310\243\342\222\020\263\275m\322"
 7660      150341C8 
 7660      A3E29210 
 7660      B3BD6DD2 
 7661 3c72 772C8A27 		.ascii	"w,\212'\272\177\241\214\320\332\266\207S\353\246\332"
 7661      BA7FA18C 
 7661      D0DAB687 
 7661      53EBA6DA 
 7662 3c82 05BFDE76 		.ascii	"\005\277\336v\243\235\260p\331\267z\276\015\313\025"
 7662      A39DB070 
 7662      D9B77ABE 
 7662      0DCB15
 7663 3c91 B079CA54 		.ascii	"\260y\312T\365\327:C\177\216\324\337_\221t19\231\224"
 7663      F5D73A43 
 7663      7F8ED4DF 
 7663      5F917431 
 7663      399994
 7664 3ca4 3A9386AC 		.ascii	":\223\206\254\007!\306l\262\235\266\322\353$k\255lN"
 7664      0721C66C 
ARM GAS  C:\Users\DJESSOU\AppData\Local\Temp\cc3eovRL.s 			page 326


 7664      B29DB6D2 
 7664      EB246BAD 
 7664      6C4E
 7665 3cb6 2C343AA7 		.ascii	",4:\247\010\231\201vik^{\201\264\273\254`\256\012\207"
 7665      08998176 
 7665      696B5E7B 
 7665      81B4BBAC 
 7665      60AE0A87 
 7666 3cca 5E163A00 		.ascii	"^\026:\000\015\2677\200\2168\222\002\232\016P^\220Y"
 7666      0DB73780 
 7666      8E389202 
 7666      9A0E505E 
 7666      9059
 7667 3cdc E2D52690 		.ascii	"\342\325&\220<\375\332\351\007\216\211\216p\015G\023"
 7667      3CFDDAE9 
 7667      078E898E 
 7667      700D4713 
 7668 3cec 779677D1 		.ascii	"w\226w\321\030n\343\222U:\346k\017\326\202\271\276)"
 7668      186EE392 
 7668      553AE66B 
 7668      0FD682B9 
 7668      BE29
 7669 3cfe E8001FE2 		.ascii	"\350\000\037\342o\264\311\354\276\034)@\314\206Xo\315"
 7669      6FB4C9EC 
 7669      BE1C2940 
 7669      CC86586F 
 7669      CD
 7670 3d0f 3634D877 		.ascii	"64\330w\200\371\363\013J\205\266^\30258+0\246\302\266"
 7670      80F9F30B 
 7670      4A85B65E 
 7670      C235382B 
 7670      30A6C2B6 
 7671 3d23 85465526 		.ascii	"\205FU&\3474\222\225x\227\224\234)\231\224\313\203c"
 7671      E7349295 
 7671      7897949C 
 7671      299994CB 
 7671      8363
 7672 3d35 74433CDA 		.ascii	"tC<\332\253\032\374\011m\307\203\233\005~]j\301\252"
 7672      AB1AFC09 
 7672      6DC7839B 
 7672      057E5D6A 
 7672      C1AA
 7673 3d47 F86093D8 		.ascii	"\370`\223\330\332\242l\034\336>\202\311@]f\235\251\347"
 7673      DAA26C1C 
 7673      DE3E82C9 
 7673      405D669D 
 7673      A9E7
 7674 3d59 A42DCF9B 		.ascii	"\244-\317\233r\301\274j\004\013\005\361\034\317:\027"
 7674      72C1BC6A 
 7674      040B05F1 
 7674      1CCF3A17 
 7675 3d69 A138ED12 		.ascii	"\2418\355\022\256\301D8\305\217{\"\025a\027n\246\231"
 7675      AEC14438 
 7675      C58F7B22 
 7675      1561176E 
 7675      A699
 7676 3d7b 246FFD4B 		.ascii	"$o\375K/\204\310\356n\2470w\217\257\177~d\252L\241\263"
ARM GAS  C:\Users\DJESSOU\AppData\Local\Temp\cc3eovRL.s 			page 327


 7676      2F84C8EE 
 7676      6EA73077 
 7676      8FAF7F7E 
 7676      64AA4CA1 
 7677 3d90 C9DF1219 		.ascii	"\311\337\022\031P\305\210\363}\264ZLk\010\227\316 6"
 7677      50C588F3 
 7677      7DB45A4C 
 7677      6B0897CE 
 7677      2036
 7678 3da2 1060D063 		.ascii	"\020`\320c\234\340\346\271\334\2367\240\301\3227z\234"
 7678      9CE0E6B9 
 7678      DC9E37A0 
 7678      C1D2377A 
 7678      9C
 7679 3db3 4A14BD7A 		.ascii	"J\024\275z\3413gP&\014\352u\034\327c\021s\313\243l@"
 7679      E1336750 
 7679      260CEA75 
 7679      1CD76311 
 7679      73CBA36C 
 7680 3dc8 091144A8 		.ascii	"\011\021D\250\370\014\311\234Y)\177\266\326\206\345"
 7680      F80CC99C 
 7680      59297FB6 
 7680      D686E5
 7681 3dd7 308E329F 		.ascii	"0\2162\237\253\205\270\006r\254I\213\360\312\302\303"
 7681      AB85B806 
 7681      72AC498B 
 7681      F0CAC2C3 
 7682 3de7 F8786F3C 		.ascii	"\370xo<\370\327\037\217\253\213l&\230\276\271\367\300"
 7682      F8D71F8F 
 7682      AB8B6C26 
 7682      98BEB9F7 
 7682      C0
 7683 3df8 D93B019B 		.ascii	"\331;\001\233\342\21619/\321\321\212.Z?\257j\204\243"
 7683      E28E3139 
 7683      2FD1D18A 
 7683      2E5A3FAF 
 7683      6A84A3
 7684 3e0b 10F296B2 		.ascii	"\020\362\226\262\324L\226\260\011\306\265\315\267pw"
 7684      D44C96B0 
 7684      09C6B5CD 
 7684      B77077
 7685 3e1a 2F290F93 		.ascii	"/)\017\223\202{\246\275\267\001\240K\311\211\315\366"
 7685      827BA6BD 
 7685      B701A04B 
 7685      C989CDF6 
 7686 3e2a 2287CAC2 		.ascii	"\"\207\312\302\301\213@\"\226?\200a\230\011L\367\025"
 7686      C18B4022 
 7686      963F8061 
 7686      98094CF7 
 7686      15
 7687 3e3b 40CAD22A 		.ascii	"@\312\322*4\377\376\351n\243eG\304K\023\372\235Awh\312"
 7687      34FFFEE9 
 7687      6EA36547 
 7687      C44B13FA 
 7687      9D417768 
 7688 3e50 354B2258 		.ascii	"5K\"X\241j\2014\337x\301l\034\330(\3102\272\367\276"
 7688      A16A8134 
ARM GAS  C:\Users\DJESSOU\AppData\Local\Temp\cc3eovRL.s 			page 328


 7688      DF78C16C 
 7688      1CD828C8 
 7688      32BAF7BE 
 7689 3e64 011E508F 		.ascii	"\001\036P\217\253\367\272\323\017\305\270{,\325\341"
 7689      ABF7BAD3 
 7689      0FC5B87B 
 7689      2CD5E1
 7690 3e73 2C       		.ascii	","
 7691              		.text
 7692              	.Letext0:
 7693              		.file 2 "C:\\ST\\STM32CubeIDE_1.18.1\\STM32CubeIDE\\plugins\\com.st.stm32cube.ide.mcu.externaltool
 7694              		.file 3 "C:\\ST\\STM32CubeIDE_1.18.1\\STM32CubeIDE\\plugins\\com.st.stm32cube.ide.mcu.externaltool
 7695              		.file 4 "C:\\ST\\STM32CubeIDE_1.18.1\\STM32CubeIDE\\plugins\\com.st.stm32cube.ide.mcu.externaltool
 7696              		.file 5 "Lib/Camera_Middleware/sensors/vd1943/vd1943.h"
 7697              		.file 6 "Lib/Camera_Middleware/sensors/vd1943/vd1943_patch_cut_13.c"
 7698              		.file 7 "Lib/Camera_Middleware/sensors/vd1943/vd5943_patch_cut_13.c"
 7699              		.file 8 "Lib/Camera_Middleware/sensors/vd1943/vd1943_vt_patch.c"
 7700              		.file 9 "<built-in>"
 7701              		.file 10 "C:\\ST\\STM32CubeIDE_1.18.1\\STM32CubeIDE\\plugins\\com.st.stm32cube.ide.mcu.externaltoo
ARM GAS  C:\Users\DJESSOU\AppData\Local\Temp\cc3eovRL.s 			page 329


DEFINED SYMBOLS
                            *ABS*:00000000 vd1943.c
C:\Users\DJESSOU\AppData\Local\Temp\cc3eovRL.s:26     .text.VD1943_log_impl:00000000 $t
C:\Users\DJESSOU\AppData\Local\Temp\cc3eovRL.s:31     .text.VD1943_log_impl:00000000 VD1943_log_impl
C:\Users\DJESSOU\AppData\Local\Temp\cc3eovRL.s:83     .text.VD1943_PollReg8:00000000 $t
C:\Users\DJESSOU\AppData\Local\Temp\cc3eovRL.s:88     .text.VD1943_PollReg8:00000000 VD1943_PollReg8
C:\Users\DJESSOU\AppData\Local\Temp\cc3eovRL.s:185    .text.VD1943_PollReg8:00000054 $d
C:\Users\DJESSOU\AppData\Local\Temp\cc3eovRL.s:197    .text.display_error:00000000 $t
C:\Users\DJESSOU\AppData\Local\Temp\cc3eovRL.s:202    .text.display_error:00000000 display_error
C:\Users\DJESSOU\AppData\Local\Temp\cc3eovRL.s:269    .text.display_error:00000038 $d
C:\Users\DJESSOU\AppData\Local\Temp\cc3eovRL.s:5450   .rodata.__func__.34:00000000 __func__.34
C:\Users\DJESSOU\AppData\Local\Temp\cc3eovRL.s:283    .text.VD1943_ComputeFrameLength:00000000 $t
C:\Users\DJESSOU\AppData\Local\Temp\cc3eovRL.s:288    .text.VD1943_ComputeFrameLength:00000000 VD1943_ComputeFrameLength
C:\Users\DJESSOU\AppData\Local\Temp\cc3eovRL.s:510    .text.VD1943_ComputeFrameLength:000000e4 $d
C:\Users\DJESSOU\AppData\Local\Temp\cc3eovRL.s:5455   .rodata.__func__.35:00000000 __func__.35
C:\Users\DJESSOU\AppData\Local\Temp\cc3eovRL.s:517    .text.VD1943_GetExpoCommon:00000000 $t
C:\Users\DJESSOU\AppData\Local\Temp\cc3eovRL.s:522    .text.VD1943_GetExpoCommon:00000000 VD1943_GetExpoCommon
C:\Users\DJESSOU\AppData\Local\Temp\cc3eovRL.s:608    .text.VD1943_GetExpoCommon:00000050 $d
C:\Users\DJESSOU\AppData\Local\Temp\cc3eovRL.s:5435   .rodata.__func__.31:00000000 __func__.31
C:\Users\DJESSOU\AppData\Local\Temp\cc3eovRL.s:614    .text.VD1943_GetExpo_GS:00000000 $t
C:\Users\DJESSOU\AppData\Local\Temp\cc3eovRL.s:619    .text.VD1943_GetExpo_GS:00000000 VD1943_GetExpo_GS
C:\Users\DJESSOU\AppData\Local\Temp\cc3eovRL.s:636    .text.VD1943_SetExpo_RS:00000000 $t
C:\Users\DJESSOU\AppData\Local\Temp\cc3eovRL.s:641    .text.VD1943_SetExpo_RS:00000000 VD1943_SetExpo_RS
C:\Users\DJESSOU\AppData\Local\Temp\cc3eovRL.s:728    .text.VD1943_SetExpo_RS:00000058 $d
C:\Users\DJESSOU\AppData\Local\Temp\cc3eovRL.s:5430   .rodata.__func__.30:00000000 __func__.30
C:\Users\DJESSOU\AppData\Local\Temp\cc3eovRL.s:734    .text.VD1943_SetExpo_RS_HDR:00000000 $t
C:\Users\DJESSOU\AppData\Local\Temp\cc3eovRL.s:739    .text.VD1943_SetExpo_RS_HDR:00000000 VD1943_SetExpo_RS_HDR
C:\Users\DJESSOU\AppData\Local\Temp\cc3eovRL.s:829    .text.VD1943_SetExpo_RS_HDR:00000058 $d
C:\Users\DJESSOU\AppData\Local\Temp\cc3eovRL.s:5440   .rodata.__func__.32:00000000 __func__.32
C:\Users\DJESSOU\AppData\Local\Temp\cc3eovRL.s:835    .text.VD1943_SetDigitalGain_IR:00000000 $t
C:\Users\DJESSOU\AppData\Local\Temp\cc3eovRL.s:840    .text.VD1943_SetDigitalGain_IR:00000000 VD1943_SetDigitalGain_IR
C:\Users\DJESSOU\AppData\Local\Temp\cc3eovRL.s:905    .text.VD1943_SetDigitalGain_IR:00000038 $d
C:\Users\DJESSOU\AppData\Local\Temp\cc3eovRL.s:5425   .rodata.__func__.29:00000000 __func__.29
C:\Users\DJESSOU\AppData\Local\Temp\cc3eovRL.s:911    .text.VD1943_SetDigitalGain_RGB:00000000 $t
C:\Users\DJESSOU\AppData\Local\Temp\cc3eovRL.s:916    .text.VD1943_SetDigitalGain_RGB:00000000 VD1943_SetDigitalGain_RGB
C:\Users\DJESSOU\AppData\Local\Temp\cc3eovRL.s:1032   .text.VD1943_SetDigitalGain_RGB:00000068 $d
C:\Users\DJESSOU\AppData\Local\Temp\cc3eovRL.s:5420   .rodata.__func__.28:00000000 __func__.28
C:\Users\DJESSOU\AppData\Local\Temp\cc3eovRL.s:1038   .text.VD1943_SetDigitalGain_RGBNIR:00000000 $t
C:\Users\DJESSOU\AppData\Local\Temp\cc3eovRL.s:1043   .text.VD1943_SetDigitalGain_RGBNIR:00000000 VD1943_SetDigitalGain_RGBNIR
C:\Users\DJESSOU\AppData\Local\Temp\cc3eovRL.s:1094   .text.VD1943_SetExpoSplit_GS:00000000 $t
C:\Users\DJESSOU\AppData\Local\Temp\cc3eovRL.s:1099   .text.VD1943_SetExpoSplit_GS:00000000 VD1943_SetExpoSplit_GS
C:\Users\DJESSOU\AppData\Local\Temp\cc3eovRL.s:1213   .text.VD1943_SetExpoSplit_GS:00000070 $d
C:\Users\DJESSOU\AppData\Local\Temp\cc3eovRL.s:5415   .rodata.__func__.27:00000000 __func__.27
C:\Users\DJESSOU\AppData\Local\Temp\cc3eovRL.s:1219   .text.VD1943_SetExpo_GS:00000000 $t
C:\Users\DJESSOU\AppData\Local\Temp\cc3eovRL.s:1224   .text.VD1943_SetExpo_GS:00000000 VD1943_SetExpo_GS
C:\Users\DJESSOU\AppData\Local\Temp\cc3eovRL.s:1311   .text.VD1943_SetExpo_GS:00000058 $d
C:\Users\DJESSOU\AppData\Local\Temp\cc3eovRL.s:5410   .rodata.__func__.26:00000000 __func__.26
C:\Users\DJESSOU\AppData\Local\Temp\cc3eovRL.s:1320   .text.VD1943_ApplyCmdAndWait:00000000 $t
C:\Users\DJESSOU\AppData\Local\Temp\cc3eovRL.s:1325   .text.VD1943_ApplyCmdAndWait:00000000 VD1943_ApplyCmdAndWait
C:\Users\DJESSOU\AppData\Local\Temp\cc3eovRL.s:1432   .text.VD1943_ApplyCmdAndWait:00000064 $d
C:\Users\DJESSOU\AppData\Local\Temp\cc3eovRL.s:5400   .rodata.__func__.24:00000000 __func__.24
C:\Users\DJESSOU\AppData\Local\Temp\cc3eovRL.s:1444   .text.VD1943_WaitState:00000000 $t
C:\Users\DJESSOU\AppData\Local\Temp\cc3eovRL.s:1449   .text.VD1943_WaitState:00000000 VD1943_WaitState
C:\Users\DJESSOU\AppData\Local\Temp\cc3eovRL.s:1530   .text.VD1943_WaitState:00000040 $d
C:\Users\DJESSOU\AppData\Local\Temp\cc3eovRL.s:1536   .text.VD1943_GetExpo_RS:00000000 $t
C:\Users\DJESSOU\AppData\Local\Temp\cc3eovRL.s:1541   .text.VD1943_GetExpo_RS:00000000 VD1943_GetExpo_RS
C:\Users\DJESSOU\AppData\Local\Temp\cc3eovRL.s:1553   .text.VD1943_GetExposureRange:00000000 $t
ARM GAS  C:\Users\DJESSOU\AppData\Local\Temp\cc3eovRL.s 			page 330


C:\Users\DJESSOU\AppData\Local\Temp\cc3eovRL.s:1559   .text.VD1943_GetExposureRange:00000000 VD1943_GetExposureRange
C:\Users\DJESSOU\AppData\Local\Temp\cc3eovRL.s:1668   .text.VD1943_Init:00000000 $t
C:\Users\DJESSOU\AppData\Local\Temp\cc3eovRL.s:1674   .text.VD1943_Init:00000000 VD1943_Init
C:\Users\DJESSOU\AppData\Local\Temp\cc3eovRL.s:1850   .text.VD1943_Init:000000aa $d
C:\Users\DJESSOU\AppData\Local\Temp\cc3eovRL.s:2390   .text.VD1943_Init:00000294 $d
C:\Users\DJESSOU\AppData\Local\Temp\cc3eovRL.s:5405   .rodata.__func__.25:00000000 __func__.25
C:\Users\DJESSOU\AppData\Local\Temp\cc3eovRL.s:5445   .rodata.__func__.33:00000000 __func__.33
C:\Users\DJESSOU\AppData\Local\Temp\cc3eovRL.s:5790   .rodata.fw_patch_13_mono_cert:00000000 fw_patch_13_mono_cert
C:\Users\DJESSOU\AppData\Local\Temp\cc3eovRL.s:5395   .rodata.__func__.23:00000000 __func__.23
C:\Users\DJESSOU\AppData\Local\Temp\cc3eovRL.s:6762   .rodata.fw_patch_13_rgbnir_cert:00000000 fw_patch_13_rgbnir_cert
C:\Users\DJESSOU\AppData\Local\Temp\cc3eovRL.s:2428   .text.VD1943_Init:00000314 $t
C:\Users\DJESSOU\AppData\Local\Temp\cc3eovRL.s:2962   .text.VD1943_Init:0000053e $d
C:\Users\DJESSOU\AppData\Local\Temp\cc3eovRL.s:2967   .text.VD1943_Init:00000542 $t
C:\Users\DJESSOU\AppData\Local\Temp\cc3eovRL.s:2984   .text.VD1943_Init:0000054e $d
C:\Users\DJESSOU\AppData\Local\Temp\cc3eovRL.s:2988   .text.VD1943_Init:00000552 $t
C:\Users\DJESSOU\AppData\Local\Temp\cc3eovRL.s:3073   .text.VD1943_Init:0000058c $d
C:\Users\DJESSOU\AppData\Local\Temp\cc3eovRL.s:5822   .rodata.fw_patch_13_mono_array:00000000 fw_patch_13_mono_array
C:\Users\DJESSOU\AppData\Local\Temp\cc3eovRL.s:5390   .rodata.__func__.22:00000000 __func__.22
C:\Users\DJESSOU\AppData\Local\Temp\cc3eovRL.s:6794   .rodata.fw_patch_13_rgbnir_array:00000000 fw_patch_13_rgbnir_array
C:\Users\DJESSOU\AppData\Local\Temp\cc3eovRL.s:5385   .rodata.__func__.21:00000000 __func__.21
C:\Users\DJESSOU\AppData\Local\Temp\cc3eovRL.s:5740   .rodata.gt_ram_pat_content:00000000 gt_ram_pat_content
C:\Users\DJESSOU\AppData\Local\Temp\cc3eovRL.s:5380   .rodata.__func__.20:00000000 __func__.20
C:\Users\DJESSOU\AppData\Local\Temp\cc3eovRL.s:5715   .rodata.gt_ram_seq1_content:00000000 gt_ram_seq1_content
C:\Users\DJESSOU\AppData\Local\Temp\cc3eovRL.s:5695   .rodata.gt_ram_seq2_content:00000000 gt_ram_seq2_content
C:\Users\DJESSOU\AppData\Local\Temp\cc3eovRL.s:5679   .rodata.gt_ram_seq3_content:00000000 gt_ram_seq3_content
C:\Users\DJESSOU\AppData\Local\Temp\cc3eovRL.s:5663   .rodata.gt_ram_seq4_content:00000000 gt_ram_seq4_content
C:\Users\DJESSOU\AppData\Local\Temp\cc3eovRL.s:5554   .rodata.rd_ram_pat_content:00000000 rd_ram_pat_content
C:\Users\DJESSOU\AppData\Local\Temp\cc3eovRL.s:5505   .rodata.rd_ram_seq1_content:00000000 rd_ram_seq1_content
C:\Users\DJESSOU\AppData\Local\Temp\cc3eovRL.s:5375   .rodata.__func__.19:00000000 __func__.19
C:\Users\DJESSOU\AppData\Local\Temp\cc3eovRL.s:5370   .rodata.__func__.18:00000000 __func__.18
C:\Users\DJESSOU\AppData\Local\Temp\cc3eovRL.s:5365   .rodata.__func__.17:00000000 __func__.17
C:\Users\DJESSOU\AppData\Local\Temp\cc3eovRL.s:3102   .text.VD1943_DeInit:00000000 $t
C:\Users\DJESSOU\AppData\Local\Temp\cc3eovRL.s:3108   .text.VD1943_DeInit:00000000 VD1943_DeInit
C:\Users\DJESSOU\AppData\Local\Temp\cc3eovRL.s:3161   .text.VD1943_Stop:00000000 $t
C:\Users\DJESSOU\AppData\Local\Temp\cc3eovRL.s:3167   .text.VD1943_Stop:00000000 VD1943_Stop
C:\Users\DJESSOU\AppData\Local\Temp\cc3eovRL.s:3253   .text.VD1943_Stop:0000003c $d
C:\Users\DJESSOU\AppData\Local\Temp\cc3eovRL.s:3258   .text.VD1943_Hold:00000000 $t
C:\Users\DJESSOU\AppData\Local\Temp\cc3eovRL.s:3264   .text.VD1943_Hold:00000000 VD1943_Hold
C:\Users\DJESSOU\AppData\Local\Temp\cc3eovRL.s:3332   .text.VD1943_Hold:0000003c $d
C:\Users\DJESSOU\AppData\Local\Temp\cc3eovRL.s:5305   .rodata.__func__.5:00000000 __func__.5
C:\Users\DJESSOU\AppData\Local\Temp\cc3eovRL.s:3338   .text.VD1943_SetAnalogGain:00000000 $t
C:\Users\DJESSOU\AppData\Local\Temp\cc3eovRL.s:3344   .text.VD1943_SetAnalogGain:00000000 VD1943_SetAnalogGain
C:\Users\DJESSOU\AppData\Local\Temp\cc3eovRL.s:3417   .text.VD1943_SetAnalogGain:00000040 $d
C:\Users\DJESSOU\AppData\Local\Temp\cc3eovRL.s:5300   .rodata.__func__.4:00000000 __func__.4
C:\Users\DJESSOU\AppData\Local\Temp\cc3eovRL.s:3423   .text.VD1943_GetAnalogGain:00000000 $t
C:\Users\DJESSOU\AppData\Local\Temp\cc3eovRL.s:3429   .text.VD1943_GetAnalogGain:00000000 VD1943_GetAnalogGain
C:\Users\DJESSOU\AppData\Local\Temp\cc3eovRL.s:3509   .text.VD1943_GetAnalogGain:00000044 $d
C:\Users\DJESSOU\AppData\Local\Temp\cc3eovRL.s:5295   .rodata.__func__.3:00000000 __func__.3
C:\Users\DJESSOU\AppData\Local\Temp\cc3eovRL.s:3518   .text.VD1943_SetDigitalGain:00000000 $t
C:\Users\DJESSOU\AppData\Local\Temp\cc3eovRL.s:3524   .text.VD1943_SetDigitalGain:00000000 VD1943_SetDigitalGain
C:\Users\DJESSOU\AppData\Local\Temp\cc3eovRL.s:3588   .text.VD1943_SetDigitalGain:00000030 $d
C:\Users\DJESSOU\AppData\Local\Temp\cc3eovRL.s:5290   .rodata.__func__.2:00000000 __func__.2
C:\Users\DJESSOU\AppData\Local\Temp\cc3eovRL.s:3595   .text.VD1943_GetDigitalGain:00000000 $t
C:\Users\DJESSOU\AppData\Local\Temp\cc3eovRL.s:3601   .text.VD1943_GetDigitalGain:00000000 VD1943_GetDigitalGain
C:\Users\DJESSOU\AppData\Local\Temp\cc3eovRL.s:3622   .text.VD1943_SetExpo:00000000 $t
C:\Users\DJESSOU\AppData\Local\Temp\cc3eovRL.s:3628   .text.VD1943_SetExpo:00000000 VD1943_SetExpo
C:\Users\DJESSOU\AppData\Local\Temp\cc3eovRL.s:3670   .text.VD1943_SetExpo:0000001c $d
ARM GAS  C:\Users\DJESSOU\AppData\Local\Temp\cc3eovRL.s 			page 331


C:\Users\DJESSOU\AppData\Local\Temp\cc3eovRL.s:5285   .rodata.__func__.1:00000000 __func__.1
C:\Users\DJESSOU\AppData\Local\Temp\cc3eovRL.s:3680   .text.VD1943_GetExpo:00000000 $t
C:\Users\DJESSOU\AppData\Local\Temp\cc3eovRL.s:3686   .text.VD1943_GetExpo:00000000 VD1943_GetExpo
C:\Users\DJESSOU\AppData\Local\Temp\cc3eovRL.s:3728   .text.VD1943_GetExpo:0000001c $d
C:\Users\DJESSOU\AppData\Local\Temp\cc3eovRL.s:5280   .rodata.__func__.0:00000000 __func__.0
C:\Users\DJESSOU\AppData\Local\Temp\cc3eovRL.s:3735   .text.VD1943_GetPixelDepth:00000000 $t
C:\Users\DJESSOU\AppData\Local\Temp\cc3eovRL.s:3741   .text.VD1943_GetPixelDepth:00000000 VD1943_GetPixelDepth
C:\Users\DJESSOU\AppData\Local\Temp\cc3eovRL.s:3769   .text.VD1943_GetPixelDepth:0000001a $d
C:\Users\DJESSOU\AppData\Local\Temp\cc3eovRL.s:3813   .text.VD1943_GetPixelDepth:00000050 $d
C:\Users\DJESSOU\AppData\Local\Temp\cc3eovRL.s:3837   .text.VD1943_Start:00000000 $t
C:\Users\DJESSOU\AppData\Local\Temp\cc3eovRL.s:3843   .text.VD1943_Start:00000000 VD1943_Start
C:\Users\DJESSOU\AppData\Local\Temp\cc3eovRL.s:4245   .text.VD1943_Start:00000136 $d
C:\Users\DJESSOU\AppData\Local\Temp\cc3eovRL.s:4628   .text.VD1943_Start:000002c8 $d
C:\Users\DJESSOU\AppData\Local\Temp\cc3eovRL.s:5355   .rodata.__func__.15:00000000 __func__.15
C:\Users\DJESSOU\AppData\Local\Temp\cc3eovRL.s:5360   .rodata.__func__.16:00000000 __func__.16
C:\Users\DJESSOU\AppData\Local\Temp\cc3eovRL.s:5350   .rodata.__func__.14:00000000 __func__.14
C:\Users\DJESSOU\AppData\Local\Temp\cc3eovRL.s:5461   .rodata.vd1943_supported_modes:00000000 vd1943_supported_modes
C:\Users\DJESSOU\AppData\Local\Temp\cc3eovRL.s:5345   .rodata.__func__.13:00000000 __func__.13
C:\Users\DJESSOU\AppData\Local\Temp\cc3eovRL.s:5335   .rodata.__func__.11:00000000 __func__.11
C:\Users\DJESSOU\AppData\Local\Temp\cc3eovRL.s:4656   .text.VD1943_Start:00000304 $t
C:\Users\DJESSOU\AppData\Local\Temp\cc3eovRL.s:5245   .text.VD1943_Start:00000564 $d
C:\Users\DJESSOU\AppData\Local\Temp\cc3eovRL.s:5272   .rodata.CSWTCH.67:00000000 CSWTCH.67
C:\Users\DJESSOU\AppData\Local\Temp\cc3eovRL.s:5265   .rodata.CSWTCH.69:00000000 CSWTCH.69
C:\Users\DJESSOU\AppData\Local\Temp\cc3eovRL.s:5325   .rodata.__func__.9:00000000 __func__.9
C:\Users\DJESSOU\AppData\Local\Temp\cc3eovRL.s:5340   .rodata.__func__.12:00000000 __func__.12
C:\Users\DJESSOU\AppData\Local\Temp\cc3eovRL.s:5330   .rodata.__func__.10:00000000 __func__.10
C:\Users\DJESSOU\AppData\Local\Temp\cc3eovRL.s:5320   .rodata.__func__.8:00000000 __func__.8
C:\Users\DJESSOU\AppData\Local\Temp\cc3eovRL.s:5310   .rodata.__func__.6:00000000 __func__.6
C:\Users\DJESSOU\AppData\Local\Temp\cc3eovRL.s:5315   .rodata.__func__.7:00000000 __func__.7
C:\Users\DJESSOU\AppData\Local\Temp\cc3eovRL.s:5262   .rodata.CSWTCH.69:00000000 $d
C:\Users\DJESSOU\AppData\Local\Temp\cc3eovRL.s:5458   .rodata.vd1943_supported_modes:00000000 $d
C:\Users\DJESSOU\AppData\Local\Temp\cc3eovRL.s:1886   .text.VD1943_Init:000000cd $d
C:\Users\DJESSOU\AppData\Local\Temp\cc3eovRL.s:1886   .text.VD1943_Init:000000ce $t
C:\Users\DJESSOU\AppData\Local\Temp\cc3eovRL.s:3772   .text.VD1943_GetPixelDepth:0000001d $d
C:\Users\DJESSOU\AppData\Local\Temp\cc3eovRL.s:3772   .text.VD1943_GetPixelDepth:0000001e $t
C:\Users\DJESSOU\AppData\Local\Temp\cc3eovRL.s:4248   .text.VD1943_Start:00000139 $d
C:\Users\DJESSOU\AppData\Local\Temp\cc3eovRL.s:4248   .text.VD1943_Start:0000013a $t
                           .group:00000000 wm4.0.c530a555507323ed657a04d5a22acbf4
                           .group:00000000 wm4.stdarg.h.31.f7f4f3bfddce9ed034956076d59396f7
                           .group:00000000 wm4._newlib_version.h.4.411db44ea2338a62eca2f0777f81481b
                           .group:00000000 wm4.features.h.33.e0c9f337c65cb9f22ed5f23d082bc78b
                           .group:00000000 wm4._default_types.h.15.247e5cd201eca3442cbf5404108c4935
                           .group:00000000 wm4._intsup.h.10.48bafbb683905c4daa4565a85aeeb264
                           .group:00000000 wm4._stdint.h.10.c24fa3af3bc1706662bb5593a907e841
                           .group:00000000 wm4.stdint.h.23.d53047a68f4a85177f80b422d52785ed
                           .group:00000000 wm4.vd1943.h.28.c5d178894003394385ca43a45deb141f
                           .group:00000000 wm4.newlib.h.7.a37ffbe9e5aff74303f4e60b1cc1c01b
                           .group:00000000 wm4.ieeefp.h.77.bd5feb87d9990dd328793ced294f6a87
                           .group:00000000 wm4.config.h.224.10ee1ad185d877c6e334e6581faab44d
                           .group:00000000 wm4._ansi.h.31.de524f58584151836e90d8620a16f8e8
                           .group:00000000 wm4.assert.h.11.db24e541f16414db224bf986d21017e2

UNDEFINED SYMBOLS
__assert_func
memcpy
__aeabi_uldivmod
__aeabi_ldivmod
ARM GAS  C:\Users\DJESSOU\AppData\Local\Temp\cc3eovRL.s 			page 332


