ARM GAS  C:\Users\DJESSOU\AppData\Local\Temp\cc3eovRL.s 			page 1


   1              		.arch armv8.1-m.main
   2              		.fpu fpv5-d16
   3              		.arch_extension dsp
   4              		.arch_extension fp
   5              		.arch_extension fp.dp
   6              		.arch_extension mve
   7              		.arch_extension mve.fp
   8              		.eabi_attribute 5, "cortex-m55"
   9              		.eabi_attribute 28, 1
  10              		.eabi_attribute 20, 1
  11              		.eabi_attribute 21, 1
  12              		.eabi_attribute 23, 3
  13              		.eabi_attribute 24, 1
  14              		.eabi_attribute 25, 1
  15              		.eabi_attribute 26, 1
  16              		.eabi_attribute 30, 4
  17              		.eabi_attribute 34, 1
  18              		.eabi_attribute 38, 1
  19              		.eabi_attribute 18, 4
  20              		.file	"vd1943.c"
  21              		.text
  22              	.Ltext0:
  23              		.cfi_sections	.debug_frame
  24              		.file 1 "Lib/Camera_Middleware/sensors/vd1943/vd1943.c"
  25              		.section	.text.VD1943_log_impl,"ax",%progbits
  26              		.align	1
  27              		.syntax unified
  28              		.thumb
  29              		.thumb_func
  31              	VD1943_log_impl:
  32              	.LVL0:
  33              	.LFB0:
   1:Lib/Camera_Middleware/sensors/vd1943/vd1943.c **** /**
   2:Lib/Camera_Middleware/sensors/vd1943/vd1943.c ****   ******************************************************************************
   3:Lib/Camera_Middleware/sensors/vd1943/vd1943.c ****   * @file    vd1943.c
   4:Lib/Camera_Middleware/sensors/vd1943/vd1943.c ****   * @author  MDG Application Team
   5:Lib/Camera_Middleware/sensors/vd1943/vd1943.c ****   ******************************************************************************
   6:Lib/Camera_Middleware/sensors/vd1943/vd1943.c ****   * @attention
   7:Lib/Camera_Middleware/sensors/vd1943/vd1943.c ****   *
   8:Lib/Camera_Middleware/sensors/vd1943/vd1943.c ****   * Copyright (c) 2024 STMicroelectronics.
   9:Lib/Camera_Middleware/sensors/vd1943/vd1943.c ****   * All rights reserved.
  10:Lib/Camera_Middleware/sensors/vd1943/vd1943.c ****   *
  11:Lib/Camera_Middleware/sensors/vd1943/vd1943.c ****   * This software is licensed under terms that can be found in the LICENSE file
  12:Lib/Camera_Middleware/sensors/vd1943/vd1943.c ****   * in the root directory of this software component.
  13:Lib/Camera_Middleware/sensors/vd1943/vd1943.c ****   * If no LICENSE file comes with this software, it is provided AS-IS.
  14:Lib/Camera_Middleware/sensors/vd1943/vd1943.c ****   *
  15:Lib/Camera_Middleware/sensors/vd1943/vd1943.c ****   ******************************************************************************
  16:Lib/Camera_Middleware/sensors/vd1943/vd1943.c ****   */
  17:Lib/Camera_Middleware/sensors/vd1943/vd1943.c **** 
  18:Lib/Camera_Middleware/sensors/vd1943/vd1943.c **** #include "vd1943.h"
  19:Lib/Camera_Middleware/sensors/vd1943/vd1943.c **** 
  20:Lib/Camera_Middleware/sensors/vd1943/vd1943.c **** #include <assert.h>
  21:Lib/Camera_Middleware/sensors/vd1943/vd1943.c **** #include <stdint.h>
  22:Lib/Camera_Middleware/sensors/vd1943/vd1943.c **** 
  23:Lib/Camera_Middleware/sensors/vd1943/vd1943.c **** #include "vd1943_patch_cut_13.c"
  24:Lib/Camera_Middleware/sensors/vd1943/vd1943.c **** #include "vd5943_patch_cut_13.c"
  25:Lib/Camera_Middleware/sensors/vd1943/vd1943.c **** #include "vd1943_vt_patch.c"
ARM GAS  C:\Users\DJESSOU\AppData\Local\Temp\cc3eovRL.s 			page 2


  26:Lib/Camera_Middleware/sensors/vd1943/vd1943.c **** 
  27:Lib/Camera_Middleware/sensors/vd1943/vd1943.c **** /* STATUS */
  28:Lib/Camera_Middleware/sensors/vd1943/vd1943.c **** #define VD1943_REG_MODEL_ID                                   0x0000
  29:Lib/Camera_Middleware/sensors/vd1943/vd1943.c ****   #define VD1943_MODEL_ID_1_3                                 0x53393430
  30:Lib/Camera_Middleware/sensors/vd1943/vd1943.c ****   #define VD1943_MODEL_ID_1_4                                 0x53393431
  31:Lib/Camera_Middleware/sensors/vd1943/vd1943.c **** #define VD1943_REG_ROM_REVISION                               0x000c
  32:Lib/Camera_Middleware/sensors/vd1943/vd1943.c ****   #define VD1943_ROM_REVISION_13                              0x0400
  33:Lib/Camera_Middleware/sensors/vd1943/vd1943.c ****   #define VD1943_ROM_REVISION_14                              0x0540
  34:Lib/Camera_Middleware/sensors/vd1943/vd1943.c **** #define VD1943_REG_CFA_SELECTION                              0x000e
  35:Lib/Camera_Middleware/sensors/vd1943/vd1943.c ****   #define VD1943_OPTICAL_RGBIR                                0x00
  36:Lib/Camera_Middleware/sensors/vd1943/vd1943.c ****   #define VD1943_OPTICAL_MONO                                 0x01
  37:Lib/Camera_Middleware/sensors/vd1943/vd1943.c **** #define VD1943_REG_SYSTEM_FSM_STATE                           0x0044
  38:Lib/Camera_Middleware/sensors/vd1943/vd1943.c ****   #define VD1943_HW_STBY                                      0
  39:Lib/Camera_Middleware/sensors/vd1943/vd1943.c ****   #define VD1943_SYSTEM_UP                                    1
  40:Lib/Camera_Middleware/sensors/vd1943/vd1943.c ****   #define VD1943_BOOT                                         2
  41:Lib/Camera_Middleware/sensors/vd1943/vd1943.c ****   #define VD1943_SW_STBY                                      3
  42:Lib/Camera_Middleware/sensors/vd1943/vd1943.c ****   #define VD1943_STREAMING                                    4
  43:Lib/Camera_Middleware/sensors/vd1943/vd1943.c ****   #define VD1943_HALT                                         6
  44:Lib/Camera_Middleware/sensors/vd1943/vd1943.c **** #define VD1943_REG_SYSTEM_ERROR                               0x0048
  45:Lib/Camera_Middleware/sensors/vd1943/vd1943.c **** #define VD1943_FWPATCH_REVISION                               0x004a
  46:Lib/Camera_Middleware/sensors/vd1943/vd1943.c **** #define VD1943_REG_SYSTEM_PLL_CLK                             0x0228
  47:Lib/Camera_Middleware/sensors/vd1943/vd1943.c **** #define VD1943_REG_PIXEL_CLK                                  0x022c
  48:Lib/Camera_Middleware/sensors/vd1943/vd1943.c **** /* CMD */
  49:Lib/Camera_Middleware/sensors/vd1943/vd1943.c ****   #define VD1943_CMD_ACK                                      0
  50:Lib/Camera_Middleware/sensors/vd1943/vd1943.c **** #define VD1943_REG_SYSTEM_UP                                  0x0514
  51:Lib/Camera_Middleware/sensors/vd1943/vd1943.c ****   #define VD1943_CMD_START_SENSOR                             1
  52:Lib/Camera_Middleware/sensors/vd1943/vd1943.c **** #define VD1943_REG_BOOT                                       0x0515
  53:Lib/Camera_Middleware/sensors/vd1943/vd1943.c ****   #define VD1943_CMD_LOAD_CERTIFICATE                         1
  54:Lib/Camera_Middleware/sensors/vd1943/vd1943.c ****   #define VD1943_CMD_LOAD_FWP                                 2
  55:Lib/Camera_Middleware/sensors/vd1943/vd1943.c ****   #define VD1943_CMD_END_BOOT                                 0x10
  56:Lib/Camera_Middleware/sensors/vd1943/vd1943.c **** #define VD1943_REG_SW_STBY                                    0x0516
  57:Lib/Camera_Middleware/sensors/vd1943/vd1943.c ****   #define VD1943_CMD_START_STREAMING                          1
  58:Lib/Camera_Middleware/sensors/vd1943/vd1943.c ****   #define VD1943_CMD_UPDATE_VT_RAM_START                      3
  59:Lib/Camera_Middleware/sensors/vd1943/vd1943.c ****   #define VD1943_CMD_UPDATE_VT_RAM_END                        4
  60:Lib/Camera_Middleware/sensors/vd1943/vd1943.c **** #define VD1943_REG_STREAMING                                  0x0517
  61:Lib/Camera_Middleware/sensors/vd1943/vd1943.c ****   #define VD1943_CMD_STOP_STREAMING                           1
  62:Lib/Camera_Middleware/sensors/vd1943/vd1943.c **** /* SENSOR SETTINGS */
  63:Lib/Camera_Middleware/sensors/vd1943/vd1943.c **** #define VD1943_REG_EXT_CLOCK                                  0x0734
  64:Lib/Camera_Middleware/sensors/vd1943/vd1943.c **** #define VD1943_REG_MIPI_DATA_RATE                             0x0738
  65:Lib/Camera_Middleware/sensors/vd1943/vd1943.c **** #define VD1943_REG_LANE_NB_SEL                                0x0743
  66:Lib/Camera_Middleware/sensors/vd1943/vd1943.c ****   #define VD1943_LANE_NB_SEL_4                                0
  67:Lib/Camera_Middleware/sensors/vd1943/vd1943.c ****   #define VD1943_LANE_NB_SEL_2                                1
  68:Lib/Camera_Middleware/sensors/vd1943/vd1943.c **** /* DIAG SETTINGS */
  69:Lib/Camera_Middleware/sensors/vd1943/vd1943.c **** #define VD1943_REG_DIAG_DISABLE_FW_0_ERR                      0x078d
  70:Lib/Camera_Middleware/sensors/vd1943/vd1943.c ****   #define VD1943_DIAG_DISABLE_FW_0_ERR_UI_CRC                 1
  71:Lib/Camera_Middleware/sensors/vd1943/vd1943.c **** #define VD1943_REG_DIAG_DISABLE_FW_1_ERR                      0x078e
  72:Lib/Camera_Middleware/sensors/vd1943/vd1943.c ****   #define VD1943_DIAG_DISABLE_FW_1_ERR_TASK_MONITOR           4
  73:Lib/Camera_Middleware/sensors/vd1943/vd1943.c **** #define VD1943_REG_DIAG_DISABLE_STREAMING_ERR                 0x078f
  74:Lib/Camera_Middleware/sensors/vd1943/vd1943.c ****   #define VD1943_DIAG_DISABLE_STREAMING_ERR_ALL               0xff
  75:Lib/Camera_Middleware/sensors/vd1943/vd1943.c **** /* STREAM STATICS */
  76:Lib/Camera_Middleware/sensors/vd1943/vd1943.c **** #define VD1943_REG_ROI_A_WIDTH_OFFSET                         0x090c
  77:Lib/Camera_Middleware/sensors/vd1943/vd1943.c **** #define VD1943_REG_ROI_A_HEIGHT_OFFSET                        0x090e
  78:Lib/Camera_Middleware/sensors/vd1943/vd1943.c **** #define VD1943_REG_ROI_A_WIDTH                                0x0910
  79:Lib/Camera_Middleware/sensors/vd1943/vd1943.c **** #define VD1943_REG_ROI_A_HEIGHT                               0x0912
  80:Lib/Camera_Middleware/sensors/vd1943/vd1943.c **** #define VD1943_REG_ROI_A_DT                                   0x0914
  81:Lib/Camera_Middleware/sensors/vd1943/vd1943.c **** #define VD1943_REG_LINE_LENGTH                                0x0934
  82:Lib/Camera_Middleware/sensors/vd1943/vd1943.c **** #define VD1943_REG_ORIENTATION                                0x0937
ARM GAS  C:\Users\DJESSOU\AppData\Local\Temp\cc3eovRL.s 			page 3


  83:Lib/Camera_Middleware/sensors/vd1943/vd1943.c **** #define VD1943_REG_PATGEN_CTRL                                0x0938
  84:Lib/Camera_Middleware/sensors/vd1943/vd1943.c ****  #define VD1943_PATGEN_CTRL_DISABLE                           0x0000
  85:Lib/Camera_Middleware/sensors/vd1943/vd1943.c ****  #define VD1943_PATGEN_CTRL_DGREY                             0x2201
  86:Lib/Camera_Middleware/sensors/vd1943/vd1943.c ****  #define VD1943_PATGEN_CTRL_PN28                              0x2801
  87:Lib/Camera_Middleware/sensors/vd1943/vd1943.c **** #define VD1943_REG_OIF_LANE_PHY_MAP                           0x093a
  88:Lib/Camera_Middleware/sensors/vd1943/vd1943.c **** #define VD1943_REG_OIF_LANE_PHY_SWAP                          0x093b
  89:Lib/Camera_Middleware/sensors/vd1943/vd1943.c **** #define VD1943_REG_OIF_INTERPACKET_DELAY                      0x093c
  90:Lib/Camera_Middleware/sensors/vd1943/vd1943.c **** #define VD1943_REG_VT_CTRL                                    0x0ac6
  91:Lib/Camera_Middleware/sensors/vd1943/vd1943.c ****   #define VD1943_VT_CTRL_MASTER                               0
  92:Lib/Camera_Middleware/sensors/vd1943/vd1943.c ****   #define VD1943_VT_CTRL_SLAVE                                1
  93:Lib/Camera_Middleware/sensors/vd1943/vd1943.c **** #define VD1943_REG_OIF_ISL_ENABLE                             0x0ac7
  94:Lib/Camera_Middleware/sensors/vd1943/vd1943.c **** #define VD1943_REG_GPIO_x_CTRL(_i_)                           (0xad4 + (_i_))
  95:Lib/Camera_Middleware/sensors/vd1943/vd1943.c **** #define VD1943_REG_CFA_BLENDER_ALPHA_CTRL                     0x0aed
  96:Lib/Camera_Middleware/sensors/vd1943/vd1943.c ****   #define VD1943_CFA_BLENDER_NORMAL                           0
  97:Lib/Camera_Middleware/sensors/vd1943/vd1943.c ****   #define VD1943_CFA_BLENDER_ZERO                             2
  98:Lib/Camera_Middleware/sensors/vd1943/vd1943.c **** #define VD1943_REG_OIF_DT_ISL                                 0x0afc
  99:Lib/Camera_Middleware/sensors/vd1943/vd1943.c **** /* STREAM_CTXx_STATIC */
 100:Lib/Camera_Middleware/sensors/vd1943/vd1943.c **** #define VD1943_REG_CTXx_STATIC_OFFSET(_x_, _addr_)            (0x0b40 + (_x_) * 72 + (_addr_))
 101:Lib/Camera_Middleware/sensors/vd1943/vd1943.c **** #define VD1943_REG_SENSOR_CONFIGURATION(_x_)                  VD1943_REG_CTXx_STATIC_OFFSET(_x_, 0x
 102:Lib/Camera_Middleware/sensors/vd1943/vd1943.c **** #define VD1943_REG_FRAME_LENGTH(_x_)                          VD1943_REG_CTXx_STATIC_OFFSET(_x_, 0x
 103:Lib/Camera_Middleware/sensors/vd1943/vd1943.c **** #define VD1943_REG_GPIO_CTRL(_x_)                             VD1943_REG_CTXx_STATIC_OFFSET(_x_, 0x
 104:Lib/Camera_Middleware/sensors/vd1943/vd1943.c ****  #define VD1943_GPIO_DISABLE                                  0
 105:Lib/Camera_Middleware/sensors/vd1943/vd1943.c ****  #define VD1943_GPIO_ENABLE                                   1
 106:Lib/Camera_Middleware/sensors/vd1943/vd1943.c **** /* STREAM DYNAMICS */
 107:Lib/Camera_Middleware/sensors/vd1943/vd1943.c **** /* STREAM_CTXx_DYNAMIC */
 108:Lib/Camera_Middleware/sensors/vd1943/vd1943.c **** #define VD1943_REG_CTXx_DYNAMIC_OFFSET(_x_, _addr_)           (0x0c78 + (_x_) * 40 + (_addr_))
 109:Lib/Camera_Middleware/sensors/vd1943/vd1943.c **** 
 110:Lib/Camera_Middleware/sensors/vd1943/vd1943.c **** #define VD1943_REG_GROUP_PARAMETER_HOLD(_x_)                  VD1943_REG_CTXx_DYNAMIC_OFFSET(_x_, 0
 111:Lib/Camera_Middleware/sensors/vd1943/vd1943.c ****  #define VD1943_GROUP_PARAMETER_HOLD_DISABLE                  0
 112:Lib/Camera_Middleware/sensors/vd1943/vd1943.c ****  #define VD1943_GROUP_PARAMETER_HOLD_ENABLE                   1
 113:Lib/Camera_Middleware/sensors/vd1943/vd1943.c **** #define VD1943_REG_ANALOG_GAIN(_x_)                           VD1943_REG_CTXx_DYNAMIC_OFFSET(_x_, 0
 114:Lib/Camera_Middleware/sensors/vd1943/vd1943.c **** #define VD1943_REG_INTEGRATION_TIME_PRIMARY(_x_)              VD1943_REG_CTXx_DYNAMIC_OFFSET(_x_, 0
 115:Lib/Camera_Middleware/sensors/vd1943/vd1943.c **** #define VD1943_REG_INTEGRATION_TIME_IR(_x_)                   VD1943_REG_CTXx_DYNAMIC_OFFSET(_x_, 0
 116:Lib/Camera_Middleware/sensors/vd1943/vd1943.c **** #define VD1943_REG_INTEGRATION_TIME_SHORT(_x_)                VD1943_REG_CTXx_DYNAMIC_OFFSET(_x_, 0
 117:Lib/Camera_Middleware/sensors/vd1943/vd1943.c **** #define VD1943_DIGITAL_GAIN_R(_x_)                            VD1943_REG_CTXx_DYNAMIC_OFFSET(_x_, 0
 118:Lib/Camera_Middleware/sensors/vd1943/vd1943.c **** #define VD1943_DIGITAL_GAIN_G(_x_)                            VD1943_REG_CTXx_DYNAMIC_OFFSET(_x_, 0
 119:Lib/Camera_Middleware/sensors/vd1943/vd1943.c **** #define VD1943_DIGITAL_GAIN_B(_x_)                            VD1943_REG_CTXx_DYNAMIC_OFFSET(_x_, 0
 120:Lib/Camera_Middleware/sensors/vd1943/vd1943.c **** #define VD1943_DIGITAL_GAIN_IR(_x_)                           VD1943_REG_CTXx_DYNAMIC_OFFSET(_x_, 0
 121:Lib/Camera_Middleware/sensors/vd1943/vd1943.c **** 
 122:Lib/Camera_Middleware/sensors/vd1943/vd1943.c **** /* DEBUG */
 123:Lib/Camera_Middleware/sensors/vd1943/vd1943.c **** #define VD1943_REG_DPHYTX_CTRL                                0x108c
 124:Lib/Camera_Middleware/sensors/vd1943/vd1943.c **** #define VD1943_REG_BOTTOM_STATUS_LINE_DISABLE                 0x110c
 125:Lib/Camera_Middleware/sensors/vd1943/vd1943.c **** /* CERTIFICATE */
 126:Lib/Camera_Middleware/sensors/vd1943/vd1943.c **** #define VD1943_REG_CERTIFICATE_AREA_START_ADDR                0x1aa8
 127:Lib/Camera_Middleware/sensors/vd1943/vd1943.c **** /* PATCH AREA */
 128:Lib/Camera_Middleware/sensors/vd1943/vd1943.c **** #define VD1943_REG_FWPATCH_START_ADDR                         0x2000
 129:Lib/Camera_Middleware/sensors/vd1943/vd1943.c **** 
 130:Lib/Camera_Middleware/sensors/vd1943/vd1943.c **** #define VD1943_MIN_VBLANK                                     60
 131:Lib/Camera_Middleware/sensors/vd1943/vd1943.c **** 
 132:Lib/Camera_Middleware/sensors/vd1943/vd1943.c **** /* Yes we are above maximum recommended line time duration. But this value allow to output a 10 bit
 133:Lib/Camera_Middleware/sensors/vd1943/vd1943.c ****  * global shutter mode in a 2 lanes configuration.
 134:Lib/Camera_Middleware/sensors/vd1943/vd1943.c ****  */
 135:Lib/Camera_Middleware/sensors/vd1943/vd1943.c **** #define VD1943_LINE_TIME_IN_NS                                14500
 136:Lib/Camera_Middleware/sensors/vd1943/vd1943.c **** #define VD1943_LINE_LENGTH_MIN                                3375
 137:Lib/Camera_Middleware/sensors/vd1943/vd1943.c **** 
 138:Lib/Camera_Middleware/sensors/vd1943/vd1943.c **** /* FIXME : Need characterization */
 139:Lib/Camera_Middleware/sensors/vd1943/vd1943.c **** #define VD1943_EXPOSURE_MARGIN                                100
ARM GAS  C:\Users\DJESSOU\AppData\Local\Temp\cc3eovRL.s 			page 4


 140:Lib/Camera_Middleware/sensors/vd1943/vd1943.c **** 
 141:Lib/Camera_Middleware/sensors/vd1943/vd1943.c **** #ifndef MIN
 142:Lib/Camera_Middleware/sensors/vd1943/vd1943.c **** #define MIN(a,b) ((a)<(b)?(a):(b))
 143:Lib/Camera_Middleware/sensors/vd1943/vd1943.c **** #endif
 144:Lib/Camera_Middleware/sensors/vd1943/vd1943.c **** 
 145:Lib/Camera_Middleware/sensors/vd1943/vd1943.c **** #ifndef MAX
 146:Lib/Camera_Middleware/sensors/vd1943/vd1943.c **** #define MAX(a,b) ((a)>(b)?(a):(b))
 147:Lib/Camera_Middleware/sensors/vd1943/vd1943.c **** #endif
 148:Lib/Camera_Middleware/sensors/vd1943/vd1943.c **** 
 149:Lib/Camera_Middleware/sensors/vd1943/vd1943.c **** #define VD1943_COMPUTE_LEFT(_w_)                              ((VD1943_MAX_WIDTH - (_w_)) / 2)
 150:Lib/Camera_Middleware/sensors/vd1943/vd1943.c **** #define VD1943_COMPUTE_TOP(_h_)                               ((VD1943_MAX_HEIGHT - (_h_)) / 2)
 151:Lib/Camera_Middleware/sensors/vd1943/vd1943.c **** 
 152:Lib/Camera_Middleware/sensors/vd1943/vd1943.c **** struct vd1943_rect {
 153:Lib/Camera_Middleware/sensors/vd1943/vd1943.c ****   int32_t left;
 154:Lib/Camera_Middleware/sensors/vd1943/vd1943.c ****   int32_t top;
 155:Lib/Camera_Middleware/sensors/vd1943/vd1943.c ****   uint32_t width;
 156:Lib/Camera_Middleware/sensors/vd1943/vd1943.c ****   uint32_t height;
 157:Lib/Camera_Middleware/sensors/vd1943/vd1943.c **** };
 158:Lib/Camera_Middleware/sensors/vd1943/vd1943.c **** 
 159:Lib/Camera_Middleware/sensors/vd1943/vd1943.c **** static const struct vd1943_rect vd1943_supported_modes[] = {
 160:Lib/Camera_Middleware/sensors/vd1943/vd1943.c ****   /* VD1943_RES_QVGA_320_240 */
 161:Lib/Camera_Middleware/sensors/vd1943/vd1943.c ****   {
 162:Lib/Camera_Middleware/sensors/vd1943/vd1943.c ****     .left = VD1943_COMPUTE_LEFT(320),
 163:Lib/Camera_Middleware/sensors/vd1943/vd1943.c ****     .top = VD1943_COMPUTE_TOP(240),
 164:Lib/Camera_Middleware/sensors/vd1943/vd1943.c ****     .width = 320,
 165:Lib/Camera_Middleware/sensors/vd1943/vd1943.c ****     .height = 240,
 166:Lib/Camera_Middleware/sensors/vd1943/vd1943.c ****   },
 167:Lib/Camera_Middleware/sensors/vd1943/vd1943.c ****   /* VD1943_RES_VGA_640_480 */
 168:Lib/Camera_Middleware/sensors/vd1943/vd1943.c ****   {
 169:Lib/Camera_Middleware/sensors/vd1943/vd1943.c ****     .left = VD1943_COMPUTE_LEFT(640),
 170:Lib/Camera_Middleware/sensors/vd1943/vd1943.c ****     .top = VD1943_COMPUTE_TOP(480),
 171:Lib/Camera_Middleware/sensors/vd1943/vd1943.c ****     .width = 640,
 172:Lib/Camera_Middleware/sensors/vd1943/vd1943.c ****     .height = 480,
 173:Lib/Camera_Middleware/sensors/vd1943/vd1943.c ****   },
 174:Lib/Camera_Middleware/sensors/vd1943/vd1943.c ****   /* VD1943_RES_VGA_800_600 */
 175:Lib/Camera_Middleware/sensors/vd1943/vd1943.c ****   {
 176:Lib/Camera_Middleware/sensors/vd1943/vd1943.c ****     .left = VD1943_COMPUTE_LEFT(800),
 177:Lib/Camera_Middleware/sensors/vd1943/vd1943.c ****     .top = VD1943_COMPUTE_TOP(600),
 178:Lib/Camera_Middleware/sensors/vd1943/vd1943.c ****     .width = 800,
 179:Lib/Camera_Middleware/sensors/vd1943/vd1943.c ****     .height = 600,
 180:Lib/Camera_Middleware/sensors/vd1943/vd1943.c ****   },
 181:Lib/Camera_Middleware/sensors/vd1943/vd1943.c ****   /* VD1943_RES_XGA_1024_768 */
 182:Lib/Camera_Middleware/sensors/vd1943/vd1943.c ****   {
 183:Lib/Camera_Middleware/sensors/vd1943/vd1943.c ****     .left = VD1943_COMPUTE_LEFT(1024),
 184:Lib/Camera_Middleware/sensors/vd1943/vd1943.c ****     .top = VD1943_COMPUTE_TOP(768),
 185:Lib/Camera_Middleware/sensors/vd1943/vd1943.c ****     .width = 1024,
 186:Lib/Camera_Middleware/sensors/vd1943/vd1943.c ****     .height = 768,
 187:Lib/Camera_Middleware/sensors/vd1943/vd1943.c ****   },
 188:Lib/Camera_Middleware/sensors/vd1943/vd1943.c ****   /* VD1943_RES_720P_1280_720 */
 189:Lib/Camera_Middleware/sensors/vd1943/vd1943.c ****   {
 190:Lib/Camera_Middleware/sensors/vd1943/vd1943.c ****     .left = VD1943_COMPUTE_LEFT(1280),
 191:Lib/Camera_Middleware/sensors/vd1943/vd1943.c ****     .top = VD1943_COMPUTE_TOP(720),
 192:Lib/Camera_Middleware/sensors/vd1943/vd1943.c ****     .width = 1280,
 193:Lib/Camera_Middleware/sensors/vd1943/vd1943.c ****     .height = 720,
 194:Lib/Camera_Middleware/sensors/vd1943/vd1943.c ****   },
 195:Lib/Camera_Middleware/sensors/vd1943/vd1943.c ****   /* VD1943_RES_SXGA_1280_1024 */
 196:Lib/Camera_Middleware/sensors/vd1943/vd1943.c ****   {
ARM GAS  C:\Users\DJESSOU\AppData\Local\Temp\cc3eovRL.s 			page 5


 197:Lib/Camera_Middleware/sensors/vd1943/vd1943.c ****     .left = VD1943_COMPUTE_LEFT(1280),
 198:Lib/Camera_Middleware/sensors/vd1943/vd1943.c ****     .top = VD1943_COMPUTE_TOP(1024),
 199:Lib/Camera_Middleware/sensors/vd1943/vd1943.c ****     .width = 1280,
 200:Lib/Camera_Middleware/sensors/vd1943/vd1943.c ****     .height = 1024,
 201:Lib/Camera_Middleware/sensors/vd1943/vd1943.c ****   },
 202:Lib/Camera_Middleware/sensors/vd1943/vd1943.c ****   /* VD1943_RES_1080P_1920_1080 */
 203:Lib/Camera_Middleware/sensors/vd1943/vd1943.c ****   {
 204:Lib/Camera_Middleware/sensors/vd1943/vd1943.c ****     .left = VD1943_COMPUTE_LEFT(1920),
 205:Lib/Camera_Middleware/sensors/vd1943/vd1943.c ****     .top = VD1943_COMPUTE_TOP(1080),
 206:Lib/Camera_Middleware/sensors/vd1943/vd1943.c ****     .width = 1920,
 207:Lib/Camera_Middleware/sensors/vd1943/vd1943.c ****     .height = 1080,
 208:Lib/Camera_Middleware/sensors/vd1943/vd1943.c ****   },
 209:Lib/Camera_Middleware/sensors/vd1943/vd1943.c ****   /* VD1943_RES_QXGA_2048_1536 */
 210:Lib/Camera_Middleware/sensors/vd1943/vd1943.c ****   {
 211:Lib/Camera_Middleware/sensors/vd1943/vd1943.c ****     .left = VD1943_COMPUTE_LEFT(2048),
 212:Lib/Camera_Middleware/sensors/vd1943/vd1943.c ****     .top = VD1943_COMPUTE_TOP(1536),
 213:Lib/Camera_Middleware/sensors/vd1943/vd1943.c ****     .width = 2048,
 214:Lib/Camera_Middleware/sensors/vd1943/vd1943.c ****     .height = 1536,
 215:Lib/Camera_Middleware/sensors/vd1943/vd1943.c ****   },
 216:Lib/Camera_Middleware/sensors/vd1943/vd1943.c ****   /* VD1943_RES_FULL43_2560_1920 */
 217:Lib/Camera_Middleware/sensors/vd1943/vd1943.c ****   {
 218:Lib/Camera_Middleware/sensors/vd1943/vd1943.c ****     .left = VD1943_COMPUTE_LEFT(2560),
 219:Lib/Camera_Middleware/sensors/vd1943/vd1943.c ****     .top = VD1943_COMPUTE_TOP(1920),
 220:Lib/Camera_Middleware/sensors/vd1943/vd1943.c ****     .width = 2560,
 221:Lib/Camera_Middleware/sensors/vd1943/vd1943.c ****     .height = 1920,
 222:Lib/Camera_Middleware/sensors/vd1943/vd1943.c ****   },
 223:Lib/Camera_Middleware/sensors/vd1943/vd1943.c ****   /* VD1943_RES_FULL_2560_1984 */
 224:Lib/Camera_Middleware/sensors/vd1943/vd1943.c ****   {
 225:Lib/Camera_Middleware/sensors/vd1943/vd1943.c ****     .left = VD1943_COMPUTE_LEFT(2560),
 226:Lib/Camera_Middleware/sensors/vd1943/vd1943.c ****     .top = VD1943_COMPUTE_TOP(1984),
 227:Lib/Camera_Middleware/sensors/vd1943/vd1943.c ****     .width = 2560,
 228:Lib/Camera_Middleware/sensors/vd1943/vd1943.c ****     .height = 1984,
 229:Lib/Camera_Middleware/sensors/vd1943/vd1943.c ****   },
 230:Lib/Camera_Middleware/sensors/vd1943/vd1943.c **** };
 231:Lib/Camera_Middleware/sensors/vd1943/vd1943.c **** 
 232:Lib/Camera_Middleware/sensors/vd1943/vd1943.c **** #define VD1943_TraceError(_ctx_,_ret_) do { \
 233:Lib/Camera_Middleware/sensors/vd1943/vd1943.c ****   if (_ret_) VD1943_error(_ctx_, "Error on %s:%d : %d\n", __func__, __LINE__, _ret_); \
 234:Lib/Camera_Middleware/sensors/vd1943/vd1943.c ****   if (_ret_) display_error(_ctx_); \
 235:Lib/Camera_Middleware/sensors/vd1943/vd1943.c ****   if (_ret_) return _ret_; \
 236:Lib/Camera_Middleware/sensors/vd1943/vd1943.c **** } while(0)
 237:Lib/Camera_Middleware/sensors/vd1943/vd1943.c **** 
 238:Lib/Camera_Middleware/sensors/vd1943/vd1943.c **** static void VD1943_log_impl(VD1943_Ctx_t *ctx, int lvl, const char *format, ...)
 239:Lib/Camera_Middleware/sensors/vd1943/vd1943.c **** {
  34              		.loc 1 239 1 view -0
  35              		.cfi_startproc
  36              		@ args = 4, pretend = 8, frame = 8
  37              		@ frame_needed = 0, uses_anonymous_args = 1
 240:Lib/Camera_Middleware/sensors/vd1943/vd1943.c ****   va_list ap;
  38              		.loc 1 240 3 view .LVU1
 241:Lib/Camera_Middleware/sensors/vd1943/vd1943.c **** 
 242:Lib/Camera_Middleware/sensors/vd1943/vd1943.c ****   if (!ctx->log)
  39              		.loc 1 242 3 view .LVU2
 239:Lib/Camera_Middleware/sensors/vd1943/vd1943.c ****   va_list ap;
  40              		.loc 1 239 1 is_stmt 0 view .LVU3
  41 0000 0CB4     		push	{r2, r3}
  42              		.cfi_def_cfa_offset 8
  43              		.cfi_offset 2, -8
ARM GAS  C:\Users\DJESSOU\AppData\Local\Temp\cc3eovRL.s 			page 6


  44              		.cfi_offset 3, -4
  45 0002 13B5     		push	{r0, r1, r4, lr}
  46              		.cfi_def_cfa_offset 24
  47              		.cfi_offset 4, -16
  48              		.cfi_offset 14, -12
  49              		.loc 1 242 6 view .LVU4
  50 0004 446A     		ldr	r4, [r0, #36]
  51 0006 1CB1     		cbz	r4, .L1
 243:Lib/Camera_Middleware/sensors/vd1943/vd1943.c ****     return ;
 244:Lib/Camera_Middleware/sensors/vd1943/vd1943.c **** 
 245:Lib/Camera_Middleware/sensors/vd1943/vd1943.c ****   va_start(ap, format);
  52              		.loc 1 245 3 is_stmt 1 view .LVU5
  53 0008 05AB     		add	r3, sp, #20
 246:Lib/Camera_Middleware/sensors/vd1943/vd1943.c ****   ctx->log(ctx, lvl, format, ap);
  54              		.loc 1 246 3 is_stmt 0 view .LVU6
  55 000a 049A     		ldr	r2, [sp, #16]
 245:Lib/Camera_Middleware/sensors/vd1943/vd1943.c ****   ctx->log(ctx, lvl, format, ap);
  56              		.loc 1 245 3 view .LVU7
  57 000c 0193     		str	r3, [sp, #4]
  58              		.loc 1 246 3 is_stmt 1 view .LVU8
  59 000e A047     		blx	r4
  60              	.LVL1:
 247:Lib/Camera_Middleware/sensors/vd1943/vd1943.c ****   va_end(ap);
  61              		.loc 1 247 3 view .LVU9
  62              	.L1:
 248:Lib/Camera_Middleware/sensors/vd1943/vd1943.c **** }
  63              		.loc 1 248 1 is_stmt 0 view .LVU10
  64 0010 02B0     		add	sp, sp, #8
  65              		.cfi_def_cfa_offset 16
  66              		@ sp needed
  67 0012 BDE81040 		pop	{r4, lr}
  68              		.cfi_restore 14
  69              		.cfi_restore 4
  70              		.cfi_def_cfa_offset 8
  71 0016 02B0     		add	sp, sp, #8
  72              		.cfi_restore 3
  73              		.cfi_restore 2
  74              		.cfi_def_cfa_offset 0
  75 0018 7047     		bx	lr
  76              		.cfi_endproc
  77              	.LFE0:
  79              		.section	.rodata.VD1943_PollReg8.str1.1,"aMS",%progbits,1
  80              	.LC0:
  81 0000 56443139 		.ascii	"VD1943_DG%d-%d : current state %d\012\000"
  81      34335F44 
  81      4725642D 
  81      2564203A 
  81      20637572 
  82              		.section	.text.VD1943_PollReg8,"ax",%progbits
  83              		.align	1
  84              		.syntax unified
  85              		.thumb
  86              		.thumb_func
  88              	VD1943_PollReg8:
  89              	.LVL2:
  90              	.LFB2:
 249:Lib/Camera_Middleware/sensors/vd1943/vd1943.c **** 
ARM GAS  C:\Users\DJESSOU\AppData\Local\Temp\cc3eovRL.s 			page 7


 250:Lib/Camera_Middleware/sensors/vd1943/vd1943.c **** #define VD1943_dbg(_ctx_, _lvl_, _fmt_, ...) do { \
 251:Lib/Camera_Middleware/sensors/vd1943/vd1943.c ****   VD1943_log_impl(_ctx_, VD1943_LVL_DBG(_lvl_), "VD1943_DG%d-%d : " _fmt_, _lvl_, __LINE__, ##__VA_
 252:Lib/Camera_Middleware/sensors/vd1943/vd1943.c **** } while(0)
 253:Lib/Camera_Middleware/sensors/vd1943/vd1943.c **** 
 254:Lib/Camera_Middleware/sensors/vd1943/vd1943.c **** #define VD1943_notice(_ctx_, _fmt_, ...) do { \
 255:Lib/Camera_Middleware/sensors/vd1943/vd1943.c ****   VD1943_log_impl(_ctx_, VD1943_LVL_NOTICE, "VD1943_NOT-%d : " _fmt_, __LINE__, ##__VA_ARGS__); \
 256:Lib/Camera_Middleware/sensors/vd1943/vd1943.c **** } while(0)
 257:Lib/Camera_Middleware/sensors/vd1943/vd1943.c **** 
 258:Lib/Camera_Middleware/sensors/vd1943/vd1943.c **** #define VD1943_warn(_ctx_, _fmt_, ...) do { \
 259:Lib/Camera_Middleware/sensors/vd1943/vd1943.c ****   VD1943_log_impl(_ctx_, VD1943_LVL_WARNING, "VD1943_WRN-%d : " _fmt_, __LINE__, ##__VA_ARGS__); \
 260:Lib/Camera_Middleware/sensors/vd1943/vd1943.c **** } while(0)
 261:Lib/Camera_Middleware/sensors/vd1943/vd1943.c **** 
 262:Lib/Camera_Middleware/sensors/vd1943/vd1943.c **** #define VD1943_error(_ctx_, _fmt_, ...) do { \
 263:Lib/Camera_Middleware/sensors/vd1943/vd1943.c ****   VD1943_log_impl(_ctx_, VD1943_LVL_ERROR, "VD1943_ERR-%d : " _fmt_, __LINE__, ##__VA_ARGS__); \
 264:Lib/Camera_Middleware/sensors/vd1943/vd1943.c **** } while(0)
 265:Lib/Camera_Middleware/sensors/vd1943/vd1943.c **** 
 266:Lib/Camera_Middleware/sensors/vd1943/vd1943.c **** static void display_error(VD1943_Ctx_t *ctx)
 267:Lib/Camera_Middleware/sensors/vd1943/vd1943.c **** {
 268:Lib/Camera_Middleware/sensors/vd1943/vd1943.c ****   uint16_t reg16;
 269:Lib/Camera_Middleware/sensors/vd1943/vd1943.c ****   int ret;
 270:Lib/Camera_Middleware/sensors/vd1943/vd1943.c **** 
 271:Lib/Camera_Middleware/sensors/vd1943/vd1943.c ****   ret = ctx->read16(ctx, VD1943_REG_SYSTEM_ERROR, &reg16);
 272:Lib/Camera_Middleware/sensors/vd1943/vd1943.c ****   assert(ret == 0);
 273:Lib/Camera_Middleware/sensors/vd1943/vd1943.c ****   VD1943_error(ctx, "ERROR_CODE : 0x%04x\n", reg16);
 274:Lib/Camera_Middleware/sensors/vd1943/vd1943.c **** }
 275:Lib/Camera_Middleware/sensors/vd1943/vd1943.c **** 
 276:Lib/Camera_Middleware/sensors/vd1943/vd1943.c **** static int VD1943_PollReg8(VD1943_Ctx_t *ctx, uint16_t addr, uint8_t poll_val)
 277:Lib/Camera_Middleware/sensors/vd1943/vd1943.c **** {
  91              		.loc 1 277 1 is_stmt 1 view -0
  92              		.cfi_startproc
  93              		@ args = 0, pretend = 0, frame = 8
  94              		@ frame_needed = 0, uses_anonymous_args = 0
 278:Lib/Camera_Middleware/sensors/vd1943/vd1943.c ****   const unsigned int loop_delay_ms = 10;
  95              		.loc 1 278 3 view .LVU12
 279:Lib/Camera_Middleware/sensors/vd1943/vd1943.c ****   const unsigned int timeout_ms = 500;
  96              		.loc 1 279 3 view .LVU13
 280:Lib/Camera_Middleware/sensors/vd1943/vd1943.c ****   int loop_nb = timeout_ms / loop_delay_ms;
  97              		.loc 1 280 3 view .LVU14
 281:Lib/Camera_Middleware/sensors/vd1943/vd1943.c ****   uint8_t val;
  98              		.loc 1 281 3 view .LVU15
 282:Lib/Camera_Middleware/sensors/vd1943/vd1943.c ****   int ret;
  99              		.loc 1 282 3 view .LVU16
 283:Lib/Camera_Middleware/sensors/vd1943/vd1943.c **** 
 284:Lib/Camera_Middleware/sensors/vd1943/vd1943.c ****   while (--loop_nb) {
 100              		.loc 1 284 3 view .LVU17
 101              		.loc 1 284 10 view .LVU18
 277:Lib/Camera_Middleware/sensors/vd1943/vd1943.c ****   const unsigned int loop_delay_ms = 10;
 102              		.loc 1 277 1 is_stmt 0 view .LVU19
 103 0000 F0B5     		push	{r4, r5, r6, r7, lr}
 104              		.cfi_def_cfa_offset 20
 105              		.cfi_offset 4, -20
 106              		.cfi_offset 5, -16
 107              		.cfi_offset 6, -12
 108              		.cfi_offset 7, -8
 109              		.cfi_offset 14, -4
 110 0002 0446     		mov	r4, r0
 111 0004 0E46     		mov	r6, r1
ARM GAS  C:\Users\DJESSOU\AppData\Local\Temp\cc3eovRL.s 			page 8


 112 0006 1746     		mov	r7, r2
 113 0008 3125     		movs	r5, #49
 114 000a 85B0     		sub	sp, sp, #20
 115              		.cfi_def_cfa_offset 40
 116              	.LVL3:
 117              	.L8:
 285:Lib/Camera_Middleware/sensors/vd1943/vd1943.c ****     ret = ctx->read8(ctx, addr, &val);
 118              		.loc 1 285 5 is_stmt 1 view .LVU20
 119              		.loc 1 285 11 is_stmt 0 view .LVU21
 120 000c 3146     		mov	r1, r6
 121 000e 2046     		mov	r0, r4
 122 0010 6368     		ldr	r3, [r4, #4]
 123 0012 0DF10F02 		add	r2, sp, #15
 124 0016 9847     		blx	r3
 125              	.LVL4:
 286:Lib/Camera_Middleware/sensors/vd1943/vd1943.c ****     if (ret < 0)
 126              		.loc 1 286 5 is_stmt 1 view .LVU22
 127              		.loc 1 286 8 is_stmt 0 view .LVU23
 128 0018 0028     		cmp	r0, #0
 129              		.loc 1 286 8 view .LVU24
 130 001a 17DB     		blt	.L6
 287:Lib/Camera_Middleware/sensors/vd1943/vd1943.c ****       return ret;
 288:Lib/Camera_Middleware/sensors/vd1943/vd1943.c ****     if (val == poll_val)
 131              		.loc 1 288 5 is_stmt 1 view .LVU25
 132              		.loc 1 288 8 is_stmt 0 view .LVU26
 133 001c 9DF80F30 		ldrb	r3, [sp, #15]	@ zero_extendqisi2
 134 0020 BB42     		cmp	r3, r7
 135 0022 15D0     		beq	.L9
 289:Lib/Camera_Middleware/sensors/vd1943/vd1943.c ****       return 0;
 290:Lib/Camera_Middleware/sensors/vd1943/vd1943.c ****     ctx->delay(ctx, loop_delay_ms);
 136              		.loc 1 290 5 is_stmt 1 view .LVU27
 137 0024 0A21     		movs	r1, #10
 138 0026 2046     		mov	r0, r4
 139              	.LVL5:
 140              		.loc 1 290 5 is_stmt 0 view .LVU28
 141 0028 236A     		ldr	r3, [r4, #32]
 142 002a 9847     		blx	r3
 143              	.LVL6:
 284:Lib/Camera_Middleware/sensors/vd1943/vd1943.c ****     ret = ctx->read8(ctx, addr, &val);
 144              		.loc 1 284 10 is_stmt 1 view .LVU29
 284:Lib/Camera_Middleware/sensors/vd1943/vd1943.c ****     ret = ctx->read8(ctx, addr, &val);
 145              		.loc 1 284 10 is_stmt 0 view .LVU30
 146 002c 013D     		subs	r5, r5, #1
 147              	.LVL7:
 284:Lib/Camera_Middleware/sensors/vd1943/vd1943.c ****     ret = ctx->read8(ctx, addr, &val);
 148              		.loc 1 284 10 view .LVU31
 149 002e EDD1     		bne	.L8
 291:Lib/Camera_Middleware/sensors/vd1943/vd1943.c ****   }
 292:Lib/Camera_Middleware/sensors/vd1943/vd1943.c **** 
 293:Lib/Camera_Middleware/sensors/vd1943/vd1943.c ****   VD1943_dbg(ctx, 0, "current state %d\n", val);
 150              		.loc 1 293 3 is_stmt 1 view .LVU32
 151              		.loc 1 293 3 view .LVU33
 152 0030 9DF80F30 		ldrb	r3, [sp, #15]	@ zero_extendqisi2
 153 0034 2046     		mov	r0, r4
 154 0036 0193     		str	r3, [sp, #4]
 155 0038 40F22513 		movw	r3, #293
 156 003c 0321     		movs	r1, #3
ARM GAS  C:\Users\DJESSOU\AppData\Local\Temp\cc3eovRL.s 			page 9


 157 003e 0093     		str	r3, [sp]
 158 0040 044A     		ldr	r2, .L11
 159 0042 2B46     		mov	r3, r5
 160 0044 FFF7FEFF 		bl	VD1943_log_impl
 161              	.LVL8:
 162              		.loc 1 293 3 discriminator 1 view .LVU34
 294:Lib/Camera_Middleware/sensors/vd1943/vd1943.c **** 
 295:Lib/Camera_Middleware/sensors/vd1943/vd1943.c ****   return -1;
 163              		.loc 1 295 3 view .LVU35
 164              		.loc 1 295 10 is_stmt 0 view .LVU36
 165 0048 4FF0FF30 		mov	r0, #-1
 166              	.LVL9:
 167              	.L6:
 296:Lib/Camera_Middleware/sensors/vd1943/vd1943.c **** }
 168              		.loc 1 296 1 view .LVU37
 169 004c 05B0     		add	sp, sp, #20
 170              		.cfi_remember_state
 171              		.cfi_def_cfa_offset 20
 172              		@ sp needed
 173 004e F0BD     		pop	{r4, r5, r6, r7, pc}
 174              	.LVL10:
 175              	.L9:
 176              		.cfi_restore_state
 289:Lib/Camera_Middleware/sensors/vd1943/vd1943.c ****     ctx->delay(ctx, loop_delay_ms);
 177              		.loc 1 289 14 view .LVU38
 178 0050 0020     		movs	r0, #0
 179              	.LVL11:
 289:Lib/Camera_Middleware/sensors/vd1943/vd1943.c ****     ctx->delay(ctx, loop_delay_ms);
 180              		.loc 1 289 14 view .LVU39
 181 0052 FBE7     		b	.L6
 182              	.L12:
 183              		.align	2
 184              	.L11:
 185 0054 00000000 		.word	.LC0
 186              		.cfi_endproc
 187              	.LFE2:
 189              		.section	.rodata.display_error.str1.1,"aMS",%progbits,1
 190              	.LC1:
 191 0000 72657420 		.ascii	"ret == 0\000"
 191      3D3D2030 
 191      00
 192              	.LC2:
 193 0009 4C69622F 		.ascii	"Lib/Camera_Middleware/sensors/vd1943/vd1943.c\000"
 193      43616D65 
 193      72615F4D 
 193      6964646C 
 193      65776172 
 194              	.LC3:
 195 0037 56443139 		.ascii	"VD1943_ERR-%d : ERROR_CODE : 0x%04x\012\000"
 195      34335F45 
 195      52522D25 
 195      64203A20 
 195      4552524F 
 196              		.section	.text.display_error,"ax",%progbits
 197              		.align	1
 198              		.syntax unified
 199              		.thumb
ARM GAS  C:\Users\DJESSOU\AppData\Local\Temp\cc3eovRL.s 			page 10


 200              		.thumb_func
 202              	display_error:
 203              	.LVL12:
 204              	.LFB1:
 267:Lib/Camera_Middleware/sensors/vd1943/vd1943.c ****   uint16_t reg16;
 205              		.loc 1 267 1 is_stmt 1 view -0
 206              		.cfi_startproc
 207              		@ args = 0, pretend = 0, frame = 8
 208              		@ frame_needed = 0, uses_anonymous_args = 0
 268:Lib/Camera_Middleware/sensors/vd1943/vd1943.c ****   int ret;
 209              		.loc 1 268 3 view .LVU41
 269:Lib/Camera_Middleware/sensors/vd1943/vd1943.c **** 
 210              		.loc 1 269 3 view .LVU42
 271:Lib/Camera_Middleware/sensors/vd1943/vd1943.c ****   assert(ret == 0);
 211              		.loc 1 271 3 view .LVU43
 267:Lib/Camera_Middleware/sensors/vd1943/vd1943.c ****   uint16_t reg16;
 212              		.loc 1 267 1 is_stmt 0 view .LVU44
 213 0000 1FB5     		push	{r0, r1, r2, r3, r4, lr}
 214              		.cfi_def_cfa_offset 24
 215              		.cfi_offset 4, -8
 216              		.cfi_offset 14, -4
 271:Lib/Camera_Middleware/sensors/vd1943/vd1943.c ****   assert(ret == 0);
 217              		.loc 1 271 9 view .LVU45
 218 0002 4821     		movs	r1, #72
 219 0004 8368     		ldr	r3, [r0, #8]
 220 0006 0DF10E02 		add	r2, sp, #14
 267:Lib/Camera_Middleware/sensors/vd1943/vd1943.c ****   uint16_t reg16;
 221              		.loc 1 267 1 view .LVU46
 222 000a 0446     		mov	r4, r0
 271:Lib/Camera_Middleware/sensors/vd1943/vd1943.c ****   assert(ret == 0);
 223              		.loc 1 271 9 view .LVU47
 224 000c 9847     		blx	r3
 225              	.LVL13:
 272:Lib/Camera_Middleware/sensors/vd1943/vd1943.c ****   VD1943_error(ctx, "ERROR_CODE : 0x%04x\n", reg16);
 226              		.loc 1 272 3 is_stmt 1 view .LVU48
 227 000e 0146     		mov	r1, r0
 228 0010 30B1     		cbz	r0, .L14
 229              	.LBB4:
 230              	.LBI4:
 266:Lib/Camera_Middleware/sensors/vd1943/vd1943.c **** {
 231              		.loc 1 266 13 view .LVU49
 232              	.LVL14:
 233              	.LBB5:
 272:Lib/Camera_Middleware/sensors/vd1943/vd1943.c ****   VD1943_error(ctx, "ERROR_CODE : 0x%04x\n", reg16);
 234              		.loc 1 272 3 is_stmt 0 discriminator 1 view .LVU50
 235 0012 4FF48871 		mov	r1, #272
 236 0016 084B     		ldr	r3, .L15
 237 0018 084A     		ldr	r2, .L15+4
 238 001a 0948     		ldr	r0, .L15+8
 239              	.LVL15:
 272:Lib/Camera_Middleware/sensors/vd1943/vd1943.c ****   VD1943_error(ctx, "ERROR_CODE : 0x%04x\n", reg16);
 240              		.loc 1 272 3 discriminator 1 view .LVU51
 241 001c FFF7FEFF 		bl	__assert_func
 242              	.LVL16:
 243              	.L14:
 272:Lib/Camera_Middleware/sensors/vd1943/vd1943.c ****   VD1943_error(ctx, "ERROR_CODE : 0x%04x\n", reg16);
 244              		.loc 1 272 3 discriminator 1 view .LVU52
ARM GAS  C:\Users\DJESSOU\AppData\Local\Temp\cc3eovRL.s 			page 11


 245              	.LBE5:
 246              	.LBE4:
 273:Lib/Camera_Middleware/sensors/vd1943/vd1943.c **** }
 247              		.loc 1 273 3 is_stmt 1 view .LVU53
 273:Lib/Camera_Middleware/sensors/vd1943/vd1943.c **** }
 248              		.loc 1 273 3 view .LVU54
 249 0020 BDF80E30 		ldrh	r3, [sp, #14]
 250 0024 2046     		mov	r0, r4
 251              	.LVL17:
 273:Lib/Camera_Middleware/sensors/vd1943/vd1943.c **** }
 252              		.loc 1 273 3 is_stmt 0 view .LVU55
 253 0026 0093     		str	r3, [sp]
 254 0028 064A     		ldr	r2, .L15+12
 255 002a 40F21113 		movw	r3, #273
 256 002e FFF7FEFF 		bl	VD1943_log_impl
 257              	.LVL18:
 273:Lib/Camera_Middleware/sensors/vd1943/vd1943.c **** }
 258              		.loc 1 273 3 is_stmt 1 discriminator 1 view .LVU56
 274:Lib/Camera_Middleware/sensors/vd1943/vd1943.c **** 
 259              		.loc 1 274 1 is_stmt 0 view .LVU57
 260 0032 04B0     		add	sp, sp, #16
 261              		.cfi_def_cfa_offset 8
 262              		@ sp needed
 263 0034 10BD     		pop	{r4, pc}
 264              	.LVL19:
 265              	.L16:
 274:Lib/Camera_Middleware/sensors/vd1943/vd1943.c **** 
 266              		.loc 1 274 1 view .LVU58
 267 0036 00BF     		.align	2
 268              	.L15:
 269 0038 00000000 		.word	.LC1
 270 003c 00000000 		.word	__func__.34
 271 0040 09000000 		.word	.LC2
 272 0044 37000000 		.word	.LC3
 273              		.cfi_endproc
 274              	.LFE1:
 276              		.section	.rodata.VD1943_ComputeFrameLength.str1.1,"aMS",%progbits,1
 277              	.LC4:
 278 0000 56443139 		.ascii	"VD1943_ERR-%d : Error on %s:%d : %d\012\000"
 278      34335F45 
 278      52522D25 
 278      64203A20 
 278      4572726F 
 279              	.LC5:
 280 0025 56443139 		.ascii	"VD1943_DG%d-%d : frame_length to MAX(%d, %d) = %d t"
 280      34335F44 
 280      4725642D 
 280      2564203A 
 280      20667261 
 281 0058 6F207265 		.ascii	"o reach %d fps\012\000"
 281      61636820 
 281      25642066 
 281      70730A00 
 282              		.section	.text.VD1943_ComputeFrameLength,"ax",%progbits
 283              		.align	1
 284              		.syntax unified
 285              		.thumb
ARM GAS  C:\Users\DJESSOU\AppData\Local\Temp\cc3eovRL.s 			page 12


 286              		.thumb_func
 288              	VD1943_ComputeFrameLength:
 289              	.LVL20:
 290              	.LFB33:
 297:Lib/Camera_Middleware/sensors/vd1943/vd1943.c **** 
 298:Lib/Camera_Middleware/sensors/vd1943/vd1943.c **** static int VD1943_WaitState(VD1943_Ctx_t *ctx, int state)
 299:Lib/Camera_Middleware/sensors/vd1943/vd1943.c **** {
 300:Lib/Camera_Middleware/sensors/vd1943/vd1943.c ****   int ret = VD1943_PollReg8(ctx, VD1943_REG_SYSTEM_FSM_STATE, state);
 301:Lib/Camera_Middleware/sensors/vd1943/vd1943.c **** 
 302:Lib/Camera_Middleware/sensors/vd1943/vd1943.c ****   if (ret)
 303:Lib/Camera_Middleware/sensors/vd1943/vd1943.c ****     VD1943_warn(ctx, "Unable to reach state %d\n", state);
 304:Lib/Camera_Middleware/sensors/vd1943/vd1943.c ****   else
 305:Lib/Camera_Middleware/sensors/vd1943/vd1943.c ****     VD1943_dbg(ctx, 0, "reach state %d\n", state);
 306:Lib/Camera_Middleware/sensors/vd1943/vd1943.c **** 
 307:Lib/Camera_Middleware/sensors/vd1943/vd1943.c ****   return ret;
 308:Lib/Camera_Middleware/sensors/vd1943/vd1943.c **** }
 309:Lib/Camera_Middleware/sensors/vd1943/vd1943.c **** 
 310:Lib/Camera_Middleware/sensors/vd1943/vd1943.c **** static int VD1943_ApplyCmdAndWait(VD1943_Ctx_t *ctx, uint16_t addr, uint8_t cmd)
 311:Lib/Camera_Middleware/sensors/vd1943/vd1943.c **** {
 312:Lib/Camera_Middleware/sensors/vd1943/vd1943.c ****   int ret;
 313:Lib/Camera_Middleware/sensors/vd1943/vd1943.c **** 
 314:Lib/Camera_Middleware/sensors/vd1943/vd1943.c ****   VD1943_dbg(ctx, 0, "Apply cmd %d to 0x%04x\n", cmd, addr);
 315:Lib/Camera_Middleware/sensors/vd1943/vd1943.c ****   ret = ctx->write8(ctx, addr, cmd);
 316:Lib/Camera_Middleware/sensors/vd1943/vd1943.c ****   VD1943_TraceError(ctx, ret);
 317:Lib/Camera_Middleware/sensors/vd1943/vd1943.c **** 
 318:Lib/Camera_Middleware/sensors/vd1943/vd1943.c ****   ret = VD1943_PollReg8(ctx, addr, VD1943_CMD_ACK);
 319:Lib/Camera_Middleware/sensors/vd1943/vd1943.c ****   VD1943_TraceError(ctx, ret);
 320:Lib/Camera_Middleware/sensors/vd1943/vd1943.c **** 
 321:Lib/Camera_Middleware/sensors/vd1943/vd1943.c ****   return 0;
 322:Lib/Camera_Middleware/sensors/vd1943/vd1943.c **** }
 323:Lib/Camera_Middleware/sensors/vd1943/vd1943.c **** 
 324:Lib/Camera_Middleware/sensors/vd1943/vd1943.c **** static int VD1943_CheckModelId(VD1943_Ctx_t *ctx)
 325:Lib/Camera_Middleware/sensors/vd1943/vd1943.c **** {
 326:Lib/Camera_Middleware/sensors/vd1943/vd1943.c ****   uint32_t reg32;
 327:Lib/Camera_Middleware/sensors/vd1943/vd1943.c ****   uint16_t reg16;
 328:Lib/Camera_Middleware/sensors/vd1943/vd1943.c ****   int ret;
 329:Lib/Camera_Middleware/sensors/vd1943/vd1943.c **** 
 330:Lib/Camera_Middleware/sensors/vd1943/vd1943.c ****   ret = ctx->read32(ctx, VD1943_REG_MODEL_ID, &reg32);
 331:Lib/Camera_Middleware/sensors/vd1943/vd1943.c ****   VD1943_TraceError(ctx, ret);
 332:Lib/Camera_Middleware/sensors/vd1943/vd1943.c ****   VD1943_dbg(ctx, 0, "model_id = 0x%08x\n", reg32);
 333:Lib/Camera_Middleware/sensors/vd1943/vd1943.c ****   if (reg32 != VD1943_MODEL_ID_1_3 && reg32 != VD1943_MODEL_ID_1_4) {
 334:Lib/Camera_Middleware/sensors/vd1943/vd1943.c ****     VD1943_error(ctx, "Unsupported model id: 0x%08x\n", reg32);
 335:Lib/Camera_Middleware/sensors/vd1943/vd1943.c ****     return -1;
 336:Lib/Camera_Middleware/sensors/vd1943/vd1943.c ****   }
 337:Lib/Camera_Middleware/sensors/vd1943/vd1943.c **** 
 338:Lib/Camera_Middleware/sensors/vd1943/vd1943.c ****   ret = ctx->read16(ctx, VD1943_REG_ROM_REVISION, &reg16);
 339:Lib/Camera_Middleware/sensors/vd1943/vd1943.c ****   VD1943_TraceError(ctx, ret);
 340:Lib/Camera_Middleware/sensors/vd1943/vd1943.c ****   VD1943_dbg(ctx, 0, "rom revision = 0x%08x\n", reg16);
 341:Lib/Camera_Middleware/sensors/vd1943/vd1943.c ****   if (reg16 == VD1943_ROM_REVISION_13) {
 342:Lib/Camera_Middleware/sensors/vd1943/vd1943.c ****     ctx->ctx.is_fastboot = 0;
 343:Lib/Camera_Middleware/sensors/vd1943/vd1943.c ****   } else if (reg16 == VD1943_ROM_REVISION_14) {
 344:Lib/Camera_Middleware/sensors/vd1943/vd1943.c ****     ctx->ctx.is_fastboot = 1;
 345:Lib/Camera_Middleware/sensors/vd1943/vd1943.c ****   } else {
 346:Lib/Camera_Middleware/sensors/vd1943/vd1943.c ****     VD1943_error(ctx, "Unsupported rom revision: 0x%08x\n", reg16);
 347:Lib/Camera_Middleware/sensors/vd1943/vd1943.c ****     return -1;
 348:Lib/Camera_Middleware/sensors/vd1943/vd1943.c ****   }
 349:Lib/Camera_Middleware/sensors/vd1943/vd1943.c **** 
ARM GAS  C:\Users\DJESSOU\AppData\Local\Temp\cc3eovRL.s 			page 13


 350:Lib/Camera_Middleware/sensors/vd1943/vd1943.c ****   if (ctx->ctx.is_fastboot) {
 351:Lib/Camera_Middleware/sensors/vd1943/vd1943.c ****     ret = ctx->read16(ctx, VD1943_REG_CFA_SELECTION, &reg16);
 352:Lib/Camera_Middleware/sensors/vd1943/vd1943.c ****     VD1943_TraceError(ctx, ret);
 353:Lib/Camera_Middleware/sensors/vd1943/vd1943.c ****     VD1943_dbg(ctx, 0, "optical revision = 0x%04x\n", reg16);
 354:Lib/Camera_Middleware/sensors/vd1943/vd1943.c ****     ctx->ctx.is_mono = (reg16 == VD1943_OPTICAL_MONO);
 355:Lib/Camera_Middleware/sensors/vd1943/vd1943.c ****   } else {
 356:Lib/Camera_Middleware/sensors/vd1943/vd1943.c ****     /* On cut 1.3 it's not possible to differentiate versions */
 357:Lib/Camera_Middleware/sensors/vd1943/vd1943.c **** #ifdef USE_VD5943_SENSOR
 358:Lib/Camera_Middleware/sensors/vd1943/vd1943.c ****     ctx->ctx.is_mono = 1;
 359:Lib/Camera_Middleware/sensors/vd1943/vd1943.c **** #else
 360:Lib/Camera_Middleware/sensors/vd1943/vd1943.c ****     ctx->ctx.is_mono = 0;
 361:Lib/Camera_Middleware/sensors/vd1943/vd1943.c **** #endif
 362:Lib/Camera_Middleware/sensors/vd1943/vd1943.c ****   }
 363:Lib/Camera_Middleware/sensors/vd1943/vd1943.c **** 
 364:Lib/Camera_Middleware/sensors/vd1943/vd1943.c ****   return 0;
 365:Lib/Camera_Middleware/sensors/vd1943/vd1943.c **** }
 366:Lib/Camera_Middleware/sensors/vd1943/vd1943.c **** 
 367:Lib/Camera_Middleware/sensors/vd1943/vd1943.c **** static int VD1943_GoToBootState(VD1943_Ctx_t *ctx)
 368:Lib/Camera_Middleware/sensors/vd1943/vd1943.c **** {
 369:Lib/Camera_Middleware/sensors/vd1943/vd1943.c ****   int ret;
 370:Lib/Camera_Middleware/sensors/vd1943/vd1943.c **** 
 371:Lib/Camera_Middleware/sensors/vd1943/vd1943.c ****   ret = VD1943_ApplyCmdAndWait(ctx, VD1943_REG_SYSTEM_UP, VD1943_CMD_START_SENSOR);
 372:Lib/Camera_Middleware/sensors/vd1943/vd1943.c ****   if (ret)
 373:Lib/Camera_Middleware/sensors/vd1943/vd1943.c ****     return ret;
 374:Lib/Camera_Middleware/sensors/vd1943/vd1943.c **** 
 375:Lib/Camera_Middleware/sensors/vd1943/vd1943.c ****   ret = VD1943_WaitState(ctx, VD1943_BOOT);
 376:Lib/Camera_Middleware/sensors/vd1943/vd1943.c ****   if (ret)
 377:Lib/Camera_Middleware/sensors/vd1943/vd1943.c ****     return ret;
 378:Lib/Camera_Middleware/sensors/vd1943/vd1943.c **** 
 379:Lib/Camera_Middleware/sensors/vd1943/vd1943.c ****   return 0;
 380:Lib/Camera_Middleware/sensors/vd1943/vd1943.c **** }
 381:Lib/Camera_Middleware/sensors/vd1943/vd1943.c **** 
 382:Lib/Camera_Middleware/sensors/vd1943/vd1943.c **** static int VD1943_ApplyCertificate(VD1943_Ctx_t *ctx)
 383:Lib/Camera_Middleware/sensors/vd1943/vd1943.c **** {
 384:Lib/Camera_Middleware/sensors/vd1943/vd1943.c ****   struct drv_vd1943_ctx *drv_vd1943_ctx = &ctx->ctx;
 385:Lib/Camera_Middleware/sensors/vd1943/vd1943.c ****   int ret;
 386:Lib/Camera_Middleware/sensors/vd1943/vd1943.c **** 
 387:Lib/Camera_Middleware/sensors/vd1943/vd1943.c ****   if (drv_vd1943_ctx->is_mono) {
 388:Lib/Camera_Middleware/sensors/vd1943/vd1943.c ****       ret = ctx->write_array(ctx, VD1943_REG_CERTIFICATE_AREA_START_ADDR, (uint8_t *)fw_patch_13_mo
 389:Lib/Camera_Middleware/sensors/vd1943/vd1943.c ****                              sizeof(fw_patch_13_mono_cert));
 390:Lib/Camera_Middleware/sensors/vd1943/vd1943.c ****   } else {
 391:Lib/Camera_Middleware/sensors/vd1943/vd1943.c ****       ret = ctx->write_array(ctx, VD1943_REG_CERTIFICATE_AREA_START_ADDR, (uint8_t *)fw_patch_13_rg
 392:Lib/Camera_Middleware/sensors/vd1943/vd1943.c ****                              sizeof(fw_patch_13_rgbnir_cert));
 393:Lib/Camera_Middleware/sensors/vd1943/vd1943.c ****   }
 394:Lib/Camera_Middleware/sensors/vd1943/vd1943.c ****   VD1943_TraceError(ctx, ret);
 395:Lib/Camera_Middleware/sensors/vd1943/vd1943.c **** 
 396:Lib/Camera_Middleware/sensors/vd1943/vd1943.c ****   ret = VD1943_ApplyCmdAndWait(ctx, VD1943_REG_BOOT, VD1943_CMD_LOAD_CERTIFICATE);
 397:Lib/Camera_Middleware/sensors/vd1943/vd1943.c ****   if (ret)
 398:Lib/Camera_Middleware/sensors/vd1943/vd1943.c ****     return ret;
 399:Lib/Camera_Middleware/sensors/vd1943/vd1943.c **** 
 400:Lib/Camera_Middleware/sensors/vd1943/vd1943.c ****   return 0;
 401:Lib/Camera_Middleware/sensors/vd1943/vd1943.c **** }
 402:Lib/Camera_Middleware/sensors/vd1943/vd1943.c **** 
 403:Lib/Camera_Middleware/sensors/vd1943/vd1943.c **** static int VD1943_ApplyFwPatch(VD1943_Ctx_t *ctx)
 404:Lib/Camera_Middleware/sensors/vd1943/vd1943.c **** {
 405:Lib/Camera_Middleware/sensors/vd1943/vd1943.c ****   struct drv_vd1943_ctx *drv_vd1943_ctx = &ctx->ctx;
 406:Lib/Camera_Middleware/sensors/vd1943/vd1943.c ****   uint16_t reg16;
ARM GAS  C:\Users\DJESSOU\AppData\Local\Temp\cc3eovRL.s 			page 14


 407:Lib/Camera_Middleware/sensors/vd1943/vd1943.c ****   int ret;
 408:Lib/Camera_Middleware/sensors/vd1943/vd1943.c **** 
 409:Lib/Camera_Middleware/sensors/vd1943/vd1943.c ****   if (drv_vd1943_ctx->is_mono) {
 410:Lib/Camera_Middleware/sensors/vd1943/vd1943.c ****       ret = ctx->write_array(ctx, VD1943_REG_FWPATCH_START_ADDR, (uint8_t *)fw_patch_13_mono_array,
 411:Lib/Camera_Middleware/sensors/vd1943/vd1943.c ****                              sizeof(fw_patch_13_mono_array));
 412:Lib/Camera_Middleware/sensors/vd1943/vd1943.c ****   } else {
 413:Lib/Camera_Middleware/sensors/vd1943/vd1943.c ****       ret = ctx->write_array(ctx, VD1943_REG_FWPATCH_START_ADDR, (uint8_t *)fw_patch_13_rgbnir_arra
 414:Lib/Camera_Middleware/sensors/vd1943/vd1943.c ****                              sizeof(fw_patch_13_rgbnir_array));
 415:Lib/Camera_Middleware/sensors/vd1943/vd1943.c ****   }
 416:Lib/Camera_Middleware/sensors/vd1943/vd1943.c ****   VD1943_TraceError(ctx, ret);
 417:Lib/Camera_Middleware/sensors/vd1943/vd1943.c **** 
 418:Lib/Camera_Middleware/sensors/vd1943/vd1943.c ****   ret = VD1943_ApplyCmdAndWait(ctx, VD1943_REG_BOOT, VD1943_CMD_LOAD_FWP);
 419:Lib/Camera_Middleware/sensors/vd1943/vd1943.c ****   if (ret)
 420:Lib/Camera_Middleware/sensors/vd1943/vd1943.c ****     return ret;
 421:Lib/Camera_Middleware/sensors/vd1943/vd1943.c **** 
 422:Lib/Camera_Middleware/sensors/vd1943/vd1943.c ****   ret = ctx->read16(ctx, VD1943_FWPATCH_REVISION, &reg16);
 423:Lib/Camera_Middleware/sensors/vd1943/vd1943.c ****   VD1943_TraceError(ctx, ret);
 424:Lib/Camera_Middleware/sensors/vd1943/vd1943.c ****   VD1943_notice(ctx, "patch = %d.%d\n", reg16 >> 8, reg16 & 0xff);
 425:Lib/Camera_Middleware/sensors/vd1943/vd1943.c **** 
 426:Lib/Camera_Middleware/sensors/vd1943/vd1943.c ****   return 0;
 427:Lib/Camera_Middleware/sensors/vd1943/vd1943.c **** }
 428:Lib/Camera_Middleware/sensors/vd1943/vd1943.c **** 
 429:Lib/Camera_Middleware/sensors/vd1943/vd1943.c **** static int VD1943_GoToStandbyState(VD1943_Ctx_t *ctx)
 430:Lib/Camera_Middleware/sensors/vd1943/vd1943.c **** {
 431:Lib/Camera_Middleware/sensors/vd1943/vd1943.c ****   struct drv_vd1943_ctx *drv_vd1943_ctx = &ctx->ctx;
 432:Lib/Camera_Middleware/sensors/vd1943/vd1943.c ****   int ret;
 433:Lib/Camera_Middleware/sensors/vd1943/vd1943.c **** 
 434:Lib/Camera_Middleware/sensors/vd1943/vd1943.c ****   /* Need to setup input clock before boot */
 435:Lib/Camera_Middleware/sensors/vd1943/vd1943.c ****   ret = ctx->write32(ctx, VD1943_REG_EXT_CLOCK, drv_vd1943_ctx->config_save.ext_clock_freq_in_hz);
 436:Lib/Camera_Middleware/sensors/vd1943/vd1943.c ****   VD1943_TraceError(ctx, ret);
 437:Lib/Camera_Middleware/sensors/vd1943/vd1943.c **** 
 438:Lib/Camera_Middleware/sensors/vd1943/vd1943.c ****   ret = VD1943_ApplyCmdAndWait(ctx, VD1943_REG_BOOT, VD1943_CMD_END_BOOT);
 439:Lib/Camera_Middleware/sensors/vd1943/vd1943.c ****   if (ret)
 440:Lib/Camera_Middleware/sensors/vd1943/vd1943.c ****     return ret;
 441:Lib/Camera_Middleware/sensors/vd1943/vd1943.c **** 
 442:Lib/Camera_Middleware/sensors/vd1943/vd1943.c ****   ret = VD1943_WaitState(ctx, VD1943_SW_STBY);
 443:Lib/Camera_Middleware/sensors/vd1943/vd1943.c ****   if (ret)
 444:Lib/Camera_Middleware/sensors/vd1943/vd1943.c ****     return ret;
 445:Lib/Camera_Middleware/sensors/vd1943/vd1943.c **** 
 446:Lib/Camera_Middleware/sensors/vd1943/vd1943.c ****   return 0;
 447:Lib/Camera_Middleware/sensors/vd1943/vd1943.c **** }
 448:Lib/Camera_Middleware/sensors/vd1943/vd1943.c **** 
 449:Lib/Camera_Middleware/sensors/vd1943/vd1943.c **** static int VD1943_ApplyVTPatch(VD1943_Ctx_t *ctx)
 450:Lib/Camera_Middleware/sensors/vd1943/vd1943.c **** {
 451:Lib/Camera_Middleware/sensors/vd1943/vd1943.c ****   int ret;
 452:Lib/Camera_Middleware/sensors/vd1943/vd1943.c **** 
 453:Lib/Camera_Middleware/sensors/vd1943/vd1943.c ****   ret = VD1943_ApplyCmdAndWait(ctx, VD1943_REG_SW_STBY, VD1943_CMD_UPDATE_VT_RAM_START);
 454:Lib/Camera_Middleware/sensors/vd1943/vd1943.c ****   if (ret)
 455:Lib/Camera_Middleware/sensors/vd1943/vd1943.c ****     return ret;
 456:Lib/Camera_Middleware/sensors/vd1943/vd1943.c **** 
 457:Lib/Camera_Middleware/sensors/vd1943/vd1943.c ****   ret = ctx->write_array(ctx, 0x5bc0, (uint8_t *) gt_ram_pat_content, sizeof(gt_ram_pat_content));
 458:Lib/Camera_Middleware/sensors/vd1943/vd1943.c ****   VD1943_TraceError(ctx, ret);
 459:Lib/Camera_Middleware/sensors/vd1943/vd1943.c **** 
 460:Lib/Camera_Middleware/sensors/vd1943/vd1943.c ****   ret = ctx->write_array(ctx, 0x5e40, (uint8_t *) gt_ram_seq1_content, sizeof(gt_ram_seq1_content))
 461:Lib/Camera_Middleware/sensors/vd1943/vd1943.c ****   VD1943_TraceError(ctx, ret);
 462:Lib/Camera_Middleware/sensors/vd1943/vd1943.c **** 
 463:Lib/Camera_Middleware/sensors/vd1943/vd1943.c ****   ret = ctx->write_array(ctx, 0x5f80, (uint8_t *) gt_ram_seq2_content, sizeof(gt_ram_seq2_content))
ARM GAS  C:\Users\DJESSOU\AppData\Local\Temp\cc3eovRL.s 			page 15


 464:Lib/Camera_Middleware/sensors/vd1943/vd1943.c ****   VD1943_TraceError(ctx, ret);
 465:Lib/Camera_Middleware/sensors/vd1943/vd1943.c **** 
 466:Lib/Camera_Middleware/sensors/vd1943/vd1943.c ****   ret = ctx->write_array(ctx, 0x60c0, (uint8_t *) gt_ram_seq3_content, sizeof(gt_ram_seq3_content))
 467:Lib/Camera_Middleware/sensors/vd1943/vd1943.c ****   VD1943_TraceError(ctx, ret);
 468:Lib/Camera_Middleware/sensors/vd1943/vd1943.c **** 
 469:Lib/Camera_Middleware/sensors/vd1943/vd1943.c ****   ret = ctx->write_array(ctx, 0x6160, (uint8_t *) gt_ram_seq4_content, sizeof(gt_ram_seq4_content))
 470:Lib/Camera_Middleware/sensors/vd1943/vd1943.c ****   VD1943_TraceError(ctx, ret);
 471:Lib/Camera_Middleware/sensors/vd1943/vd1943.c **** 
 472:Lib/Camera_Middleware/sensors/vd1943/vd1943.c ****   ret = ctx->write_array(ctx, 0x6ac0, (uint8_t *) rd_ram_pat_content, sizeof(rd_ram_pat_content));
 473:Lib/Camera_Middleware/sensors/vd1943/vd1943.c ****   VD1943_TraceError(ctx, ret);
 474:Lib/Camera_Middleware/sensors/vd1943/vd1943.c **** 
 475:Lib/Camera_Middleware/sensors/vd1943/vd1943.c ****   ret = ctx->write_array(ctx, 0x5000, (uint8_t *) rd_ram_seq1_content, sizeof(rd_ram_seq1_content))
 476:Lib/Camera_Middleware/sensors/vd1943/vd1943.c ****   VD1943_TraceError(ctx, ret);
 477:Lib/Camera_Middleware/sensors/vd1943/vd1943.c **** 
 478:Lib/Camera_Middleware/sensors/vd1943/vd1943.c ****   ret = VD1943_ApplyCmdAndWait(ctx, VD1943_REG_SW_STBY, VD1943_CMD_UPDATE_VT_RAM_END);
 479:Lib/Camera_Middleware/sensors/vd1943/vd1943.c ****   if (ret)
 480:Lib/Camera_Middleware/sensors/vd1943/vd1943.c ****     return ret;
 481:Lib/Camera_Middleware/sensors/vd1943/vd1943.c **** 
 482:Lib/Camera_Middleware/sensors/vd1943/vd1943.c ****   return 0;
 483:Lib/Camera_Middleware/sensors/vd1943/vd1943.c **** }
 484:Lib/Camera_Middleware/sensors/vd1943/vd1943.c **** 
 485:Lib/Camera_Middleware/sensors/vd1943/vd1943.c **** static int VD1943_SetDigitalGain_RGB(VD1943_Ctx_t *ctx, unsigned int gain)
 486:Lib/Camera_Middleware/sensors/vd1943/vd1943.c **** {
 487:Lib/Camera_Middleware/sensors/vd1943/vd1943.c ****   int ret;
 488:Lib/Camera_Middleware/sensors/vd1943/vd1943.c **** 
 489:Lib/Camera_Middleware/sensors/vd1943/vd1943.c ****   ret = ctx->write16(ctx, VD1943_DIGITAL_GAIN_R(0), gain);
 490:Lib/Camera_Middleware/sensors/vd1943/vd1943.c ****   VD1943_TraceError(ctx, ret);
 491:Lib/Camera_Middleware/sensors/vd1943/vd1943.c ****   ret = ctx->write16(ctx, VD1943_DIGITAL_GAIN_G(0), gain);
 492:Lib/Camera_Middleware/sensors/vd1943/vd1943.c ****   VD1943_TraceError(ctx, ret);
 493:Lib/Camera_Middleware/sensors/vd1943/vd1943.c ****   ret = ctx->write16(ctx, VD1943_DIGITAL_GAIN_B(0), gain);
 494:Lib/Camera_Middleware/sensors/vd1943/vd1943.c ****   VD1943_TraceError(ctx, ret);
 495:Lib/Camera_Middleware/sensors/vd1943/vd1943.c **** 
 496:Lib/Camera_Middleware/sensors/vd1943/vd1943.c ****   return 0;
 497:Lib/Camera_Middleware/sensors/vd1943/vd1943.c **** }
 498:Lib/Camera_Middleware/sensors/vd1943/vd1943.c **** 
 499:Lib/Camera_Middleware/sensors/vd1943/vd1943.c **** static int VD1943_SetDigitalGain_IR(VD1943_Ctx_t *ctx, unsigned int gain)
 500:Lib/Camera_Middleware/sensors/vd1943/vd1943.c **** {
 501:Lib/Camera_Middleware/sensors/vd1943/vd1943.c ****   int ret;
 502:Lib/Camera_Middleware/sensors/vd1943/vd1943.c **** 
 503:Lib/Camera_Middleware/sensors/vd1943/vd1943.c ****   ret = ctx->write16(ctx, VD1943_DIGITAL_GAIN_IR(0), gain);
 504:Lib/Camera_Middleware/sensors/vd1943/vd1943.c ****   VD1943_TraceError(ctx, ret);
 505:Lib/Camera_Middleware/sensors/vd1943/vd1943.c **** 
 506:Lib/Camera_Middleware/sensors/vd1943/vd1943.c ****   return 0;
 507:Lib/Camera_Middleware/sensors/vd1943/vd1943.c **** }
 508:Lib/Camera_Middleware/sensors/vd1943/vd1943.c **** 
 509:Lib/Camera_Middleware/sensors/vd1943/vd1943.c **** static int VD1943_SetDigitalGain_RGBNIR(VD1943_Ctx_t *ctx, unsigned int gain)
 510:Lib/Camera_Middleware/sensors/vd1943/vd1943.c **** {
 511:Lib/Camera_Middleware/sensors/vd1943/vd1943.c ****   int ret;
 512:Lib/Camera_Middleware/sensors/vd1943/vd1943.c **** 
 513:Lib/Camera_Middleware/sensors/vd1943/vd1943.c ****   ret = VD1943_SetDigitalGain_RGB(ctx, gain);
 514:Lib/Camera_Middleware/sensors/vd1943/vd1943.c ****   if (ret)
 515:Lib/Camera_Middleware/sensors/vd1943/vd1943.c ****     return ret;
 516:Lib/Camera_Middleware/sensors/vd1943/vd1943.c ****   ret = VD1943_SetDigitalGain_IR(ctx, gain);
 517:Lib/Camera_Middleware/sensors/vd1943/vd1943.c ****   if (ret)
 518:Lib/Camera_Middleware/sensors/vd1943/vd1943.c ****     return ret;
 519:Lib/Camera_Middleware/sensors/vd1943/vd1943.c **** 
 520:Lib/Camera_Middleware/sensors/vd1943/vd1943.c ****   return 0;
ARM GAS  C:\Users\DJESSOU\AppData\Local\Temp\cc3eovRL.s 			page 16


 521:Lib/Camera_Middleware/sensors/vd1943/vd1943.c **** }
 522:Lib/Camera_Middleware/sensors/vd1943/vd1943.c **** 
 523:Lib/Camera_Middleware/sensors/vd1943/vd1943.c **** static int VD1943_GetExpoCommon(VD1943_Ctx_t *ctx, unsigned int *expo_in_us)
 524:Lib/Camera_Middleware/sensors/vd1943/vd1943.c **** {
 525:Lib/Camera_Middleware/sensors/vd1943/vd1943.c ****   uint16_t reg16;
 526:Lib/Camera_Middleware/sensors/vd1943/vd1943.c ****   int ret;
 527:Lib/Camera_Middleware/sensors/vd1943/vd1943.c **** 
 528:Lib/Camera_Middleware/sensors/vd1943/vd1943.c ****   ret = ctx->read16(ctx, VD1943_REG_INTEGRATION_TIME_PRIMARY(0), &reg16);
 529:Lib/Camera_Middleware/sensors/vd1943/vd1943.c ****   VD1943_TraceError(ctx, ret);
 530:Lib/Camera_Middleware/sensors/vd1943/vd1943.c ****   *expo_in_us = (reg16 * VD1943_LINE_TIME_IN_NS) / 1000;
 531:Lib/Camera_Middleware/sensors/vd1943/vd1943.c **** 
 532:Lib/Camera_Middleware/sensors/vd1943/vd1943.c ****   return 0;
 533:Lib/Camera_Middleware/sensors/vd1943/vd1943.c **** }
 534:Lib/Camera_Middleware/sensors/vd1943/vd1943.c **** 
 535:Lib/Camera_Middleware/sensors/vd1943/vd1943.c **** static int VD1943_SetExpo_GS(VD1943_Ctx_t *ctx, unsigned int expo_in_us)
 536:Lib/Camera_Middleware/sensors/vd1943/vd1943.c **** {
 537:Lib/Camera_Middleware/sensors/vd1943/vd1943.c ****   unsigned int expo_in_line = (expo_in_us * 1000 + VD1943_LINE_TIME_IN_NS - 1) / VD1943_LINE_TIME_I
 538:Lib/Camera_Middleware/sensors/vd1943/vd1943.c ****   int ret;
 539:Lib/Camera_Middleware/sensors/vd1943/vd1943.c **** 
 540:Lib/Camera_Middleware/sensors/vd1943/vd1943.c ****   if (expo_in_line < 4)
 541:Lib/Camera_Middleware/sensors/vd1943/vd1943.c ****     return -1;
 542:Lib/Camera_Middleware/sensors/vd1943/vd1943.c **** 
 543:Lib/Camera_Middleware/sensors/vd1943/vd1943.c ****   ret = ctx->write16(ctx, VD1943_REG_INTEGRATION_TIME_PRIMARY(0), expo_in_line);
 544:Lib/Camera_Middleware/sensors/vd1943/vd1943.c ****   VD1943_TraceError(ctx, ret);
 545:Lib/Camera_Middleware/sensors/vd1943/vd1943.c **** 
 546:Lib/Camera_Middleware/sensors/vd1943/vd1943.c ****   return 0;
 547:Lib/Camera_Middleware/sensors/vd1943/vd1943.c **** }
 548:Lib/Camera_Middleware/sensors/vd1943/vd1943.c **** 
 549:Lib/Camera_Middleware/sensors/vd1943/vd1943.c **** static int VD1943_SetExpoSplit_GS(VD1943_Ctx_t *ctx, unsigned int expo_in_us)
 550:Lib/Camera_Middleware/sensors/vd1943/vd1943.c **** {
 551:Lib/Camera_Middleware/sensors/vd1943/vd1943.c ****   unsigned int expo_in_line = (expo_in_us * 1000 + VD1943_LINE_TIME_IN_NS - 1) / VD1943_LINE_TIME_I
 552:Lib/Camera_Middleware/sensors/vd1943/vd1943.c ****   int ret;
 553:Lib/Camera_Middleware/sensors/vd1943/vd1943.c **** 
 554:Lib/Camera_Middleware/sensors/vd1943/vd1943.c ****   if (expo_in_line < 4)
 555:Lib/Camera_Middleware/sensors/vd1943/vd1943.c ****     return -1;
 556:Lib/Camera_Middleware/sensors/vd1943/vd1943.c **** 
 557:Lib/Camera_Middleware/sensors/vd1943/vd1943.c ****   ret = ctx->write16(ctx, VD1943_REG_INTEGRATION_TIME_PRIMARY(0), expo_in_line);
 558:Lib/Camera_Middleware/sensors/vd1943/vd1943.c ****   VD1943_TraceError(ctx, ret);
 559:Lib/Camera_Middleware/sensors/vd1943/vd1943.c **** 
 560:Lib/Camera_Middleware/sensors/vd1943/vd1943.c ****   ret = ctx->write16(ctx, VD1943_REG_INTEGRATION_TIME_IR(0), expo_in_line);
 561:Lib/Camera_Middleware/sensors/vd1943/vd1943.c ****   VD1943_TraceError(ctx, ret);
 562:Lib/Camera_Middleware/sensors/vd1943/vd1943.c **** 
 563:Lib/Camera_Middleware/sensors/vd1943/vd1943.c ****   return 0;
 564:Lib/Camera_Middleware/sensors/vd1943/vd1943.c **** }
 565:Lib/Camera_Middleware/sensors/vd1943/vd1943.c **** 
 566:Lib/Camera_Middleware/sensors/vd1943/vd1943.c **** static int VD1943_GetExpo_GS(VD1943_Ctx_t *ctx, unsigned int *expo_in_us)
 567:Lib/Camera_Middleware/sensors/vd1943/vd1943.c **** {
 568:Lib/Camera_Middleware/sensors/vd1943/vd1943.c ****   return VD1943_GetExpoCommon(ctx, expo_in_us);
 569:Lib/Camera_Middleware/sensors/vd1943/vd1943.c **** }
 570:Lib/Camera_Middleware/sensors/vd1943/vd1943.c **** 
 571:Lib/Camera_Middleware/sensors/vd1943/vd1943.c **** static int VD1943_SetExpo_RS(VD1943_Ctx_t *ctx, unsigned int expo_in_us)
 572:Lib/Camera_Middleware/sensors/vd1943/vd1943.c **** {
 573:Lib/Camera_Middleware/sensors/vd1943/vd1943.c ****   unsigned int expo_in_line = (expo_in_us * 1000 + VD1943_LINE_TIME_IN_NS - 1) / VD1943_LINE_TIME_I
 574:Lib/Camera_Middleware/sensors/vd1943/vd1943.c ****   int ret;
 575:Lib/Camera_Middleware/sensors/vd1943/vd1943.c **** 
 576:Lib/Camera_Middleware/sensors/vd1943/vd1943.c ****   if (expo_in_line < 2)
 577:Lib/Camera_Middleware/sensors/vd1943/vd1943.c ****     return -1;
ARM GAS  C:\Users\DJESSOU\AppData\Local\Temp\cc3eovRL.s 			page 17


 578:Lib/Camera_Middleware/sensors/vd1943/vd1943.c **** 
 579:Lib/Camera_Middleware/sensors/vd1943/vd1943.c ****   ret = ctx->write16(ctx, VD1943_REG_INTEGRATION_TIME_PRIMARY(0), expo_in_line);
 580:Lib/Camera_Middleware/sensors/vd1943/vd1943.c ****   VD1943_TraceError(ctx, ret);
 581:Lib/Camera_Middleware/sensors/vd1943/vd1943.c **** 
 582:Lib/Camera_Middleware/sensors/vd1943/vd1943.c ****   return 0;
 583:Lib/Camera_Middleware/sensors/vd1943/vd1943.c **** }
 584:Lib/Camera_Middleware/sensors/vd1943/vd1943.c **** 
 585:Lib/Camera_Middleware/sensors/vd1943/vd1943.c **** static int VD1943_GetExpo_RS(VD1943_Ctx_t *ctx, unsigned int *expo_in_us)
 586:Lib/Camera_Middleware/sensors/vd1943/vd1943.c **** {
 587:Lib/Camera_Middleware/sensors/vd1943/vd1943.c ****   return VD1943_GetExpoCommon(ctx, expo_in_us);
 588:Lib/Camera_Middleware/sensors/vd1943/vd1943.c **** }
 589:Lib/Camera_Middleware/sensors/vd1943/vd1943.c **** 
 590:Lib/Camera_Middleware/sensors/vd1943/vd1943.c **** static int VD1943_SetExpo_RS_HDR(VD1943_Ctx_t *ctx, unsigned int expo_in_us)
 591:Lib/Camera_Middleware/sensors/vd1943/vd1943.c **** {
 592:Lib/Camera_Middleware/sensors/vd1943/vd1943.c ****   /* we use a short expo ratio of 1/20 */
 593:Lib/Camera_Middleware/sensors/vd1943/vd1943.c ****   unsigned int expo_short_in_line = (expo_in_us * 50 + VD1943_LINE_TIME_IN_NS - 1) / VD1943_LINE_TI
 594:Lib/Camera_Middleware/sensors/vd1943/vd1943.c ****   int ret;
 595:Lib/Camera_Middleware/sensors/vd1943/vd1943.c **** 
 596:Lib/Camera_Middleware/sensors/vd1943/vd1943.c ****   ret = VD1943_SetExpo_RS(ctx, expo_in_us);
 597:Lib/Camera_Middleware/sensors/vd1943/vd1943.c ****   if (ret)
 598:Lib/Camera_Middleware/sensors/vd1943/vd1943.c ****     return ret;
 599:Lib/Camera_Middleware/sensors/vd1943/vd1943.c **** 
 600:Lib/Camera_Middleware/sensors/vd1943/vd1943.c ****   expo_short_in_line = MAX(2, expo_short_in_line);
 601:Lib/Camera_Middleware/sensors/vd1943/vd1943.c ****   ret = ctx->write16(ctx, VD1943_REG_INTEGRATION_TIME_SHORT(0), expo_short_in_line);
 602:Lib/Camera_Middleware/sensors/vd1943/vd1943.c ****   VD1943_TraceError(ctx, ret);
 603:Lib/Camera_Middleware/sensors/vd1943/vd1943.c **** 
 604:Lib/Camera_Middleware/sensors/vd1943/vd1943.c ****   return 0;
 605:Lib/Camera_Middleware/sensors/vd1943/vd1943.c **** }
 606:Lib/Camera_Middleware/sensors/vd1943/vd1943.c **** 
 607:Lib/Camera_Middleware/sensors/vd1943/vd1943.c **** static int VD1943_SetBayerType_RGB(VD1943_Ctx_t *ctx)
 608:Lib/Camera_Middleware/sensors/vd1943/vd1943.c **** {
 609:Lib/Camera_Middleware/sensors/vd1943/vd1943.c ****   struct drv_vd1943_ctx *drv_vd1943_ctx = &ctx->ctx;
 610:Lib/Camera_Middleware/sensors/vd1943/vd1943.c **** 
 611:Lib/Camera_Middleware/sensors/vd1943/vd1943.c ****   switch (drv_vd1943_ctx->config_save.flip_mirror_mode) {
 612:Lib/Camera_Middleware/sensors/vd1943/vd1943.c ****   case VD1943_MIRROR_FLIP_NONE:
 613:Lib/Camera_Middleware/sensors/vd1943/vd1943.c ****     ctx->bayer = VD1943_BAYER_GBRG;
 614:Lib/Camera_Middleware/sensors/vd1943/vd1943.c ****     break;
 615:Lib/Camera_Middleware/sensors/vd1943/vd1943.c ****   case VD1943_FLIP:
 616:Lib/Camera_Middleware/sensors/vd1943/vd1943.c ****     ctx->bayer = VD1943_BAYER_RGGB;
 617:Lib/Camera_Middleware/sensors/vd1943/vd1943.c ****     break;
 618:Lib/Camera_Middleware/sensors/vd1943/vd1943.c ****   case VD1943_MIRROR:
 619:Lib/Camera_Middleware/sensors/vd1943/vd1943.c ****     ctx->bayer = VD1943_BAYER_BGGR;
 620:Lib/Camera_Middleware/sensors/vd1943/vd1943.c ****     break;
 621:Lib/Camera_Middleware/sensors/vd1943/vd1943.c ****   case VD1943_MIRROR_FLIP:
 622:Lib/Camera_Middleware/sensors/vd1943/vd1943.c ****     ctx->bayer = VD1943_BAYER_GBRG;
 623:Lib/Camera_Middleware/sensors/vd1943/vd1943.c ****     break;
 624:Lib/Camera_Middleware/sensors/vd1943/vd1943.c ****   default:
 625:Lib/Camera_Middleware/sensors/vd1943/vd1943.c ****     assert(0);
 626:Lib/Camera_Middleware/sensors/vd1943/vd1943.c ****   }
 627:Lib/Camera_Middleware/sensors/vd1943/vd1943.c **** 
 628:Lib/Camera_Middleware/sensors/vd1943/vd1943.c ****   return 0;
 629:Lib/Camera_Middleware/sensors/vd1943/vd1943.c **** }
 630:Lib/Camera_Middleware/sensors/vd1943/vd1943.c **** 
 631:Lib/Camera_Middleware/sensors/vd1943/vd1943.c **** static int VD1943_SetBayerType_RGBNIR(VD1943_Ctx_t *ctx)
 632:Lib/Camera_Middleware/sensors/vd1943/vd1943.c **** {
 633:Lib/Camera_Middleware/sensors/vd1943/vd1943.c ****   struct drv_vd1943_ctx *drv_vd1943_ctx = &ctx->ctx;
 634:Lib/Camera_Middleware/sensors/vd1943/vd1943.c **** 
ARM GAS  C:\Users\DJESSOU\AppData\Local\Temp\cc3eovRL.s 			page 18


 635:Lib/Camera_Middleware/sensors/vd1943/vd1943.c ****   switch (drv_vd1943_ctx->config_save.flip_mirror_mode) {
 636:Lib/Camera_Middleware/sensors/vd1943/vd1943.c ****   case VD1943_MIRROR_FLIP_NONE:
 637:Lib/Camera_Middleware/sensors/vd1943/vd1943.c ****     ctx->bayer = VD1943_BAYER_RGBNIR;
 638:Lib/Camera_Middleware/sensors/vd1943/vd1943.c ****     break;
 639:Lib/Camera_Middleware/sensors/vd1943/vd1943.c ****   case VD1943_FLIP:
 640:Lib/Camera_Middleware/sensors/vd1943/vd1943.c ****     ctx->bayer = VD1943_BAYER_RGBNIR_FLIP;
 641:Lib/Camera_Middleware/sensors/vd1943/vd1943.c ****     break;
 642:Lib/Camera_Middleware/sensors/vd1943/vd1943.c ****   case VD1943_MIRROR:
 643:Lib/Camera_Middleware/sensors/vd1943/vd1943.c ****     ctx->bayer = VD1943_BAYER_RGBNIR_MIRROR;
 644:Lib/Camera_Middleware/sensors/vd1943/vd1943.c ****     break;
 645:Lib/Camera_Middleware/sensors/vd1943/vd1943.c ****   case VD1943_MIRROR_FLIP:
 646:Lib/Camera_Middleware/sensors/vd1943/vd1943.c ****     ctx->bayer = VD1943_BAYER_RGBNIR_FLIP_MIRROR;
 647:Lib/Camera_Middleware/sensors/vd1943/vd1943.c ****     break;
 648:Lib/Camera_Middleware/sensors/vd1943/vd1943.c ****   default:
 649:Lib/Camera_Middleware/sensors/vd1943/vd1943.c ****     assert(0);
 650:Lib/Camera_Middleware/sensors/vd1943/vd1943.c ****   }
 651:Lib/Camera_Middleware/sensors/vd1943/vd1943.c **** 
 652:Lib/Camera_Middleware/sensors/vd1943/vd1943.c ****   return 0;
 653:Lib/Camera_Middleware/sensors/vd1943/vd1943.c **** }
 654:Lib/Camera_Middleware/sensors/vd1943/vd1943.c **** 
 655:Lib/Camera_Middleware/sensors/vd1943/vd1943.c **** static int VD1943_SetBayerType(VD1943_Ctx_t *ctx)
 656:Lib/Camera_Middleware/sensors/vd1943/vd1943.c **** {
 657:Lib/Camera_Middleware/sensors/vd1943/vd1943.c ****   struct drv_vd1943_ctx *drv_vd1943_ctx = &ctx->ctx;
 658:Lib/Camera_Middleware/sensors/vd1943/vd1943.c **** 
 659:Lib/Camera_Middleware/sensors/vd1943/vd1943.c ****   if (drv_vd1943_ctx->is_mono)
 660:Lib/Camera_Middleware/sensors/vd1943/vd1943.c ****     // Monochrom variant, force Bayer None (= Mono)  
 661:Lib/Camera_Middleware/sensors/vd1943/vd1943.c ****     return VD1943_BAYER_NONE;
 662:Lib/Camera_Middleware/sensors/vd1943/vd1943.c **** 
 663:Lib/Camera_Middleware/sensors/vd1943/vd1943.c ****   switch (drv_vd1943_ctx->config_save.image_processing_mode) {
 664:Lib/Camera_Middleware/sensors/vd1943/vd1943.c ****   case VD1943_GS_SS1_RGB_8:
 665:Lib/Camera_Middleware/sensors/vd1943/vd1943.c ****   case VD1943_GS_SS1_RGB_10:
 666:Lib/Camera_Middleware/sensors/vd1943/vd1943.c ****   case VD1943_RS_SDR_RGB_8:
 667:Lib/Camera_Middleware/sensors/vd1943/vd1943.c ****   case VD1943_RS_SDR_RGB_10:
 668:Lib/Camera_Middleware/sensors/vd1943/vd1943.c ****   case VD1943_RS_SDR_RGB_12:
 669:Lib/Camera_Middleware/sensors/vd1943/vd1943.c ****   case VD1943_RS_HDR_RGB_10:
 670:Lib/Camera_Middleware/sensors/vd1943/vd1943.c ****   case VD1943_RS_HDR_RGB_12:
 671:Lib/Camera_Middleware/sensors/vd1943/vd1943.c ****     return VD1943_SetBayerType_RGB(ctx);
 672:Lib/Camera_Middleware/sensors/vd1943/vd1943.c ****     break;
 673:Lib/Camera_Middleware/sensors/vd1943/vd1943.c ****   case VD1943_GS_SS1_NATIVE_8:
 674:Lib/Camera_Middleware/sensors/vd1943/vd1943.c ****   case VD1943_GS_SS1_NATIVE_10:
 675:Lib/Camera_Middleware/sensors/vd1943/vd1943.c ****   case VD1943_GS_SS1_SPLIT_NATIVE_8:
 676:Lib/Camera_Middleware/sensors/vd1943/vd1943.c ****   case VD1943_GS_SS1_SPLIT_NATIVE_10:
 677:Lib/Camera_Middleware/sensors/vd1943/vd1943.c ****   case VD1943_RS_SDR_NATIVE_8:
 678:Lib/Camera_Middleware/sensors/vd1943/vd1943.c ****   case VD1943_RS_SDR_NATIVE_10:
 679:Lib/Camera_Middleware/sensors/vd1943/vd1943.c ****   case VD1943_RS_SDR_NATIVE_12:
 680:Lib/Camera_Middleware/sensors/vd1943/vd1943.c ****   case VD1943_RS_HDR_NATIVE_10:
 681:Lib/Camera_Middleware/sensors/vd1943/vd1943.c ****   case VD1943_RS_HDR_NATIVE_12:
 682:Lib/Camera_Middleware/sensors/vd1943/vd1943.c ****     return VD1943_SetBayerType_RGBNIR(ctx);
 683:Lib/Camera_Middleware/sensors/vd1943/vd1943.c ****     break;
 684:Lib/Camera_Middleware/sensors/vd1943/vd1943.c ****   case VD1943_GS_SS1_IR_8:
 685:Lib/Camera_Middleware/sensors/vd1943/vd1943.c ****   case VD1943_GS_SS1_IR_10:
 686:Lib/Camera_Middleware/sensors/vd1943/vd1943.c ****   case VD1943_GS_SS1_SPLIT_IR_8:
 687:Lib/Camera_Middleware/sensors/vd1943/vd1943.c ****   case VD1943_GS_SS1_SPLIT_IR_10:
 688:Lib/Camera_Middleware/sensors/vd1943/vd1943.c ****   case VD1943_GS_SS2_MONO_8:
 689:Lib/Camera_Middleware/sensors/vd1943/vd1943.c ****   case VD1943_GS_SS2_MONO_10:
 690:Lib/Camera_Middleware/sensors/vd1943/vd1943.c ****   case VD1943_GS_SS4_MONO_8:
 691:Lib/Camera_Middleware/sensors/vd1943/vd1943.c ****   case VD1943_GS_SS4_MONO_10:
ARM GAS  C:\Users\DJESSOU\AppData\Local\Temp\cc3eovRL.s 			page 19


 692:Lib/Camera_Middleware/sensors/vd1943/vd1943.c ****   case VD1943_GS_SS32_MONO_8:
 693:Lib/Camera_Middleware/sensors/vd1943/vd1943.c ****   case VD1943_GS_SS32_MONO_10:
 694:Lib/Camera_Middleware/sensors/vd1943/vd1943.c ****     return VD1943_BAYER_NONE;
 695:Lib/Camera_Middleware/sensors/vd1943/vd1943.c ****   default:
 696:Lib/Camera_Middleware/sensors/vd1943/vd1943.c ****     assert(0);
 697:Lib/Camera_Middleware/sensors/vd1943/vd1943.c ****   }
 698:Lib/Camera_Middleware/sensors/vd1943/vd1943.c **** 
 699:Lib/Camera_Middleware/sensors/vd1943/vd1943.c ****   return 0;
 700:Lib/Camera_Middleware/sensors/vd1943/vd1943.c **** }
 701:Lib/Camera_Middleware/sensors/vd1943/vd1943.c **** 
 702:Lib/Camera_Middleware/sensors/vd1943/vd1943.c **** static int VD1943_GetSubSamplingFactor(VD1943_Ctx_t *ctx, int *ss_factor)
 703:Lib/Camera_Middleware/sensors/vd1943/vd1943.c **** {
 704:Lib/Camera_Middleware/sensors/vd1943/vd1943.c ****   struct drv_vd1943_ctx *drv_vd1943_ctx = &ctx->ctx;
 705:Lib/Camera_Middleware/sensors/vd1943/vd1943.c **** 
 706:Lib/Camera_Middleware/sensors/vd1943/vd1943.c ****   switch (drv_vd1943_ctx->config_save.image_processing_mode) {
 707:Lib/Camera_Middleware/sensors/vd1943/vd1943.c ****   case VD1943_GS_SS32_MONO_8:
 708:Lib/Camera_Middleware/sensors/vd1943/vd1943.c ****   case VD1943_GS_SS32_MONO_10:
 709:Lib/Camera_Middleware/sensors/vd1943/vd1943.c ****     *ss_factor = 32;
 710:Lib/Camera_Middleware/sensors/vd1943/vd1943.c ****     break;
 711:Lib/Camera_Middleware/sensors/vd1943/vd1943.c ****   case VD1943_GS_SS2_MONO_8:
 712:Lib/Camera_Middleware/sensors/vd1943/vd1943.c ****   case VD1943_GS_SS2_MONO_10:
 713:Lib/Camera_Middleware/sensors/vd1943/vd1943.c ****     *ss_factor = 2;
 714:Lib/Camera_Middleware/sensors/vd1943/vd1943.c ****     break;
 715:Lib/Camera_Middleware/sensors/vd1943/vd1943.c ****   case VD1943_GS_SS4_MONO_8:
 716:Lib/Camera_Middleware/sensors/vd1943/vd1943.c ****   case VD1943_GS_SS4_MONO_10:
 717:Lib/Camera_Middleware/sensors/vd1943/vd1943.c ****     *ss_factor = 4;
 718:Lib/Camera_Middleware/sensors/vd1943/vd1943.c ****     break;
 719:Lib/Camera_Middleware/sensors/vd1943/vd1943.c ****   default:
 720:Lib/Camera_Middleware/sensors/vd1943/vd1943.c ****     *ss_factor = 1;
 721:Lib/Camera_Middleware/sensors/vd1943/vd1943.c ****   }
 722:Lib/Camera_Middleware/sensors/vd1943/vd1943.c **** 
 723:Lib/Camera_Middleware/sensors/vd1943/vd1943.c ****   return 0;
 724:Lib/Camera_Middleware/sensors/vd1943/vd1943.c **** }
 725:Lib/Camera_Middleware/sensors/vd1943/vd1943.c **** 
 726:Lib/Camera_Middleware/sensors/vd1943/vd1943.c **** static int VD1943_Boot(VD1943_Ctx_t *ctx)
 727:Lib/Camera_Middleware/sensors/vd1943/vd1943.c **** {
 728:Lib/Camera_Middleware/sensors/vd1943/vd1943.c ****   int ret;
 729:Lib/Camera_Middleware/sensors/vd1943/vd1943.c **** 
 730:Lib/Camera_Middleware/sensors/vd1943/vd1943.c ****   ret = VD1943_WaitState(ctx, VD1943_SYSTEM_UP);
 731:Lib/Camera_Middleware/sensors/vd1943/vd1943.c ****   if (ret)
 732:Lib/Camera_Middleware/sensors/vd1943/vd1943.c ****     return ret;
 733:Lib/Camera_Middleware/sensors/vd1943/vd1943.c **** 
 734:Lib/Camera_Middleware/sensors/vd1943/vd1943.c ****   ret = VD1943_CheckModelId(ctx);
 735:Lib/Camera_Middleware/sensors/vd1943/vd1943.c ****   if (ret)
 736:Lib/Camera_Middleware/sensors/vd1943/vd1943.c ****     return ret;
 737:Lib/Camera_Middleware/sensors/vd1943/vd1943.c **** 
 738:Lib/Camera_Middleware/sensors/vd1943/vd1943.c ****   ret = VD1943_GoToBootState(ctx);
 739:Lib/Camera_Middleware/sensors/vd1943/vd1943.c ****   if (ret)
 740:Lib/Camera_Middleware/sensors/vd1943/vd1943.c ****     return ret;
 741:Lib/Camera_Middleware/sensors/vd1943/vd1943.c **** 
 742:Lib/Camera_Middleware/sensors/vd1943/vd1943.c ****   if (!ctx->ctx.is_fastboot) {
 743:Lib/Camera_Middleware/sensors/vd1943/vd1943.c ****     ret = VD1943_ApplyCertificate(ctx);
 744:Lib/Camera_Middleware/sensors/vd1943/vd1943.c ****     if (ret)
 745:Lib/Camera_Middleware/sensors/vd1943/vd1943.c ****       return ret;
 746:Lib/Camera_Middleware/sensors/vd1943/vd1943.c **** 
 747:Lib/Camera_Middleware/sensors/vd1943/vd1943.c ****     ret = VD1943_ApplyFwPatch(ctx);
 748:Lib/Camera_Middleware/sensors/vd1943/vd1943.c ****     if (ret)
ARM GAS  C:\Users\DJESSOU\AppData\Local\Temp\cc3eovRL.s 			page 20


 749:Lib/Camera_Middleware/sensors/vd1943/vd1943.c ****       return ret;
 750:Lib/Camera_Middleware/sensors/vd1943/vd1943.c ****   }
 751:Lib/Camera_Middleware/sensors/vd1943/vd1943.c **** 
 752:Lib/Camera_Middleware/sensors/vd1943/vd1943.c ****   ret = VD1943_GoToStandbyState(ctx);
 753:Lib/Camera_Middleware/sensors/vd1943/vd1943.c ****   if (ret)
 754:Lib/Camera_Middleware/sensors/vd1943/vd1943.c ****     return ret;
 755:Lib/Camera_Middleware/sensors/vd1943/vd1943.c **** 
 756:Lib/Camera_Middleware/sensors/vd1943/vd1943.c ****   if (!ctx->ctx.is_fastboot) {
 757:Lib/Camera_Middleware/sensors/vd1943/vd1943.c ****     ret = VD1943_ApplyVTPatch(ctx);
 758:Lib/Camera_Middleware/sensors/vd1943/vd1943.c ****     if (ret)
 759:Lib/Camera_Middleware/sensors/vd1943/vd1943.c ****       return ret;
 760:Lib/Camera_Middleware/sensors/vd1943/vd1943.c ****   }
 761:Lib/Camera_Middleware/sensors/vd1943/vd1943.c **** 
 762:Lib/Camera_Middleware/sensors/vd1943/vd1943.c ****   ret = VD1943_SetBayerType(ctx);
 763:Lib/Camera_Middleware/sensors/vd1943/vd1943.c ****   if (ret)
 764:Lib/Camera_Middleware/sensors/vd1943/vd1943.c ****     return ret;
 765:Lib/Camera_Middleware/sensors/vd1943/vd1943.c **** 
 766:Lib/Camera_Middleware/sensors/vd1943/vd1943.c ****   return 0;
 767:Lib/Camera_Middleware/sensors/vd1943/vd1943.c **** }
 768:Lib/Camera_Middleware/sensors/vd1943/vd1943.c **** 
 769:Lib/Camera_Middleware/sensors/vd1943/vd1943.c **** static uint8_t VD1943_GetLaneNb(VD1943_OutItf_Config_t *out_itf)
 770:Lib/Camera_Middleware/sensors/vd1943/vd1943.c **** {
 771:Lib/Camera_Middleware/sensors/vd1943/vd1943.c ****   switch (out_itf->datalane_nb) {
 772:Lib/Camera_Middleware/sensors/vd1943/vd1943.c ****   case 2:
 773:Lib/Camera_Middleware/sensors/vd1943/vd1943.c ****     return VD1943_LANE_NB_SEL_2;
 774:Lib/Camera_Middleware/sensors/vd1943/vd1943.c ****     break;
 775:Lib/Camera_Middleware/sensors/vd1943/vd1943.c ****   case 4:
 776:Lib/Camera_Middleware/sensors/vd1943/vd1943.c ****     return VD1943_LANE_NB_SEL_4;
 777:Lib/Camera_Middleware/sensors/vd1943/vd1943.c ****     break;
 778:Lib/Camera_Middleware/sensors/vd1943/vd1943.c ****   default:
 779:Lib/Camera_Middleware/sensors/vd1943/vd1943.c ****     assert(0);
 780:Lib/Camera_Middleware/sensors/vd1943/vd1943.c ****   }
 781:Lib/Camera_Middleware/sensors/vd1943/vd1943.c **** 
 782:Lib/Camera_Middleware/sensors/vd1943/vd1943.c ****   return VD1943_LANE_NB_SEL_2;
 783:Lib/Camera_Middleware/sensors/vd1943/vd1943.c **** }
 784:Lib/Camera_Middleware/sensors/vd1943/vd1943.c **** 
 785:Lib/Camera_Middleware/sensors/vd1943/vd1943.c **** static uint8_t VD1943_GetLogicalPhysicalMapping(VD1943_OutItf_Config_t *out_itf)
 786:Lib/Camera_Middleware/sensors/vd1943/vd1943.c **** {
 787:Lib/Camera_Middleware/sensors/vd1943/vd1943.c ****   return (out_itf->logic_lane_mapping[0] << 0) |
 788:Lib/Camera_Middleware/sensors/vd1943/vd1943.c ****          (out_itf->logic_lane_mapping[1] << 2) |
 789:Lib/Camera_Middleware/sensors/vd1943/vd1943.c ****          (out_itf->logic_lane_mapping[2] << 4) |
 790:Lib/Camera_Middleware/sensors/vd1943/vd1943.c ****          (out_itf->logic_lane_mapping[3] << 6);
 791:Lib/Camera_Middleware/sensors/vd1943/vd1943.c **** }
 792:Lib/Camera_Middleware/sensors/vd1943/vd1943.c **** 
 793:Lib/Camera_Middleware/sensors/vd1943/vd1943.c **** static uint8_t VD1943_GetLaneSwap(VD1943_OutItf_Config_t *out_itf)
 794:Lib/Camera_Middleware/sensors/vd1943/vd1943.c **** {
 795:Lib/Camera_Middleware/sensors/vd1943/vd1943.c ****   return (out_itf->physical_lane_swap_enable[0] << 0) |
 796:Lib/Camera_Middleware/sensors/vd1943/vd1943.c ****          (out_itf->physical_lane_swap_enable[1] << 1) |
 797:Lib/Camera_Middleware/sensors/vd1943/vd1943.c ****          (out_itf->physical_lane_swap_enable[2] << 2) |
 798:Lib/Camera_Middleware/sensors/vd1943/vd1943.c ****          (out_itf->physical_lane_swap_enable[3] << 3) |
 799:Lib/Camera_Middleware/sensors/vd1943/vd1943.c ****          (out_itf->clock_lane_swap_enable << 4);
 800:Lib/Camera_Middleware/sensors/vd1943/vd1943.c **** }
 801:Lib/Camera_Middleware/sensors/vd1943/vd1943.c **** 
 802:Lib/Camera_Middleware/sensors/vd1943/vd1943.c **** static int VD1943_SetupOutputDataType(VD1943_Ctx_t *ctx)
 803:Lib/Camera_Middleware/sensors/vd1943/vd1943.c **** {
 804:Lib/Camera_Middleware/sensors/vd1943/vd1943.c ****   uint8_t dt;
 805:Lib/Camera_Middleware/sensors/vd1943/vd1943.c ****   int ret;
ARM GAS  C:\Users\DJESSOU\AppData\Local\Temp\cc3eovRL.s 			page 21


 806:Lib/Camera_Middleware/sensors/vd1943/vd1943.c **** 
 807:Lib/Camera_Middleware/sensors/vd1943/vd1943.c ****   switch (ctx->ctx.config_save.image_processing_mode) {
 808:Lib/Camera_Middleware/sensors/vd1943/vd1943.c ****   case VD1943_GS_SS1_NATIVE_8:
 809:Lib/Camera_Middleware/sensors/vd1943/vd1943.c ****   case VD1943_GS_SS1_SPLIT_NATIVE_8:
 810:Lib/Camera_Middleware/sensors/vd1943/vd1943.c ****   case VD1943_GS_SS1_RGB_8:
 811:Lib/Camera_Middleware/sensors/vd1943/vd1943.c ****   case VD1943_GS_SS1_IR_8:
 812:Lib/Camera_Middleware/sensors/vd1943/vd1943.c ****   case VD1943_GS_SS1_SPLIT_IR_8:
 813:Lib/Camera_Middleware/sensors/vd1943/vd1943.c ****   case VD1943_GS_SS2_MONO_8:
 814:Lib/Camera_Middleware/sensors/vd1943/vd1943.c ****   case VD1943_GS_SS4_MONO_8:
 815:Lib/Camera_Middleware/sensors/vd1943/vd1943.c ****   case VD1943_GS_SS32_MONO_8:
 816:Lib/Camera_Middleware/sensors/vd1943/vd1943.c ****   case VD1943_RS_SDR_NATIVE_8:
 817:Lib/Camera_Middleware/sensors/vd1943/vd1943.c ****   case VD1943_RS_SDR_RGB_8:
 818:Lib/Camera_Middleware/sensors/vd1943/vd1943.c ****     dt = 0x2a;
 819:Lib/Camera_Middleware/sensors/vd1943/vd1943.c ****     break;
 820:Lib/Camera_Middleware/sensors/vd1943/vd1943.c ****   case VD1943_GS_SS1_NATIVE_10:
 821:Lib/Camera_Middleware/sensors/vd1943/vd1943.c ****   case VD1943_GS_SS1_SPLIT_NATIVE_10:
 822:Lib/Camera_Middleware/sensors/vd1943/vd1943.c ****   case VD1943_GS_SS1_RGB_10:
 823:Lib/Camera_Middleware/sensors/vd1943/vd1943.c ****   case VD1943_GS_SS1_IR_10:
 824:Lib/Camera_Middleware/sensors/vd1943/vd1943.c ****   case VD1943_GS_SS1_SPLIT_IR_10:
 825:Lib/Camera_Middleware/sensors/vd1943/vd1943.c ****   case VD1943_GS_SS2_MONO_10:
 826:Lib/Camera_Middleware/sensors/vd1943/vd1943.c ****   case VD1943_GS_SS4_MONO_10:
 827:Lib/Camera_Middleware/sensors/vd1943/vd1943.c ****   case VD1943_GS_SS32_MONO_10:
 828:Lib/Camera_Middleware/sensors/vd1943/vd1943.c ****   case VD1943_RS_SDR_NATIVE_10:
 829:Lib/Camera_Middleware/sensors/vd1943/vd1943.c ****   case VD1943_RS_SDR_RGB_10:
 830:Lib/Camera_Middleware/sensors/vd1943/vd1943.c ****   case VD1943_RS_HDR_NATIVE_10:
 831:Lib/Camera_Middleware/sensors/vd1943/vd1943.c ****   case VD1943_RS_HDR_RGB_10:
 832:Lib/Camera_Middleware/sensors/vd1943/vd1943.c ****     dt = 0x2b;
 833:Lib/Camera_Middleware/sensors/vd1943/vd1943.c ****     break;
 834:Lib/Camera_Middleware/sensors/vd1943/vd1943.c ****   case VD1943_RS_SDR_NATIVE_12:
 835:Lib/Camera_Middleware/sensors/vd1943/vd1943.c ****   case VD1943_RS_SDR_RGB_12:
 836:Lib/Camera_Middleware/sensors/vd1943/vd1943.c ****   case VD1943_RS_HDR_NATIVE_12:
 837:Lib/Camera_Middleware/sensors/vd1943/vd1943.c ****   case VD1943_RS_HDR_RGB_12:
 838:Lib/Camera_Middleware/sensors/vd1943/vd1943.c ****     dt = 0x2c;
 839:Lib/Camera_Middleware/sensors/vd1943/vd1943.c ****     break;
 840:Lib/Camera_Middleware/sensors/vd1943/vd1943.c ****   default:
 841:Lib/Camera_Middleware/sensors/vd1943/vd1943.c ****     assert(0);
 842:Lib/Camera_Middleware/sensors/vd1943/vd1943.c ****     return -1;
 843:Lib/Camera_Middleware/sensors/vd1943/vd1943.c ****   }
 844:Lib/Camera_Middleware/sensors/vd1943/vd1943.c **** 
 845:Lib/Camera_Middleware/sensors/vd1943/vd1943.c ****   ret = ctx->write8(ctx, VD1943_REG_ROI_A_DT, dt);
 846:Lib/Camera_Middleware/sensors/vd1943/vd1943.c ****   VD1943_TraceError(ctx, ret);
 847:Lib/Camera_Middleware/sensors/vd1943/vd1943.c **** 
 848:Lib/Camera_Middleware/sensors/vd1943/vd1943.c ****   return ret;
 849:Lib/Camera_Middleware/sensors/vd1943/vd1943.c **** }
 850:Lib/Camera_Middleware/sensors/vd1943/vd1943.c **** 
 851:Lib/Camera_Middleware/sensors/vd1943/vd1943.c **** static int VD1943_SetupOutput(VD1943_Ctx_t *ctx)
 852:Lib/Camera_Middleware/sensors/vd1943/vd1943.c **** {
 853:Lib/Camera_Middleware/sensors/vd1943/vd1943.c ****   VD1943_OutItf_Config_t *out_itf = &ctx->ctx.config_save.out_itf;
 854:Lib/Camera_Middleware/sensors/vd1943/vd1943.c ****   int ret;
 855:Lib/Camera_Middleware/sensors/vd1943/vd1943.c **** 
 856:Lib/Camera_Middleware/sensors/vd1943/vd1943.c ****   /* setup sensor mode */
 857:Lib/Camera_Middleware/sensors/vd1943/vd1943.c ****   ret = ctx->write32(ctx, VD1943_REG_SENSOR_CONFIGURATION(0), ctx->ctx.config_save.image_processing
 858:Lib/Camera_Middleware/sensors/vd1943/vd1943.c ****   VD1943_TraceError(ctx, ret);
 859:Lib/Camera_Middleware/sensors/vd1943/vd1943.c **** 
 860:Lib/Camera_Middleware/sensors/vd1943/vd1943.c ****   /* Disable CFA_BLENDER when used in RGB. Note that this approach consider that
 861:Lib/Camera_Middleware/sensors/vd1943/vd1943.c ****      when RGB is in use there's a pure RGB lens - which is not systematic.
 862:Lib/Camera_Middleware/sensors/vd1943/vd1943.c ****      Proper approach (TODO) would be to make it a controllable setting. */
ARM GAS  C:\Users\DJESSOU\AppData\Local\Temp\cc3eovRL.s 			page 22


 863:Lib/Camera_Middleware/sensors/vd1943/vd1943.c ****   if (ctx->bayer == VD1943_BAYER_GBRG || ctx->bayer == VD1943_BAYER_RGGB ||
 864:Lib/Camera_Middleware/sensors/vd1943/vd1943.c ****       ctx->bayer == VD1943_BAYER_BGGR || ctx->bayer == VD1943_BAYER_GBRG)
 865:Lib/Camera_Middleware/sensors/vd1943/vd1943.c ****   {
 866:Lib/Camera_Middleware/sensors/vd1943/vd1943.c ****     ret = ctx->write8(ctx, VD1943_REG_CFA_BLENDER_ALPHA_CTRL, VD1943_CFA_BLENDER_ZERO);
 867:Lib/Camera_Middleware/sensors/vd1943/vd1943.c ****   } else {
 868:Lib/Camera_Middleware/sensors/vd1943/vd1943.c ****     ret = ctx->write8(ctx, VD1943_REG_CFA_BLENDER_ALPHA_CTRL, VD1943_CFA_BLENDER_NORMAL);
 869:Lib/Camera_Middleware/sensors/vd1943/vd1943.c ****   }
 870:Lib/Camera_Middleware/sensors/vd1943/vd1943.c ****   VD1943_TraceError(ctx, ret);
 871:Lib/Camera_Middleware/sensors/vd1943/vd1943.c **** 
 872:Lib/Camera_Middleware/sensors/vd1943/vd1943.c ****   /* csi-2 output itf */
 873:Lib/Camera_Middleware/sensors/vd1943/vd1943.c ****    /* lane number */
 874:Lib/Camera_Middleware/sensors/vd1943/vd1943.c ****   ret = ctx->write8(ctx, VD1943_REG_LANE_NB_SEL, VD1943_GetLaneNb(out_itf));
 875:Lib/Camera_Middleware/sensors/vd1943/vd1943.c ****   VD1943_TraceError(ctx, ret);
 876:Lib/Camera_Middleware/sensors/vd1943/vd1943.c ****   /* logical / physical mapping */
 877:Lib/Camera_Middleware/sensors/vd1943/vd1943.c ****   ret = ctx->write8(ctx, VD1943_REG_OIF_LANE_PHY_MAP, VD1943_GetLogicalPhysicalMapping(out_itf));
 878:Lib/Camera_Middleware/sensors/vd1943/vd1943.c ****   VD1943_TraceError(ctx, ret);
 879:Lib/Camera_Middleware/sensors/vd1943/vd1943.c ****   /* lane swap */
 880:Lib/Camera_Middleware/sensors/vd1943/vd1943.c ****   ret = ctx->write8(ctx, VD1943_REG_OIF_LANE_PHY_SWAP, VD1943_GetLaneSwap(out_itf));
 881:Lib/Camera_Middleware/sensors/vd1943/vd1943.c ****   VD1943_TraceError(ctx, ret);
 882:Lib/Camera_Middleware/sensors/vd1943/vd1943.c ****    /* data rate */
 883:Lib/Camera_Middleware/sensors/vd1943/vd1943.c ****   ret = ctx->write32(ctx, VD1943_REG_MIPI_DATA_RATE, out_itf->data_rate_in_mps);
 884:Lib/Camera_Middleware/sensors/vd1943/vd1943.c ****   VD1943_TraceError(ctx, ret);
 885:Lib/Camera_Middleware/sensors/vd1943/vd1943.c ****    /* data type / RAW8*/
 886:Lib/Camera_Middleware/sensors/vd1943/vd1943.c ****   ret = VD1943_SetupOutputDataType(ctx);
 887:Lib/Camera_Middleware/sensors/vd1943/vd1943.c ****   if (ret)
 888:Lib/Camera_Middleware/sensors/vd1943/vd1943.c ****     return ret;
 889:Lib/Camera_Middleware/sensors/vd1943/vd1943.c ****    /* Force ISL Datatype to 0x12 (not the default value on Cut1.4) */
 890:Lib/Camera_Middleware/sensors/vd1943/vd1943.c ****   ret = ctx->write8(ctx, VD1943_REG_OIF_DT_ISL, 0x12);
 891:Lib/Camera_Middleware/sensors/vd1943/vd1943.c ****   VD1943_TraceError(ctx, ret);
 892:Lib/Camera_Middleware/sensors/vd1943/vd1943.c **** 
 893:Lib/Camera_Middleware/sensors/vd1943/vd1943.c ****   return 0;
 894:Lib/Camera_Middleware/sensors/vd1943/vd1943.c **** }
 895:Lib/Camera_Middleware/sensors/vd1943/vd1943.c **** 
 896:Lib/Camera_Middleware/sensors/vd1943/vd1943.c **** static int VD1943_SetupSize(VD1943_Ctx_t *ctx)
 897:Lib/Camera_Middleware/sensors/vd1943/vd1943.c **** {
 898:Lib/Camera_Middleware/sensors/vd1943/vd1943.c ****   const struct vd1943_rect *rect = &vd1943_supported_modes[ctx->ctx.config_save.resolution];
 899:Lib/Camera_Middleware/sensors/vd1943/vd1943.c ****   int ss_factor;
 900:Lib/Camera_Middleware/sensors/vd1943/vd1943.c ****   int ret;
 901:Lib/Camera_Middleware/sensors/vd1943/vd1943.c **** 
 902:Lib/Camera_Middleware/sensors/vd1943/vd1943.c ****   assert(rect->left % 4 == 0);
 903:Lib/Camera_Middleware/sensors/vd1943/vd1943.c ****   assert(rect->top % 4 == 0);
 904:Lib/Camera_Middleware/sensors/vd1943/vd1943.c ****   assert(rect->width % 4 == 0);
 905:Lib/Camera_Middleware/sensors/vd1943/vd1943.c ****   assert(rect->height % 4 == 0);
 906:Lib/Camera_Middleware/sensors/vd1943/vd1943.c **** 
 907:Lib/Camera_Middleware/sensors/vd1943/vd1943.c ****   ret = VD1943_GetSubSamplingFactor(ctx, &ss_factor);
 908:Lib/Camera_Middleware/sensors/vd1943/vd1943.c ****   if (ret)
 909:Lib/Camera_Middleware/sensors/vd1943/vd1943.c ****     return ret;
 910:Lib/Camera_Middleware/sensors/vd1943/vd1943.c **** 
 911:Lib/Camera_Middleware/sensors/vd1943/vd1943.c ****   ret = ctx->write16(ctx, VD1943_REG_ROI_A_WIDTH_OFFSET, rect->left);
 912:Lib/Camera_Middleware/sensors/vd1943/vd1943.c ****   VD1943_TraceError(ctx, ret);
 913:Lib/Camera_Middleware/sensors/vd1943/vd1943.c ****   ret = ctx->write16(ctx, VD1943_REG_ROI_A_HEIGHT_OFFSET, rect->top);
 914:Lib/Camera_Middleware/sensors/vd1943/vd1943.c ****   VD1943_TraceError(ctx, ret);
 915:Lib/Camera_Middleware/sensors/vd1943/vd1943.c ****   ret = ctx->write16(ctx, VD1943_REG_ROI_A_WIDTH, rect->width / ss_factor);
 916:Lib/Camera_Middleware/sensors/vd1943/vd1943.c ****   VD1943_TraceError(ctx, ret);
 917:Lib/Camera_Middleware/sensors/vd1943/vd1943.c ****   ret = ctx->write16(ctx, VD1943_REG_ROI_A_HEIGHT, rect->height / ss_factor);
 918:Lib/Camera_Middleware/sensors/vd1943/vd1943.c ****   VD1943_TraceError(ctx, ret);
 919:Lib/Camera_Middleware/sensors/vd1943/vd1943.c **** 
ARM GAS  C:\Users\DJESSOU\AppData\Local\Temp\cc3eovRL.s 			page 23


 920:Lib/Camera_Middleware/sensors/vd1943/vd1943.c ****   return 0;
 921:Lib/Camera_Middleware/sensors/vd1943/vd1943.c **** }
 922:Lib/Camera_Middleware/sensors/vd1943/vd1943.c **** 
 923:Lib/Camera_Middleware/sensors/vd1943/vd1943.c **** static int VD1943_SetupLineLen(VD1943_Ctx_t *ctx)
 924:Lib/Camera_Middleware/sensors/vd1943/vd1943.c **** {
 925:Lib/Camera_Middleware/sensors/vd1943/vd1943.c ****   uint8_t gs_mode;
 926:Lib/Camera_Middleware/sensors/vd1943/vd1943.c ****   uint32_t system_pll_clk;
 927:Lib/Camera_Middleware/sensors/vd1943/vd1943.c ****   uint32_t vt_pixelrate;
 928:Lib/Camera_Middleware/sensors/vd1943/vd1943.c ****   unsigned int bpp;
 929:Lib/Camera_Middleware/sensors/vd1943/vd1943.c ****   uint32_t mipi_bandwidth;
 930:Lib/Camera_Middleware/sensors/vd1943/vd1943.c ****   uint32_t mipi_pixelrate;
 931:Lib/Camera_Middleware/sensors/vd1943/vd1943.c ****   uint16_t line_length;
 932:Lib/Camera_Middleware/sensors/vd1943/vd1943.c ****   uint32_t mipi_transition_cst_in_px;
 933:Lib/Camera_Middleware/sensors/vd1943/vd1943.c ****   uint32_t mipi_interpacket_delay_in_px;
 934:Lib/Camera_Middleware/sensors/vd1943/vd1943.c ****   uint64_t mipi_virtual_linelength = 0;
 935:Lib/Camera_Middleware/sensors/vd1943/vd1943.c ****   int ret;
 936:Lib/Camera_Middleware/sensors/vd1943/vd1943.c **** 
 937:Lib/Camera_Middleware/sensors/vd1943/vd1943.c ****   /* Shutter mode directly impact linelength */
 938:Lib/Camera_Middleware/sensors/vd1943/vd1943.c ****   switch (ctx->ctx.config_save.image_processing_mode)
 939:Lib/Camera_Middleware/sensors/vd1943/vd1943.c ****   {
 940:Lib/Camera_Middleware/sensors/vd1943/vd1943.c ****   case VD1943_GS_SS1_NATIVE_8:
 941:Lib/Camera_Middleware/sensors/vd1943/vd1943.c ****   case VD1943_GS_SS1_NATIVE_10:
 942:Lib/Camera_Middleware/sensors/vd1943/vd1943.c ****   case VD1943_GS_SS1_SPLIT_NATIVE_8:
 943:Lib/Camera_Middleware/sensors/vd1943/vd1943.c ****   case VD1943_GS_SS1_SPLIT_NATIVE_10:
 944:Lib/Camera_Middleware/sensors/vd1943/vd1943.c ****   case VD1943_GS_SS1_SPLIT_IR_8:
 945:Lib/Camera_Middleware/sensors/vd1943/vd1943.c ****   case VD1943_GS_SS1_SPLIT_IR_10:
 946:Lib/Camera_Middleware/sensors/vd1943/vd1943.c ****   case VD1943_GS_SS1_RGB_8:
 947:Lib/Camera_Middleware/sensors/vd1943/vd1943.c ****   case VD1943_GS_SS1_RGB_10:
 948:Lib/Camera_Middleware/sensors/vd1943/vd1943.c ****   case VD1943_GS_SS1_IR_8:
 949:Lib/Camera_Middleware/sensors/vd1943/vd1943.c ****   case VD1943_GS_SS1_IR_10:
 950:Lib/Camera_Middleware/sensors/vd1943/vd1943.c ****   case VD1943_GS_SS2_MONO_8:
 951:Lib/Camera_Middleware/sensors/vd1943/vd1943.c ****   case VD1943_GS_SS2_MONO_10:
 952:Lib/Camera_Middleware/sensors/vd1943/vd1943.c ****   case VD1943_GS_SS4_MONO_8:
 953:Lib/Camera_Middleware/sensors/vd1943/vd1943.c ****   case VD1943_GS_SS4_MONO_10:
 954:Lib/Camera_Middleware/sensors/vd1943/vd1943.c ****   case VD1943_GS_SS32_MONO_8:
 955:Lib/Camera_Middleware/sensors/vd1943/vd1943.c ****   case VD1943_GS_SS32_MONO_10:
 956:Lib/Camera_Middleware/sensors/vd1943/vd1943.c ****     gs_mode = 1;
 957:Lib/Camera_Middleware/sensors/vd1943/vd1943.c ****     break;
 958:Lib/Camera_Middleware/sensors/vd1943/vd1943.c ****   case VD1943_RS_SDR_NATIVE_8:
 959:Lib/Camera_Middleware/sensors/vd1943/vd1943.c ****   case VD1943_RS_SDR_NATIVE_10:
 960:Lib/Camera_Middleware/sensors/vd1943/vd1943.c ****   case VD1943_RS_SDR_NATIVE_12:
 961:Lib/Camera_Middleware/sensors/vd1943/vd1943.c ****   case VD1943_RS_SDR_RGB_8:
 962:Lib/Camera_Middleware/sensors/vd1943/vd1943.c ****   case VD1943_RS_SDR_RGB_10:
 963:Lib/Camera_Middleware/sensors/vd1943/vd1943.c ****   case VD1943_RS_SDR_RGB_12:
 964:Lib/Camera_Middleware/sensors/vd1943/vd1943.c ****   case VD1943_RS_HDR_NATIVE_10:
 965:Lib/Camera_Middleware/sensors/vd1943/vd1943.c ****   case VD1943_RS_HDR_NATIVE_12:
 966:Lib/Camera_Middleware/sensors/vd1943/vd1943.c ****   case VD1943_RS_HDR_RGB_10:
 967:Lib/Camera_Middleware/sensors/vd1943/vd1943.c ****   case VD1943_RS_HDR_RGB_12:
 968:Lib/Camera_Middleware/sensors/vd1943/vd1943.c ****     gs_mode = 0;
 969:Lib/Camera_Middleware/sensors/vd1943/vd1943.c ****     break;
 970:Lib/Camera_Middleware/sensors/vd1943/vd1943.c ****   default:
 971:Lib/Camera_Middleware/sensors/vd1943/vd1943.c ****     return -1;
 972:Lib/Camera_Middleware/sensors/vd1943/vd1943.c ****   }
 973:Lib/Camera_Middleware/sensors/vd1943/vd1943.c **** 
 974:Lib/Camera_Middleware/sensors/vd1943/vd1943.c ****   ret = ctx->read32(ctx, VD1943_REG_SYSTEM_PLL_CLK, &system_pll_clk);
 975:Lib/Camera_Middleware/sensors/vd1943/vd1943.c ****   VD1943_TraceError(ctx, ret);
 976:Lib/Camera_Middleware/sensors/vd1943/vd1943.c ****   VD1943_dbg(ctx, 0, "system pll clock = %d hz\n", system_pll_clk);
ARM GAS  C:\Users\DJESSOU\AppData\Local\Temp\cc3eovRL.s 			page 24


 977:Lib/Camera_Middleware/sensors/vd1943/vd1943.c **** 
 978:Lib/Camera_Middleware/sensors/vd1943/vd1943.c ****   /* With 2 rows of ADC used in GS mode, the VT pixel rate is doubled */
 979:Lib/Camera_Middleware/sensors/vd1943/vd1943.c ****   if (gs_mode)
 980:Lib/Camera_Middleware/sensors/vd1943/vd1943.c ****   {
 981:Lib/Camera_Middleware/sensors/vd1943/vd1943.c ****     vt_pixelrate = system_pll_clk / 2;
 982:Lib/Camera_Middleware/sensors/vd1943/vd1943.c ****   }
 983:Lib/Camera_Middleware/sensors/vd1943/vd1943.c ****   else
 984:Lib/Camera_Middleware/sensors/vd1943/vd1943.c ****   {
 985:Lib/Camera_Middleware/sensors/vd1943/vd1943.c ****     vt_pixelrate = system_pll_clk / 4;
 986:Lib/Camera_Middleware/sensors/vd1943/vd1943.c ****   }
 987:Lib/Camera_Middleware/sensors/vd1943/vd1943.c **** 
 988:Lib/Camera_Middleware/sensors/vd1943/vd1943.c ****   /* Compute the max pixelrate on the mipi link based on pixel depth */
 989:Lib/Camera_Middleware/sensors/vd1943/vd1943.c ****   ret = VD1943_GetPixelDepth(ctx, &bpp);
 990:Lib/Camera_Middleware/sensors/vd1943/vd1943.c ****   if (ret)
 991:Lib/Camera_Middleware/sensors/vd1943/vd1943.c ****     return ret;
 992:Lib/Camera_Middleware/sensors/vd1943/vd1943.c **** 
 993:Lib/Camera_Middleware/sensors/vd1943/vd1943.c ****   mipi_bandwidth = ctx->ctx.config_save.out_itf.data_rate_in_mps * ctx->ctx.config_save.out_itf.dat
 994:Lib/Camera_Middleware/sensors/vd1943/vd1943.c ****   mipi_pixelrate = mipi_bandwidth / bpp;
 995:Lib/Camera_Middleware/sensors/vd1943/vd1943.c **** 
 996:Lib/Camera_Middleware/sensors/vd1943/vd1943.c ****   /* Compute the mins linelength given the mipi bandwidth */
 997:Lib/Camera_Middleware/sensors/vd1943/vd1943.c ****   if (mipi_pixelrate < vt_pixelrate)
 998:Lib/Camera_Middleware/sensors/vd1943/vd1943.c ****   {
 999:Lib/Camera_Middleware/sensors/vd1943/vd1943.c ****     /*
1000:Lib/Camera_Middleware/sensors/vd1943/vd1943.c ****      * Compute a virtual (mipi-equivalent) linelength that could fit
1001:Lib/Camera_Middleware/sensors/vd1943/vd1943.c ****      * with MIPI limitation (MIPI link being the bottleneck here).
1002:Lib/Camera_Middleware/sensors/vd1943/vd1943.c ****      */
1003:Lib/Camera_Middleware/sensors/vd1943/vd1943.c ****     mipi_transition_cst_in_px = mipi_pixelrate / 1000000 / 4;
1004:Lib/Camera_Middleware/sensors/vd1943/vd1943.c ****     mipi_interpacket_delay_in_px = 30 * 8 * ctx->ctx.config_save.out_itf.datalane_nb / bpp;
1005:Lib/Camera_Middleware/sensors/vd1943/vd1943.c ****     mipi_virtual_linelength = mipi_transition_cst_in_px +
1006:Lib/Camera_Middleware/sensors/vd1943/vd1943.c ****                               vd1943_supported_modes[ctx->ctx.config_save.resolution].width +
1007:Lib/Camera_Middleware/sensors/vd1943/vd1943.c ****                               mipi_interpacket_delay_in_px;
1008:Lib/Camera_Middleware/sensors/vd1943/vd1943.c ****     mipi_virtual_linelength = mipi_virtual_linelength * vt_pixelrate / mipi_pixelrate;
1009:Lib/Camera_Middleware/sensors/vd1943/vd1943.c ****   }
1010:Lib/Camera_Middleware/sensors/vd1943/vd1943.c ****   line_length = MAX(VD1943_LINE_LENGTH_MIN, (uint16_t)mipi_virtual_linelength);
1011:Lib/Camera_Middleware/sensors/vd1943/vd1943.c **** 
1012:Lib/Camera_Middleware/sensors/vd1943/vd1943.c ****   /* Ensure linelength is a multiple of 4 */
1013:Lib/Camera_Middleware/sensors/vd1943/vd1943.c ****   line_length = ((line_length + 3) / 4) * 4;
1014:Lib/Camera_Middleware/sensors/vd1943/vd1943.c **** 
1015:Lib/Camera_Middleware/sensors/vd1943/vd1943.c ****   VD1943_dbg(ctx, 0, "line_length = %d\n", line_length);
1016:Lib/Camera_Middleware/sensors/vd1943/vd1943.c **** 
1017:Lib/Camera_Middleware/sensors/vd1943/vd1943.c ****   ret = ctx->write16(ctx, VD1943_REG_LINE_LENGTH, line_length);
1018:Lib/Camera_Middleware/sensors/vd1943/vd1943.c ****   VD1943_TraceError(ctx, ret);
1019:Lib/Camera_Middleware/sensors/vd1943/vd1943.c **** 
1020:Lib/Camera_Middleware/sensors/vd1943/vd1943.c ****   return 0;
1021:Lib/Camera_Middleware/sensors/vd1943/vd1943.c **** }
1022:Lib/Camera_Middleware/sensors/vd1943/vd1943.c **** 
1023:Lib/Camera_Middleware/sensors/vd1943/vd1943.c **** static int VD1943_ComputeFrameLength(VD1943_Ctx_t *ctx, int fps, uint16_t *frame_length)
1024:Lib/Camera_Middleware/sensors/vd1943/vd1943.c **** {
 291              		.loc 1 1024 1 is_stmt 1 view -0
 292              		.cfi_startproc
 293              		@ args = 0, pretend = 0, frame = 8
 294              		@ frame_needed = 0, uses_anonymous_args = 0
1025:Lib/Camera_Middleware/sensors/vd1943/vd1943.c ****   uint8_t gs_mode;
 295              		.loc 1 1025 3 view .LVU60
1026:Lib/Camera_Middleware/sensors/vd1943/vd1943.c ****   struct drv_vd1943_ctx *drv_vd1943_ctx = &ctx->ctx;
 296              		.loc 1 1026 3 view .LVU61
1027:Lib/Camera_Middleware/sensors/vd1943/vd1943.c ****   int min_frame_length;
ARM GAS  C:\Users\DJESSOU\AppData\Local\Temp\cc3eovRL.s 			page 25


 297              		.loc 1 1027 3 view .LVU62
1028:Lib/Camera_Middleware/sensors/vd1943/vd1943.c ****   int req_frame_length;
 298              		.loc 1 1028 3 view .LVU63
1029:Lib/Camera_Middleware/sensors/vd1943/vd1943.c ****   uint32_t system_pll_clk;
 299              		.loc 1 1029 3 view .LVU64
1030:Lib/Camera_Middleware/sensors/vd1943/vd1943.c ****   uint16_t line_length;
 300              		.loc 1 1030 3 view .LVU65
1031:Lib/Camera_Middleware/sensors/vd1943/vd1943.c ****   uint16_t height;
 301              		.loc 1 1031 3 view .LVU66
1032:Lib/Camera_Middleware/sensors/vd1943/vd1943.c ****   int ret;
 302              		.loc 1 1032 3 view .LVU67
1033:Lib/Camera_Middleware/sensors/vd1943/vd1943.c **** 
1034:Lib/Camera_Middleware/sensors/vd1943/vd1943.c ****   /* Shutter mode directly impact linelength */
1035:Lib/Camera_Middleware/sensors/vd1943/vd1943.c ****   switch (ctx->ctx.config_save.image_processing_mode)
 303              		.loc 1 1035 3 view .LVU68
1024:Lib/Camera_Middleware/sensors/vd1943/vd1943.c ****   uint8_t gs_mode;
 304              		.loc 1 1024 1 is_stmt 0 view .LVU69
 305 0000 2DE9F041 		push	{r4, r5, r6, r7, r8, lr}
 306              		.cfi_def_cfa_offset 24
 307              		.cfi_offset 4, -24
 308              		.cfi_offset 5, -20
 309              		.cfi_offset 6, -16
 310              		.cfi_offset 7, -12
 311              		.cfi_offset 8, -8
 312              		.cfi_offset 14, -4
 313              		.loc 1 1035 31 view .LVU70
 314 0004 90F84430 		ldrb	r3, [r0, #68]	@ zero_extendqisi2
1024:Lib/Camera_Middleware/sensors/vd1943/vd1943.c ****   uint8_t gs_mode;
 315              		.loc 1 1024 1 view .LVU71
 316 0008 0546     		mov	r5, r0
 317              		.loc 1 1035 3 view .LVU72
 318 000a 122B     		cmp	r3, #18
1024:Lib/Camera_Middleware/sensors/vd1943/vd1943.c ****   uint8_t gs_mode;
 319              		.loc 1 1024 1 view .LVU73
 320 000c 0E46     		mov	r6, r1
 321 000e 1746     		mov	r7, r2
 322 0010 88B0     		sub	sp, sp, #32
 323              		.cfi_def_cfa_offset 56
 324              		.loc 1 1035 3 view .LVU74
 325 0012 07D8     		bhi	.L18
 326 0014 082B     		cmp	r3, #8
 327 0016 02D8     		bhi	.L28
 328 0018 013B     		subs	r3, r3, #1
 329 001a 052B     		cmp	r3, #5
 330 001c 5FD8     		bhi	.L30
 331              	.L28:
1036:Lib/Camera_Middleware/sensors/vd1943/vd1943.c ****   {
1037:Lib/Camera_Middleware/sensors/vd1943/vd1943.c ****   case VD1943_GS_SS1_NATIVE_8:
1038:Lib/Camera_Middleware/sensors/vd1943/vd1943.c ****   case VD1943_GS_SS1_NATIVE_10:
1039:Lib/Camera_Middleware/sensors/vd1943/vd1943.c ****   case VD1943_GS_SS1_SPLIT_NATIVE_8:
1040:Lib/Camera_Middleware/sensors/vd1943/vd1943.c ****   case VD1943_GS_SS1_SPLIT_NATIVE_10:
1041:Lib/Camera_Middleware/sensors/vd1943/vd1943.c ****   case VD1943_GS_SS1_SPLIT_IR_8:
1042:Lib/Camera_Middleware/sensors/vd1943/vd1943.c ****   case VD1943_GS_SS1_SPLIT_IR_10:
1043:Lib/Camera_Middleware/sensors/vd1943/vd1943.c ****   case VD1943_GS_SS1_RGB_8:
1044:Lib/Camera_Middleware/sensors/vd1943/vd1943.c ****   case VD1943_GS_SS1_RGB_10:
1045:Lib/Camera_Middleware/sensors/vd1943/vd1943.c ****   case VD1943_GS_SS1_IR_8:
1046:Lib/Camera_Middleware/sensors/vd1943/vd1943.c ****   case VD1943_GS_SS1_IR_10:
ARM GAS  C:\Users\DJESSOU\AppData\Local\Temp\cc3eovRL.s 			page 26


1047:Lib/Camera_Middleware/sensors/vd1943/vd1943.c ****   case VD1943_GS_SS2_MONO_8:
1048:Lib/Camera_Middleware/sensors/vd1943/vd1943.c ****   case VD1943_GS_SS2_MONO_10:
1049:Lib/Camera_Middleware/sensors/vd1943/vd1943.c ****   case VD1943_GS_SS4_MONO_8:
1050:Lib/Camera_Middleware/sensors/vd1943/vd1943.c ****   case VD1943_GS_SS4_MONO_10:
1051:Lib/Camera_Middleware/sensors/vd1943/vd1943.c ****   case VD1943_GS_SS32_MONO_8:
1052:Lib/Camera_Middleware/sensors/vd1943/vd1943.c ****   case VD1943_GS_SS32_MONO_10:
1053:Lib/Camera_Middleware/sensors/vd1943/vd1943.c ****     gs_mode = 1;
 332              		.loc 1 1053 13 view .LVU75
 333 001e 4FF00108 		mov	r8, #1
 334 0022 04E0     		b	.L19
 335              	.L18:
1035:Lib/Camera_Middleware/sensors/vd1943/vd1943.c ****   {
 336              		.loc 1 1035 3 view .LVU76
 337 0024 1A3B     		subs	r3, r3, #26
 338 0026 092B     		cmp	r3, #9
 339 0028 59D8     		bhi	.L30
 340 002a 4FF00008 		mov	r8, #0
 341              	.L19:
 342              	.LVL21:
1054:Lib/Camera_Middleware/sensors/vd1943/vd1943.c ****     break;
1055:Lib/Camera_Middleware/sensors/vd1943/vd1943.c ****   case VD1943_RS_SDR_NATIVE_8:
1056:Lib/Camera_Middleware/sensors/vd1943/vd1943.c ****   case VD1943_RS_SDR_NATIVE_10:
1057:Lib/Camera_Middleware/sensors/vd1943/vd1943.c ****   case VD1943_RS_SDR_NATIVE_12:
1058:Lib/Camera_Middleware/sensors/vd1943/vd1943.c ****   case VD1943_RS_SDR_RGB_8:
1059:Lib/Camera_Middleware/sensors/vd1943/vd1943.c ****   case VD1943_RS_SDR_RGB_10:
1060:Lib/Camera_Middleware/sensors/vd1943/vd1943.c ****   case VD1943_RS_SDR_RGB_12:
1061:Lib/Camera_Middleware/sensors/vd1943/vd1943.c ****   case VD1943_RS_HDR_NATIVE_10:
1062:Lib/Camera_Middleware/sensors/vd1943/vd1943.c ****   case VD1943_RS_HDR_NATIVE_12:
1063:Lib/Camera_Middleware/sensors/vd1943/vd1943.c ****   case VD1943_RS_HDR_RGB_10:
1064:Lib/Camera_Middleware/sensors/vd1943/vd1943.c ****   case VD1943_RS_HDR_RGB_12:
1065:Lib/Camera_Middleware/sensors/vd1943/vd1943.c ****     gs_mode = 0;
1066:Lib/Camera_Middleware/sensors/vd1943/vd1943.c ****     break;
1067:Lib/Camera_Middleware/sensors/vd1943/vd1943.c ****   default:
1068:Lib/Camera_Middleware/sensors/vd1943/vd1943.c ****     return -1;
1069:Lib/Camera_Middleware/sensors/vd1943/vd1943.c ****   }
1070:Lib/Camera_Middleware/sensors/vd1943/vd1943.c **** 
1071:Lib/Camera_Middleware/sensors/vd1943/vd1943.c ****   ret = ctx->read32(ctx, VD1943_REG_SYSTEM_PLL_CLK, &system_pll_clk);
 343              		.loc 1 1071 3 is_stmt 1 view .LVU77
 344              		.loc 1 1071 9 is_stmt 0 view .LVU78
 345 002e 4FF40A71 		mov	r1, #552
 346              	.LVL22:
 347              		.loc 1 1071 9 view .LVU79
 348 0032 2846     		mov	r0, r5
 349              	.LVL23:
 350              		.loc 1 1071 9 view .LVU80
 351 0034 EB68     		ldr	r3, [r5, #12]
 352 0036 07AA     		add	r2, sp, #28
 353              	.LVL24:
 354              		.loc 1 1071 9 view .LVU81
 355 0038 9847     		blx	r3
 356              	.LVL25:
1072:Lib/Camera_Middleware/sensors/vd1943/vd1943.c ****   VD1943_TraceError(ctx, ret);
 357              		.loc 1 1072 3 is_stmt 1 view .LVU82
 358              		.loc 1 1072 3 view .LVU83
 359 003a 0446     		mov	r4, r0
 360 003c 58B9     		cbnz	r0, .L21
 361              		.loc 1 1072 3 discriminator 6 view .LVU84
ARM GAS  C:\Users\DJESSOU\AppData\Local\Temp\cc3eovRL.s 			page 27


 362              		.loc 1 1072 3 discriminator 8 view .LVU85
1073:Lib/Camera_Middleware/sensors/vd1943/vd1943.c ****   ret = ctx->read16(ctx, VD1943_REG_LINE_LENGTH, &line_length);
 363              		.loc 1 1073 3 view .LVU86
 364              		.loc 1 1073 9 is_stmt 0 view .LVU87
 365 003e 40F63411 		movw	r1, #2356
 366 0042 2846     		mov	r0, r5
 367              	.LVL26:
 368              		.loc 1 1073 9 view .LVU88
 369 0044 AB68     		ldr	r3, [r5, #8]
 370 0046 06AA     		add	r2, sp, #24
 371 0048 9847     		blx	r3
 372              	.LVL27:
1074:Lib/Camera_Middleware/sensors/vd1943/vd1943.c ****   VD1943_TraceError(ctx, ret);
 373              		.loc 1 1074 3 is_stmt 1 view .LVU89
 374              		.loc 1 1074 3 view .LVU90
 375 004a 0446     		mov	r4, r0
 376 004c 90B1     		cbz	r0, .L31
 377              		.loc 1 1074 3 discriminator 1 view .LVU91
 378              		.loc 1 1074 3 discriminator 1 view .LVU92
 379 004e 40F23243 		movw	r3, #1074
 380 0052 0290     		str	r0, [sp, #8]
 381 0054 02E0     		b	.L33
 382              	.L21:
1072:Lib/Camera_Middleware/sensors/vd1943/vd1943.c ****   VD1943_TraceError(ctx, ret);
 383              		.loc 1 1072 3 discriminator 1 view .LVU93
1072:Lib/Camera_Middleware/sensors/vd1943/vd1943.c ****   VD1943_TraceError(ctx, ret);
 384              		.loc 1 1072 3 discriminator 1 view .LVU94
 385 0056 4FF48663 		mov	r3, #1072
 386 005a 0290     		str	r0, [sp, #8]
 387              	.L33:
1075:Lib/Camera_Middleware/sensors/vd1943/vd1943.c ****   ret = ctx->read16(ctx, VD1943_REG_ROI_A_HEIGHT, &height);
1076:Lib/Camera_Middleware/sensors/vd1943/vd1943.c ****   VD1943_TraceError(ctx, ret);
 388              		.loc 1 1076 3 is_stmt 0 discriminator 1 view .LVU95
 389 005c 214A     		ldr	r2, .L34
 390 005e 2846     		mov	r0, r5
 391              	.LVL28:
 392              		.loc 1 1076 3 discriminator 1 view .LVU96
 393 0060 0092     		str	r2, [sp]
 394 0062 0021     		movs	r1, #0
 395 0064 204A     		ldr	r2, .L34+4
 396 0066 0193     		str	r3, [sp, #4]
 397 0068 FFF7FEFF 		bl	VD1943_log_impl
 398              	.LVL29:
 399              		.loc 1 1076 3 is_stmt 1 discriminator 3 view .LVU97
 400              		.loc 1 1076 3 discriminator 3 view .LVU98
 401              		.loc 1 1076 3 discriminator 4 view .LVU99
 402 006c 2846     		mov	r0, r5
 403 006e FFF7FEFF 		bl	display_error
 404              	.LVL30:
 405              		.loc 1 1076 3 discriminator 6 view .LVU100
 406              		.loc 1 1076 3 discriminator 7 view .LVU101
 407              		.loc 1 1076 3 is_stmt 0 view .LVU102
 408 0072 30E0     		b	.L17
 409              	.LVL31:
 410              	.L31:
1074:Lib/Camera_Middleware/sensors/vd1943/vd1943.c ****   VD1943_TraceError(ctx, ret);
 411              		.loc 1 1074 3 is_stmt 1 discriminator 3 view .LVU103
ARM GAS  C:\Users\DJESSOU\AppData\Local\Temp\cc3eovRL.s 			page 28


1074:Lib/Camera_Middleware/sensors/vd1943/vd1943.c ****   VD1943_TraceError(ctx, ret);
 412              		.loc 1 1074 3 discriminator 3 view .LVU104
1074:Lib/Camera_Middleware/sensors/vd1943/vd1943.c ****   VD1943_TraceError(ctx, ret);
 413              		.loc 1 1074 3 discriminator 6 view .LVU105
1074:Lib/Camera_Middleware/sensors/vd1943/vd1943.c ****   VD1943_TraceError(ctx, ret);
 414              		.loc 1 1074 3 discriminator 8 view .LVU106
1075:Lib/Camera_Middleware/sensors/vd1943/vd1943.c ****   ret = ctx->read16(ctx, VD1943_REG_ROI_A_HEIGHT, &height);
 415              		.loc 1 1075 3 view .LVU107
1075:Lib/Camera_Middleware/sensors/vd1943/vd1943.c ****   ret = ctx->read16(ctx, VD1943_REG_ROI_A_HEIGHT, &height);
 416              		.loc 1 1075 9 is_stmt 0 view .LVU108
 417 0074 40F61211 		movw	r1, #2322
 418 0078 2846     		mov	r0, r5
 419              	.LVL32:
1075:Lib/Camera_Middleware/sensors/vd1943/vd1943.c ****   ret = ctx->read16(ctx, VD1943_REG_ROI_A_HEIGHT, &height);
 420              		.loc 1 1075 9 view .LVU109
 421 007a AB68     		ldr	r3, [r5, #8]
 422 007c 0DF11A02 		add	r2, sp, #26
 423 0080 9847     		blx	r3
 424              	.LVL33:
 425              		.loc 1 1076 3 is_stmt 1 view .LVU110
 426              		.loc 1 1076 3 view .LVU111
 427 0082 0446     		mov	r4, r0
 428 0084 18B1     		cbz	r0, .L32
 429              		.loc 1 1076 3 discriminator 1 view .LVU112
 430              		.loc 1 1076 3 discriminator 1 view .LVU113
 431 0086 40F23443 		movw	r3, #1076
 432 008a 0290     		str	r0, [sp, #8]
 433 008c E6E7     		b	.L33
 434              	.L32:
 435              		.loc 1 1076 3 discriminator 3 view .LVU114
 436              		.loc 1 1076 3 discriminator 3 view .LVU115
 437              		.loc 1 1076 3 discriminator 6 view .LVU116
 438              		.loc 1 1076 3 discriminator 8 view .LVU117
1077:Lib/Camera_Middleware/sensors/vd1943/vd1943.c **** 
1078:Lib/Camera_Middleware/sensors/vd1943/vd1943.c ****   min_frame_length = height + VD1943_MIN_VBLANK;
 439              		.loc 1 1078 3 view .LVU118
1079:Lib/Camera_Middleware/sensors/vd1943/vd1943.c ****   if (gs_mode)
1080:Lib/Camera_Middleware/sensors/vd1943/vd1943.c ****     min_frame_length = min_frame_length / 2;
1081:Lib/Camera_Middleware/sensors/vd1943/vd1943.c ****   req_frame_length =  system_pll_clk / (4 * line_length * drv_vd1943_ctx->config_save.frame_rate);
 440              		.loc 1 1081 57 is_stmt 0 view .LVU119
 441 008e 296C     		ldr	r1, [r5, #64]
 442 0090 BDF81820 		ldrh	r2, [sp, #24]
1078:Lib/Camera_Middleware/sensors/vd1943/vd1943.c ****   if (gs_mode)
 443              		.loc 1 1078 29 view .LVU120
 444 0094 BDF81A30 		ldrh	r3, [sp, #26]
 445              		.loc 1 1081 57 view .LVU121
 446 0098 4A43     		muls	r2, r1, r2
 447              		.loc 1 1081 38 view .LVU122
 448 009a 0799     		ldr	r1, [sp, #28]
 449              		.loc 1 1081 57 view .LVU123
 450 009c 9200     		lsls	r2, r2, #2
 451              		.loc 1 1081 38 view .LVU124
 452 009e B1FBF2F2 		udiv	r2, r1, r2
1078:Lib/Camera_Middleware/sensors/vd1943/vd1943.c ****   if (gs_mode)
 453              		.loc 1 1078 20 view .LVU125
 454 00a2 3C33     		adds	r3, r3, #60
 455              	.LVL34:
ARM GAS  C:\Users\DJESSOU\AppData\Local\Temp\cc3eovRL.s 			page 29


1079:Lib/Camera_Middleware/sensors/vd1943/vd1943.c ****   if (gs_mode)
 456              		.loc 1 1079 3 is_stmt 1 view .LVU126
1080:Lib/Camera_Middleware/sensors/vd1943/vd1943.c ****   req_frame_length =  system_pll_clk / (4 * line_length * drv_vd1943_ctx->config_save.frame_rate);
 457              		.loc 1 1080 22 is_stmt 0 view .LVU127
 458 00a4 23FA08F3 		lsr	r3, r3, r8
 459              	.LVL35:
 460              		.loc 1 1081 3 is_stmt 1 view .LVU128
1082:Lib/Camera_Middleware/sensors/vd1943/vd1943.c ****   *frame_length = MIN(MAX(min_frame_length, req_frame_length), 65535);
 461              		.loc 1 1082 3 view .LVU129
 462              		.loc 1 1082 19 is_stmt 0 view .LVU130
 463 00a8 9342     		cmp	r3, r2
 464 00aa 1946     		mov	r1, r3
 465 00ac 4FF6FF70 		movw	r0, #65535
 466              	.LVL36:
 467              		.loc 1 1082 19 view .LVU131
 468 00b0 B8BF     		it	lt
 469 00b2 1146     		movlt	r1, r2
 470 00b4 8142     		cmp	r1, r0
 471 00b6 A8BF     		it	ge
 472 00b8 0146     		movge	r1, r0
 473              		.loc 1 1082 17 view .LVU132
 474 00ba 3980     		strh	r1, [r7]	@ movhi
1083:Lib/Camera_Middleware/sensors/vd1943/vd1943.c **** 
1084:Lib/Camera_Middleware/sensors/vd1943/vd1943.c ****   VD1943_dbg(ctx, 0, "frame_length to MAX(%d, %d) = %d to reach %d fps\n", min_frame_length, req_fr
 475              		.loc 1 1084 3 is_stmt 1 view .LVU133
 476              		.loc 1 1084 3 view .LVU134
 477 00bc CDE90132 		strd	r3, r2, [sp, #4]
 478 00c0 40F23C43 		movw	r3, #1084
 479              	.LVL37:
 480              		.loc 1 1084 3 is_stmt 0 view .LVU135
 481 00c4 CDE90316 		strd	r1, r6, [sp, #12]
 482 00c8 0093     		str	r3, [sp]
 483 00ca 0321     		movs	r1, #3
 484 00cc 2346     		mov	r3, r4
 485 00ce 2846     		mov	r0, r5
 486 00d0 064A     		ldr	r2, .L34+8
 487              	.LVL38:
 488              		.loc 1 1084 3 view .LVU136
 489 00d2 FFF7FEFF 		bl	VD1943_log_impl
 490              	.LVL39:
 491              		.loc 1 1084 3 is_stmt 1 discriminator 1 view .LVU137
1085:Lib/Camera_Middleware/sensors/vd1943/vd1943.c ****              *frame_length, fps);
1086:Lib/Camera_Middleware/sensors/vd1943/vd1943.c **** 
1087:Lib/Camera_Middleware/sensors/vd1943/vd1943.c ****   return 0;
 492              		.loc 1 1087 3 view .LVU138
 493              	.L17:
1088:Lib/Camera_Middleware/sensors/vd1943/vd1943.c **** }
 494              		.loc 1 1088 1 is_stmt 0 view .LVU139
 495 00d6 2046     		mov	r0, r4
 496 00d8 08B0     		add	sp, sp, #32
 497              		.cfi_remember_state
 498              		.cfi_def_cfa_offset 24
 499              		@ sp needed
 500 00da BDE8F081 		pop	{r4, r5, r6, r7, r8, pc}
 501              	.LVL40:
 502              	.L30:
 503              		.cfi_restore_state
ARM GAS  C:\Users\DJESSOU\AppData\Local\Temp\cc3eovRL.s 			page 30


1035:Lib/Camera_Middleware/sensors/vd1943/vd1943.c ****   {
 504              		.loc 1 1035 3 view .LVU140
 505 00de 4FF0FF34 		mov	r4, #-1
 506 00e2 F8E7     		b	.L17
 507              	.L35:
 508              		.align	2
 509              	.L34:
 510 00e4 00000000 		.word	__func__.35
 511 00e8 00000000 		.word	.LC4
 512 00ec 25000000 		.word	.LC5
 513              		.cfi_endproc
 514              	.LFE33:
 516              		.section	.text.VD1943_GetExpoCommon,"ax",%progbits
 517              		.align	1
 518              		.syntax unified
 519              		.thumb
 520              		.thumb_func
 522              	VD1943_GetExpoCommon:
 523              	.LVL41:
 524              	.LFB14:
 524:Lib/Camera_Middleware/sensors/vd1943/vd1943.c ****   uint16_t reg16;
 525              		.loc 1 524 1 is_stmt 1 view -0
 526              		.cfi_startproc
 527              		@ args = 0, pretend = 0, frame = 8
 528              		@ frame_needed = 0, uses_anonymous_args = 0
 525:Lib/Camera_Middleware/sensors/vd1943/vd1943.c ****   int ret;
 529              		.loc 1 525 3 view .LVU142
 526:Lib/Camera_Middleware/sensors/vd1943/vd1943.c **** 
 530              		.loc 1 526 3 view .LVU143
 528:Lib/Camera_Middleware/sensors/vd1943/vd1943.c ****   VD1943_TraceError(ctx, ret);
 531              		.loc 1 528 3 view .LVU144
 524:Lib/Camera_Middleware/sensors/vd1943/vd1943.c ****   uint16_t reg16;
 532              		.loc 1 524 1 is_stmt 0 view .LVU145
 533 0000 70B5     		push	{r4, r5, r6, lr}
 534              		.cfi_def_cfa_offset 16
 535              		.cfi_offset 4, -16
 536              		.cfi_offset 5, -12
 537              		.cfi_offset 6, -8
 538              		.cfi_offset 14, -4
 539 0002 86B0     		sub	sp, sp, #24
 540              		.cfi_def_cfa_offset 40
 524:Lib/Camera_Middleware/sensors/vd1943/vd1943.c ****   uint16_t reg16;
 541              		.loc 1 524 1 view .LVU146
 542 0004 0E46     		mov	r6, r1
 528:Lib/Camera_Middleware/sensors/vd1943/vd1943.c ****   VD1943_TraceError(ctx, ret);
 543              		.loc 1 528 9 view .LVU147
 544 0006 8368     		ldr	r3, [r0, #8]
 545 0008 40F67A41 		movw	r1, #3194
 546              	.LVL42:
 528:Lib/Camera_Middleware/sensors/vd1943/vd1943.c ****   VD1943_TraceError(ctx, ret);
 547              		.loc 1 528 9 view .LVU148
 548 000c 0DF11602 		add	r2, sp, #22
 524:Lib/Camera_Middleware/sensors/vd1943/vd1943.c ****   uint16_t reg16;
 549              		.loc 1 524 1 view .LVU149
 550 0010 0546     		mov	r5, r0
 528:Lib/Camera_Middleware/sensors/vd1943/vd1943.c ****   VD1943_TraceError(ctx, ret);
 551              		.loc 1 528 9 view .LVU150
ARM GAS  C:\Users\DJESSOU\AppData\Local\Temp\cc3eovRL.s 			page 31


 552 0012 9847     		blx	r3
 553              	.LVL43:
 529:Lib/Camera_Middleware/sensors/vd1943/vd1943.c ****   *expo_in_us = (reg16 * VD1943_LINE_TIME_IN_NS) / 1000;
 554              		.loc 1 529 3 is_stmt 1 view .LVU151
 529:Lib/Camera_Middleware/sensors/vd1943/vd1943.c ****   *expo_in_us = (reg16 * VD1943_LINE_TIME_IN_NS) / 1000;
 555              		.loc 1 529 3 view .LVU152
 556 0014 0446     		mov	r4, r0
 557 0016 60B9     		cbnz	r0, .L37
 529:Lib/Camera_Middleware/sensors/vd1943/vd1943.c ****   *expo_in_us = (reg16 * VD1943_LINE_TIME_IN_NS) / 1000;
 558              		.loc 1 529 3 discriminator 6 view .LVU153
 529:Lib/Camera_Middleware/sensors/vd1943/vd1943.c ****   *expo_in_us = (reg16 * VD1943_LINE_TIME_IN_NS) / 1000;
 559              		.loc 1 529 3 discriminator 8 view .LVU154
 530:Lib/Camera_Middleware/sensors/vd1943/vd1943.c **** 
 560              		.loc 1 530 3 view .LVU155
 530:Lib/Camera_Middleware/sensors/vd1943/vd1943.c **** 
 561              		.loc 1 530 24 is_stmt 0 view .LVU156
 562 0018 43F6A402 		movw	r2, #14500
 563 001c BDF81630 		ldrh	r3, [sp, #22]
 564 0020 5343     		muls	r3, r2, r3
 530:Lib/Camera_Middleware/sensors/vd1943/vd1943.c **** 
 565              		.loc 1 530 50 view .LVU157
 566 0022 4FF47A72 		mov	r2, #1000
 567 0026 B3FBF2F3 		udiv	r3, r3, r2
 530:Lib/Camera_Middleware/sensors/vd1943/vd1943.c **** 
 568              		.loc 1 530 15 view .LVU158
 569 002a 3360     		str	r3, [r6]
 532:Lib/Camera_Middleware/sensors/vd1943/vd1943.c **** }
 570              		.loc 1 532 3 is_stmt 1 view .LVU159
 571              	.LVL44:
 572              	.L36:
 533:Lib/Camera_Middleware/sensors/vd1943/vd1943.c **** 
 573              		.loc 1 533 1 is_stmt 0 view .LVU160
 574 002c 2046     		mov	r0, r4
 575 002e 06B0     		add	sp, sp, #24
 576              		.cfi_remember_state
 577              		.cfi_def_cfa_offset 16
 578              		@ sp needed
 579 0030 70BD     		pop	{r4, r5, r6, pc}
 580              	.LVL45:
 581              	.L37:
 582              		.cfi_restore_state
 529:Lib/Camera_Middleware/sensors/vd1943/vd1943.c ****   *expo_in_us = (reg16 * VD1943_LINE_TIME_IN_NS) / 1000;
 583              		.loc 1 529 3 is_stmt 1 discriminator 1 view .LVU161
 529:Lib/Camera_Middleware/sensors/vd1943/vd1943.c ****   *expo_in_us = (reg16 * VD1943_LINE_TIME_IN_NS) / 1000;
 584              		.loc 1 529 3 discriminator 1 view .LVU162
 585 0032 40F21123 		movw	r3, #529
 586 0036 064A     		ldr	r2, .L39
 587 0038 0290     		str	r0, [sp, #8]
 588 003a 0092     		str	r2, [sp]
 589 003c 2846     		mov	r0, r5
 590              	.LVL46:
 529:Lib/Camera_Middleware/sensors/vd1943/vd1943.c ****   *expo_in_us = (reg16 * VD1943_LINE_TIME_IN_NS) / 1000;
 591              		.loc 1 529 3 is_stmt 0 discriminator 1 view .LVU163
 592 003e 0021     		movs	r1, #0
 593 0040 044A     		ldr	r2, .L39+4
 594 0042 0193     		str	r3, [sp, #4]
 595 0044 FFF7FEFF 		bl	VD1943_log_impl
ARM GAS  C:\Users\DJESSOU\AppData\Local\Temp\cc3eovRL.s 			page 32


 596              	.LVL47:
 529:Lib/Camera_Middleware/sensors/vd1943/vd1943.c ****   *expo_in_us = (reg16 * VD1943_LINE_TIME_IN_NS) / 1000;
 597              		.loc 1 529 3 is_stmt 1 discriminator 3 view .LVU164
 529:Lib/Camera_Middleware/sensors/vd1943/vd1943.c ****   *expo_in_us = (reg16 * VD1943_LINE_TIME_IN_NS) / 1000;
 598              		.loc 1 529 3 discriminator 3 view .LVU165
 529:Lib/Camera_Middleware/sensors/vd1943/vd1943.c ****   *expo_in_us = (reg16 * VD1943_LINE_TIME_IN_NS) / 1000;
 599              		.loc 1 529 3 discriminator 4 view .LVU166
 600 0048 2846     		mov	r0, r5
 601 004a FFF7FEFF 		bl	display_error
 602              	.LVL48:
 529:Lib/Camera_Middleware/sensors/vd1943/vd1943.c ****   *expo_in_us = (reg16 * VD1943_LINE_TIME_IN_NS) / 1000;
 603              		.loc 1 529 3 discriminator 6 view .LVU167
 604 004e EDE7     		b	.L36
 605              	.L40:
 606              		.align	2
 607              	.L39:
 608 0050 00000000 		.word	__func__.31
 609 0054 00000000 		.word	.LC4
 610              		.cfi_endproc
 611              	.LFE14:
 613              		.section	.text.VD1943_GetExpo_GS,"ax",%progbits
 614              		.align	1
 615              		.syntax unified
 616              		.thumb
 617              		.thumb_func
 619              	VD1943_GetExpo_GS:
 620              	.LVL49:
 621              	.LFB17:
 567:Lib/Camera_Middleware/sensors/vd1943/vd1943.c ****   return VD1943_GetExpoCommon(ctx, expo_in_us);
 622              		.loc 1 567 1 view -0
 623              		.cfi_startproc
 624              		@ args = 0, pretend = 0, frame = 0
 625              		@ frame_needed = 0, uses_anonymous_args = 0
 626              		@ link register save eliminated.
 568:Lib/Camera_Middleware/sensors/vd1943/vd1943.c **** }
 627              		.loc 1 568 3 view .LVU169
 568:Lib/Camera_Middleware/sensors/vd1943/vd1943.c **** }
 628              		.loc 1 568 10 is_stmt 0 view .LVU170
 629 0000 FFF7FEBF 		b	VD1943_GetExpoCommon
 630              	.LVL50:
 568:Lib/Camera_Middleware/sensors/vd1943/vd1943.c **** }
 631              		.loc 1 568 10 view .LVU171
 632              		.cfi_endproc
 633              	.LFE17:
 635              		.section	.text.VD1943_SetExpo_RS,"ax",%progbits
 636              		.align	1
 637              		.syntax unified
 638              		.thumb
 639              		.thumb_func
 641              	VD1943_SetExpo_RS:
 642              	.LVL51:
 643              	.LFB18:
 572:Lib/Camera_Middleware/sensors/vd1943/vd1943.c ****   unsigned int expo_in_line = (expo_in_us * 1000 + VD1943_LINE_TIME_IN_NS - 1) / VD1943_LINE_TIME_I
 644              		.loc 1 572 1 is_stmt 1 view -0
 645              		.cfi_startproc
 646              		@ args = 0, pretend = 0, frame = 0
 647              		@ frame_needed = 0, uses_anonymous_args = 0
ARM GAS  C:\Users\DJESSOU\AppData\Local\Temp\cc3eovRL.s 			page 33


 573:Lib/Camera_Middleware/sensors/vd1943/vd1943.c ****   int ret;
 648              		.loc 1 573 3 view .LVU173
 573:Lib/Camera_Middleware/sensors/vd1943/vd1943.c ****   int ret;
 649              		.loc 1 573 75 is_stmt 0 view .LVU174
 650 0000 4FF47A72 		mov	r2, #1000
 651 0004 43F6A303 		movw	r3, #14499
 652 0008 02FB0131 		mla	r1, r2, r1, r3
 653              	.LVL52:
 576:Lib/Camera_Middleware/sensors/vd1943/vd1943.c ****     return -1;
 654              		.loc 1 576 6 view .LVU175
 655 000c 47F24713 		movw	r3, #28999
 573:Lib/Camera_Middleware/sensors/vd1943/vd1943.c ****   int ret;
 656              		.loc 1 573 16 view .LVU176
 657 0010 43F6A402 		movw	r2, #14500
 572:Lib/Camera_Middleware/sensors/vd1943/vd1943.c ****   unsigned int expo_in_line = (expo_in_us * 1000 + VD1943_LINE_TIME_IN_NS - 1) / VD1943_LINE_TIME_I
 658              		.loc 1 572 1 view .LVU177
 659 0014 30B5     		push	{r4, r5, lr}
 660              		.cfi_def_cfa_offset 12
 661              		.cfi_offset 4, -12
 662              		.cfi_offset 5, -8
 663              		.cfi_offset 14, -4
 576:Lib/Camera_Middleware/sensors/vd1943/vd1943.c ****     return -1;
 664              		.loc 1 576 6 view .LVU178
 665 0016 9942     		cmp	r1, r3
 572:Lib/Camera_Middleware/sensors/vd1943/vd1943.c ****   unsigned int expo_in_line = (expo_in_us * 1000 + VD1943_LINE_TIME_IN_NS - 1) / VD1943_LINE_TIME_I
 666              		.loc 1 572 1 view .LVU179
 667 0018 0546     		mov	r5, r0
 573:Lib/Camera_Middleware/sensors/vd1943/vd1943.c ****   int ret;
 668              		.loc 1 573 16 view .LVU180
 669 001a B1FBF2F2 		udiv	r2, r1, r2
 670              	.LVL53:
 574:Lib/Camera_Middleware/sensors/vd1943/vd1943.c **** 
 671              		.loc 1 574 3 is_stmt 1 view .LVU181
 576:Lib/Camera_Middleware/sensors/vd1943/vd1943.c ****     return -1;
 672              		.loc 1 576 3 view .LVU182
 572:Lib/Camera_Middleware/sensors/vd1943/vd1943.c ****   unsigned int expo_in_line = (expo_in_us * 1000 + VD1943_LINE_TIME_IN_NS - 1) / VD1943_LINE_TIME_I
 673              		.loc 1 572 1 is_stmt 0 view .LVU183
 674 001e 85B0     		sub	sp, sp, #20
 675              		.cfi_def_cfa_offset 32
 576:Lib/Camera_Middleware/sensors/vd1943/vd1943.c ****     return -1;
 676              		.loc 1 576 6 view .LVU184
 677 0020 17D9     		bls	.L45
 579:Lib/Camera_Middleware/sensors/vd1943/vd1943.c ****   VD1943_TraceError(ctx, ret);
 678              		.loc 1 579 3 is_stmt 1 view .LVU185
 579:Lib/Camera_Middleware/sensors/vd1943/vd1943.c ****   VD1943_TraceError(ctx, ret);
 679              		.loc 1 579 9 is_stmt 0 view .LVU186
 680 0022 40F67A41 		movw	r1, #3194
 681 0026 4369     		ldr	r3, [r0, #20]
 682 0028 92B2     		uxth	r2, r2
 683              	.LVL54:
 579:Lib/Camera_Middleware/sensors/vd1943/vd1943.c ****   VD1943_TraceError(ctx, ret);
 684              		.loc 1 579 9 view .LVU187
 685 002a 9847     		blx	r3
 686              	.LVL55:
 580:Lib/Camera_Middleware/sensors/vd1943/vd1943.c **** 
 687              		.loc 1 580 3 is_stmt 1 view .LVU188
 580:Lib/Camera_Middleware/sensors/vd1943/vd1943.c **** 
ARM GAS  C:\Users\DJESSOU\AppData\Local\Temp\cc3eovRL.s 			page 34


 688              		.loc 1 580 3 view .LVU189
 689 002c 0446     		mov	r4, r0
 690 002e 68B1     		cbz	r0, .L42
 580:Lib/Camera_Middleware/sensors/vd1943/vd1943.c **** 
 691              		.loc 1 580 3 discriminator 1 view .LVU190
 580:Lib/Camera_Middleware/sensors/vd1943/vd1943.c **** 
 692              		.loc 1 580 3 discriminator 1 view .LVU191
 693 0030 4FF41173 		mov	r3, #580
 694 0034 084A     		ldr	r2, .L49
 695 0036 0290     		str	r0, [sp, #8]
 696 0038 0092     		str	r2, [sp]
 697 003a 2846     		mov	r0, r5
 698              	.LVL56:
 580:Lib/Camera_Middleware/sensors/vd1943/vd1943.c **** 
 699              		.loc 1 580 3 is_stmt 0 discriminator 1 view .LVU192
 700 003c 0021     		movs	r1, #0
 701 003e 074A     		ldr	r2, .L49+4
 702 0040 0193     		str	r3, [sp, #4]
 703 0042 FFF7FEFF 		bl	VD1943_log_impl
 704              	.LVL57:
 580:Lib/Camera_Middleware/sensors/vd1943/vd1943.c **** 
 705              		.loc 1 580 3 is_stmt 1 discriminator 3 view .LVU193
 580:Lib/Camera_Middleware/sensors/vd1943/vd1943.c **** 
 706              		.loc 1 580 3 discriminator 3 view .LVU194
 580:Lib/Camera_Middleware/sensors/vd1943/vd1943.c **** 
 707              		.loc 1 580 3 discriminator 4 view .LVU195
 708 0046 2846     		mov	r0, r5
 709 0048 FFF7FEFF 		bl	display_error
 710              	.LVL58:
 711              	.L42:
 583:Lib/Camera_Middleware/sensors/vd1943/vd1943.c **** 
 712              		.loc 1 583 1 is_stmt 0 view .LVU196
 713 004c 2046     		mov	r0, r4
 714 004e 05B0     		add	sp, sp, #20
 715              		.cfi_remember_state
 716              		.cfi_def_cfa_offset 12
 717              		@ sp needed
 718 0050 30BD     		pop	{r4, r5, pc}
 719              	.LVL59:
 720              	.L45:
 721              		.cfi_restore_state
 577:Lib/Camera_Middleware/sensors/vd1943/vd1943.c **** 
 722              		.loc 1 577 12 view .LVU197
 723 0052 4FF0FF34 		mov	r4, #-1
 724 0056 F9E7     		b	.L42
 725              	.L50:
 726              		.align	2
 727              	.L49:
 728 0058 00000000 		.word	__func__.30
 729 005c 00000000 		.word	.LC4
 730              		.cfi_endproc
 731              	.LFE18:
 733              		.section	.text.VD1943_SetExpo_RS_HDR,"ax",%progbits
 734              		.align	1
 735              		.syntax unified
 736              		.thumb
 737              		.thumb_func
ARM GAS  C:\Users\DJESSOU\AppData\Local\Temp\cc3eovRL.s 			page 35


 739              	VD1943_SetExpo_RS_HDR:
 740              	.LVL60:
 741              	.LFB20:
 591:Lib/Camera_Middleware/sensors/vd1943/vd1943.c ****   /* we use a short expo ratio of 1/20 */
 742              		.loc 1 591 1 is_stmt 1 view -0
 743              		.cfi_startproc
 744              		@ args = 0, pretend = 0, frame = 0
 745              		@ frame_needed = 0, uses_anonymous_args = 0
 593:Lib/Camera_Middleware/sensors/vd1943/vd1943.c ****   int ret;
 746              		.loc 1 593 3 view .LVU199
 591:Lib/Camera_Middleware/sensors/vd1943/vd1943.c ****   /* we use a short expo ratio of 1/20 */
 747              		.loc 1 591 1 is_stmt 0 view .LVU200
 748 0000 7FB5     		push	{r0, r1, r2, r3, r4, r5, r6, lr}
 749              		.cfi_def_cfa_offset 32
 750              		.cfi_offset 4, -16
 751              		.cfi_offset 5, -12
 752              		.cfi_offset 6, -8
 753              		.cfi_offset 14, -4
 591:Lib/Camera_Middleware/sensors/vd1943/vd1943.c ****   /* we use a short expo ratio of 1/20 */
 754              		.loc 1 591 1 view .LVU201
 755 0002 0546     		mov	r5, r0
 756 0004 0E46     		mov	r6, r1
 757              	.LVL61:
 594:Lib/Camera_Middleware/sensors/vd1943/vd1943.c **** 
 758              		.loc 1 594 3 is_stmt 1 view .LVU202
 596:Lib/Camera_Middleware/sensors/vd1943/vd1943.c ****   if (ret)
 759              		.loc 1 596 3 view .LVU203
 596:Lib/Camera_Middleware/sensors/vd1943/vd1943.c ****   if (ret)
 760              		.loc 1 596 9 is_stmt 0 view .LVU204
 761 0006 FFF7FEFF 		bl	VD1943_SetExpo_RS
 762              	.LVL62:
 597:Lib/Camera_Middleware/sensors/vd1943/vd1943.c ****     return ret;
 763              		.loc 1 597 3 is_stmt 1 view .LVU205
 597:Lib/Camera_Middleware/sensors/vd1943/vd1943.c ****     return ret;
 764              		.loc 1 597 6 is_stmt 0 view .LVU206
 765 000a 0446     		mov	r4, r0
 766 000c 08BB     		cbnz	r0, .L51
 600:Lib/Camera_Middleware/sensors/vd1943/vd1943.c ****   ret = ctx->write16(ctx, VD1943_REG_INTEGRATION_TIME_SHORT(0), expo_short_in_line);
 767              		.loc 1 600 3 is_stmt 1 view .LVU207
 593:Lib/Camera_Middleware/sensors/vd1943/vd1943.c ****   int ret;
 768              		.loc 1 593 79 is_stmt 0 view .LVU208
 769 000e 3223     		movs	r3, #50
 770 0010 43F6A302 		movw	r2, #14499
 771 0014 03FB0622 		mla	r2, r3, r6, r2
 593:Lib/Camera_Middleware/sensors/vd1943/vd1943.c ****   int ret;
 772              		.loc 1 593 16 view .LVU209
 773 0018 43F6A403 		movw	r3, #14500
 774 001c B2FBF3F2 		udiv	r2, r2, r3
 775              	.LVL63:
 601:Lib/Camera_Middleware/sensors/vd1943/vd1943.c ****   VD1943_TraceError(ctx, ret);
 776              		.loc 1 601 3 is_stmt 1 view .LVU210
 600:Lib/Camera_Middleware/sensors/vd1943/vd1943.c ****   ret = ctx->write16(ctx, VD1943_REG_INTEGRATION_TIME_SHORT(0), expo_short_in_line);
 777              		.loc 1 600 22 is_stmt 0 view .LVU211
 778 0020 022A     		cmp	r2, #2
 779 0022 38BF     		it	cc
 780 0024 0222     		movcc	r2, #2
 781              	.LVL64:
ARM GAS  C:\Users\DJESSOU\AppData\Local\Temp\cc3eovRL.s 			page 36


 601:Lib/Camera_Middleware/sensors/vd1943/vd1943.c ****   VD1943_TraceError(ctx, ret);
 782              		.loc 1 601 9 view .LVU212
 783 0026 40F67E41 		movw	r1, #3198
 784 002a 2846     		mov	r0, r5
 785              	.LVL65:
 601:Lib/Camera_Middleware/sensors/vd1943/vd1943.c ****   VD1943_TraceError(ctx, ret);
 786              		.loc 1 601 9 view .LVU213
 787 002c 6B69     		ldr	r3, [r5, #20]
 788              	.LVL66:
 601:Lib/Camera_Middleware/sensors/vd1943/vd1943.c ****   VD1943_TraceError(ctx, ret);
 789              		.loc 1 601 9 view .LVU214
 790 002e 92B2     		uxth	r2, r2
 791 0030 9847     		blx	r3
 792              	.LVL67:
 602:Lib/Camera_Middleware/sensors/vd1943/vd1943.c **** 
 793              		.loc 1 602 3 is_stmt 1 view .LVU215
 602:Lib/Camera_Middleware/sensors/vd1943/vd1943.c **** 
 794              		.loc 1 602 3 view .LVU216
 795 0032 0446     		mov	r4, r0
 796 0034 68B1     		cbz	r0, .L51
 602:Lib/Camera_Middleware/sensors/vd1943/vd1943.c **** 
 797              		.loc 1 602 3 discriminator 1 view .LVU217
 602:Lib/Camera_Middleware/sensors/vd1943/vd1943.c **** 
 798              		.loc 1 602 3 discriminator 1 view .LVU218
 799 0036 40F25A23 		movw	r3, #602
 800 003a 074A     		ldr	r2, .L57
 801 003c 0290     		str	r0, [sp, #8]
 802 003e 0092     		str	r2, [sp]
 803 0040 2846     		mov	r0, r5
 804              	.LVL68:
 602:Lib/Camera_Middleware/sensors/vd1943/vd1943.c **** 
 805              		.loc 1 602 3 is_stmt 0 discriminator 1 view .LVU219
 806 0042 0021     		movs	r1, #0
 807 0044 054A     		ldr	r2, .L57+4
 808 0046 0193     		str	r3, [sp, #4]
 809 0048 FFF7FEFF 		bl	VD1943_log_impl
 810              	.LVL69:
 602:Lib/Camera_Middleware/sensors/vd1943/vd1943.c **** 
 811              		.loc 1 602 3 is_stmt 1 discriminator 3 view .LVU220
 602:Lib/Camera_Middleware/sensors/vd1943/vd1943.c **** 
 812              		.loc 1 602 3 discriminator 3 view .LVU221
 602:Lib/Camera_Middleware/sensors/vd1943/vd1943.c **** 
 813              		.loc 1 602 3 discriminator 4 view .LVU222
 814 004c 2846     		mov	r0, r5
 815 004e FFF7FEFF 		bl	display_error
 816              	.LVL70:
 817              	.L51:
 605:Lib/Camera_Middleware/sensors/vd1943/vd1943.c **** 
 818              		.loc 1 605 1 is_stmt 0 view .LVU223
 819 0052 2046     		mov	r0, r4
 820 0054 04B0     		add	sp, sp, #16
 821              		.cfi_def_cfa_offset 16
 822              		@ sp needed
 823 0056 70BD     		pop	{r4, r5, r6, pc}
 824              	.LVL71:
 825              	.L58:
 605:Lib/Camera_Middleware/sensors/vd1943/vd1943.c **** 
ARM GAS  C:\Users\DJESSOU\AppData\Local\Temp\cc3eovRL.s 			page 37


 826              		.loc 1 605 1 view .LVU224
 827              		.align	2
 828              	.L57:
 829 0058 00000000 		.word	__func__.32
 830 005c 00000000 		.word	.LC4
 831              		.cfi_endproc
 832              	.LFE20:
 834              		.section	.text.VD1943_SetDigitalGain_IR,"ax",%progbits
 835              		.align	1
 836              		.syntax unified
 837              		.thumb
 838              		.thumb_func
 840              	VD1943_SetDigitalGain_IR:
 841              	.LVL72:
 842              	.LFB12:
 500:Lib/Camera_Middleware/sensors/vd1943/vd1943.c ****   int ret;
 843              		.loc 1 500 1 is_stmt 1 view -0
 844              		.cfi_startproc
 845              		@ args = 0, pretend = 0, frame = 0
 846              		@ frame_needed = 0, uses_anonymous_args = 0
 501:Lib/Camera_Middleware/sensors/vd1943/vd1943.c **** 
 847              		.loc 1 501 3 view .LVU226
 503:Lib/Camera_Middleware/sensors/vd1943/vd1943.c ****   VD1943_TraceError(ctx, ret);
 848              		.loc 1 503 3 view .LVU227
 500:Lib/Camera_Middleware/sensors/vd1943/vd1943.c ****   int ret;
 849              		.loc 1 500 1 is_stmt 0 view .LVU228
 850 0000 30B5     		push	{r4, r5, lr}
 851              		.cfi_def_cfa_offset 12
 852              		.cfi_offset 4, -12
 853              		.cfi_offset 5, -8
 854              		.cfi_offset 14, -4
 503:Lib/Camera_Middleware/sensors/vd1943/vd1943.c ****   VD1943_TraceError(ctx, ret);
 855              		.loc 1 503 9 view .LVU229
 856 0002 8AB2     		uxth	r2, r1
 857 0004 4369     		ldr	r3, [r0, #20]
 858 0006 40F68641 		movw	r1, #3206
 859              	.LVL73:
 500:Lib/Camera_Middleware/sensors/vd1943/vd1943.c ****   int ret;
 860              		.loc 1 500 1 view .LVU230
 861 000a 85B0     		sub	sp, sp, #20
 862              		.cfi_def_cfa_offset 32
 500:Lib/Camera_Middleware/sensors/vd1943/vd1943.c ****   int ret;
 863              		.loc 1 500 1 view .LVU231
 864 000c 0546     		mov	r5, r0
 503:Lib/Camera_Middleware/sensors/vd1943/vd1943.c ****   VD1943_TraceError(ctx, ret);
 865              		.loc 1 503 9 view .LVU232
 866 000e 9847     		blx	r3
 867              	.LVL74:
 504:Lib/Camera_Middleware/sensors/vd1943/vd1943.c **** 
 868              		.loc 1 504 3 is_stmt 1 view .LVU233
 504:Lib/Camera_Middleware/sensors/vd1943/vd1943.c **** 
 869              		.loc 1 504 3 view .LVU234
 870 0010 0446     		mov	r4, r0
 871 0012 68B1     		cbz	r0, .L59
 504:Lib/Camera_Middleware/sensors/vd1943/vd1943.c **** 
 872              		.loc 1 504 3 discriminator 1 view .LVU235
 504:Lib/Camera_Middleware/sensors/vd1943/vd1943.c **** 
ARM GAS  C:\Users\DJESSOU\AppData\Local\Temp\cc3eovRL.s 			page 38


 873              		.loc 1 504 3 discriminator 1 view .LVU236
 874 0014 4FF4FC73 		mov	r3, #504
 875 0018 074A     		ldr	r2, .L64
 876 001a 0290     		str	r0, [sp, #8]
 877 001c 0092     		str	r2, [sp]
 878 001e 2846     		mov	r0, r5
 879              	.LVL75:
 504:Lib/Camera_Middleware/sensors/vd1943/vd1943.c **** 
 880              		.loc 1 504 3 is_stmt 0 discriminator 1 view .LVU237
 881 0020 0021     		movs	r1, #0
 882 0022 064A     		ldr	r2, .L64+4
 883 0024 0193     		str	r3, [sp, #4]
 884 0026 FFF7FEFF 		bl	VD1943_log_impl
 885              	.LVL76:
 504:Lib/Camera_Middleware/sensors/vd1943/vd1943.c **** 
 886              		.loc 1 504 3 is_stmt 1 discriminator 3 view .LVU238
 504:Lib/Camera_Middleware/sensors/vd1943/vd1943.c **** 
 887              		.loc 1 504 3 discriminator 3 view .LVU239
 504:Lib/Camera_Middleware/sensors/vd1943/vd1943.c **** 
 888              		.loc 1 504 3 discriminator 4 view .LVU240
 889 002a 2846     		mov	r0, r5
 890 002c FFF7FEFF 		bl	display_error
 891              	.LVL77:
 504:Lib/Camera_Middleware/sensors/vd1943/vd1943.c **** 
 892              		.loc 1 504 3 discriminator 6 view .LVU241
 893              	.L59:
 507:Lib/Camera_Middleware/sensors/vd1943/vd1943.c **** 
 894              		.loc 1 507 1 is_stmt 0 view .LVU242
 895 0030 2046     		mov	r0, r4
 896 0032 05B0     		add	sp, sp, #20
 897              		.cfi_def_cfa_offset 12
 898              		@ sp needed
 899 0034 30BD     		pop	{r4, r5, pc}
 900              	.LVL78:
 901              	.L65:
 507:Lib/Camera_Middleware/sensors/vd1943/vd1943.c **** 
 902              		.loc 1 507 1 view .LVU243
 903 0036 00BF     		.align	2
 904              	.L64:
 905 0038 00000000 		.word	__func__.29
 906 003c 00000000 		.word	.LC4
 907              		.cfi_endproc
 908              	.LFE12:
 910              		.section	.text.VD1943_SetDigitalGain_RGB,"ax",%progbits
 911              		.align	1
 912              		.syntax unified
 913              		.thumb
 914              		.thumb_func
 916              	VD1943_SetDigitalGain_RGB:
 917              	.LVL79:
 918              	.LFB11:
 486:Lib/Camera_Middleware/sensors/vd1943/vd1943.c ****   int ret;
 919              		.loc 1 486 1 is_stmt 1 view -0
 920              		.cfi_startproc
 921              		@ args = 0, pretend = 0, frame = 0
 922              		@ frame_needed = 0, uses_anonymous_args = 0
 487:Lib/Camera_Middleware/sensors/vd1943/vd1943.c **** 
ARM GAS  C:\Users\DJESSOU\AppData\Local\Temp\cc3eovRL.s 			page 39


 923              		.loc 1 487 3 view .LVU245
 489:Lib/Camera_Middleware/sensors/vd1943/vd1943.c ****   VD1943_TraceError(ctx, ret);
 924              		.loc 1 489 3 view .LVU246
 486:Lib/Camera_Middleware/sensors/vd1943/vd1943.c ****   int ret;
 925              		.loc 1 486 1 is_stmt 0 view .LVU247
 926 0000 7FB5     		push	{r0, r1, r2, r3, r4, r5, r6, lr}
 927              		.cfi_def_cfa_offset 32
 928              		.cfi_offset 4, -16
 929              		.cfi_offset 5, -12
 930              		.cfi_offset 6, -8
 931              		.cfi_offset 14, -4
 489:Lib/Camera_Middleware/sensors/vd1943/vd1943.c ****   VD1943_TraceError(ctx, ret);
 932              		.loc 1 489 9 view .LVU248
 933 0002 8EB2     		uxth	r6, r1
 934 0004 3246     		mov	r2, r6
 935 0006 4FF44861 		mov	r1, #3200
 936              	.LVL80:
 489:Lib/Camera_Middleware/sensors/vd1943/vd1943.c ****   VD1943_TraceError(ctx, ret);
 937              		.loc 1 489 9 view .LVU249
 938 000a 4369     		ldr	r3, [r0, #20]
 486:Lib/Camera_Middleware/sensors/vd1943/vd1943.c ****   int ret;
 939              		.loc 1 486 1 view .LVU250
 940 000c 0546     		mov	r5, r0
 489:Lib/Camera_Middleware/sensors/vd1943/vd1943.c ****   VD1943_TraceError(ctx, ret);
 941              		.loc 1 489 9 view .LVU251
 942 000e 9847     		blx	r3
 943              	.LVL81:
 490:Lib/Camera_Middleware/sensors/vd1943/vd1943.c ****   ret = ctx->write16(ctx, VD1943_DIGITAL_GAIN_G(0), gain);
 944              		.loc 1 490 3 is_stmt 1 view .LVU252
 490:Lib/Camera_Middleware/sensors/vd1943/vd1943.c ****   ret = ctx->write16(ctx, VD1943_DIGITAL_GAIN_G(0), gain);
 945              		.loc 1 490 3 view .LVU253
 946 0010 0446     		mov	r4, r0
 947 0012 58B9     		cbnz	r0, .L67
 490:Lib/Camera_Middleware/sensors/vd1943/vd1943.c ****   ret = ctx->write16(ctx, VD1943_DIGITAL_GAIN_G(0), gain);
 948              		.loc 1 490 3 discriminator 6 view .LVU254
 490:Lib/Camera_Middleware/sensors/vd1943/vd1943.c ****   ret = ctx->write16(ctx, VD1943_DIGITAL_GAIN_G(0), gain);
 949              		.loc 1 490 3 discriminator 8 view .LVU255
 491:Lib/Camera_Middleware/sensors/vd1943/vd1943.c ****   VD1943_TraceError(ctx, ret);
 950              		.loc 1 491 3 view .LVU256
 491:Lib/Camera_Middleware/sensors/vd1943/vd1943.c ****   VD1943_TraceError(ctx, ret);
 951              		.loc 1 491 9 is_stmt 0 view .LVU257
 952 0014 3246     		mov	r2, r6
 953 0016 40F68241 		movw	r1, #3202
 954 001a 2846     		mov	r0, r5
 955              	.LVL82:
 491:Lib/Camera_Middleware/sensors/vd1943/vd1943.c ****   VD1943_TraceError(ctx, ret);
 956              		.loc 1 491 9 view .LVU258
 957 001c 6B69     		ldr	r3, [r5, #20]
 958 001e 9847     		blx	r3
 959              	.LVL83:
 492:Lib/Camera_Middleware/sensors/vd1943/vd1943.c ****   ret = ctx->write16(ctx, VD1943_DIGITAL_GAIN_B(0), gain);
 960              		.loc 1 492 3 is_stmt 1 view .LVU259
 492:Lib/Camera_Middleware/sensors/vd1943/vd1943.c ****   ret = ctx->write16(ctx, VD1943_DIGITAL_GAIN_B(0), gain);
 961              		.loc 1 492 3 view .LVU260
 962 0020 0446     		mov	r4, r0
 963 0022 A0B1     		cbz	r0, .L73
 492:Lib/Camera_Middleware/sensors/vd1943/vd1943.c ****   ret = ctx->write16(ctx, VD1943_DIGITAL_GAIN_B(0), gain);
ARM GAS  C:\Users\DJESSOU\AppData\Local\Temp\cc3eovRL.s 			page 40


 964              		.loc 1 492 3 discriminator 1 view .LVU261
 492:Lib/Camera_Middleware/sensors/vd1943/vd1943.c ****   ret = ctx->write16(ctx, VD1943_DIGITAL_GAIN_B(0), gain);
 965              		.loc 1 492 3 discriminator 1 view .LVU262
 966 0024 4FF4F673 		mov	r3, #492
 967 0028 0290     		str	r0, [sp, #8]
 968 002a 02E0     		b	.L74
 969              	.L67:
 490:Lib/Camera_Middleware/sensors/vd1943/vd1943.c ****   ret = ctx->write16(ctx, VD1943_DIGITAL_GAIN_G(0), gain);
 970              		.loc 1 490 3 discriminator 1 view .LVU263
 490:Lib/Camera_Middleware/sensors/vd1943/vd1943.c ****   ret = ctx->write16(ctx, VD1943_DIGITAL_GAIN_G(0), gain);
 971              		.loc 1 490 3 discriminator 1 view .LVU264
 972 002c 4FF4F573 		mov	r3, #490
 973 0030 0290     		str	r0, [sp, #8]
 974              	.L74:
 494:Lib/Camera_Middleware/sensors/vd1943/vd1943.c **** 
 975              		.loc 1 494 3 is_stmt 0 discriminator 1 view .LVU265
 976 0032 0D4A     		ldr	r2, .L75
 977 0034 2846     		mov	r0, r5
 978              	.LVL84:
 494:Lib/Camera_Middleware/sensors/vd1943/vd1943.c **** 
 979              		.loc 1 494 3 discriminator 1 view .LVU266
 980 0036 0092     		str	r2, [sp]
 981 0038 0021     		movs	r1, #0
 982 003a 0C4A     		ldr	r2, .L75+4
 983 003c 0193     		str	r3, [sp, #4]
 984 003e FFF7FEFF 		bl	VD1943_log_impl
 985              	.LVL85:
 494:Lib/Camera_Middleware/sensors/vd1943/vd1943.c **** 
 986              		.loc 1 494 3 is_stmt 1 discriminator 3 view .LVU267
 494:Lib/Camera_Middleware/sensors/vd1943/vd1943.c **** 
 987              		.loc 1 494 3 discriminator 3 view .LVU268
 494:Lib/Camera_Middleware/sensors/vd1943/vd1943.c **** 
 988              		.loc 1 494 3 discriminator 4 view .LVU269
 989 0042 2846     		mov	r0, r5
 990 0044 FFF7FEFF 		bl	display_error
 991              	.LVL86:
 494:Lib/Camera_Middleware/sensors/vd1943/vd1943.c **** 
 992              		.loc 1 494 3 discriminator 6 view .LVU270
 494:Lib/Camera_Middleware/sensors/vd1943/vd1943.c **** 
 993              		.loc 1 494 3 discriminator 7 view .LVU271
 994              	.L66:
 497:Lib/Camera_Middleware/sensors/vd1943/vd1943.c **** 
 995              		.loc 1 497 1 is_stmt 0 view .LVU272
 996 0048 2046     		mov	r0, r4
 997 004a 04B0     		add	sp, sp, #16
 998              		.cfi_remember_state
 999              		.cfi_def_cfa_offset 16
 1000              		@ sp needed
 1001 004c 70BD     		pop	{r4, r5, r6, pc}
 1002              	.LVL87:
 1003              	.L73:
 1004              		.cfi_restore_state
 492:Lib/Camera_Middleware/sensors/vd1943/vd1943.c ****   ret = ctx->write16(ctx, VD1943_DIGITAL_GAIN_B(0), gain);
 1005              		.loc 1 492 3 is_stmt 1 discriminator 3 view .LVU273
 492:Lib/Camera_Middleware/sensors/vd1943/vd1943.c ****   ret = ctx->write16(ctx, VD1943_DIGITAL_GAIN_B(0), gain);
 1006              		.loc 1 492 3 discriminator 3 view .LVU274
 492:Lib/Camera_Middleware/sensors/vd1943/vd1943.c ****   ret = ctx->write16(ctx, VD1943_DIGITAL_GAIN_B(0), gain);
ARM GAS  C:\Users\DJESSOU\AppData\Local\Temp\cc3eovRL.s 			page 41


 1007              		.loc 1 492 3 discriminator 6 view .LVU275
 492:Lib/Camera_Middleware/sensors/vd1943/vd1943.c ****   ret = ctx->write16(ctx, VD1943_DIGITAL_GAIN_B(0), gain);
 1008              		.loc 1 492 3 discriminator 8 view .LVU276
 493:Lib/Camera_Middleware/sensors/vd1943/vd1943.c ****   VD1943_TraceError(ctx, ret);
 1009              		.loc 1 493 3 view .LVU277
 493:Lib/Camera_Middleware/sensors/vd1943/vd1943.c ****   VD1943_TraceError(ctx, ret);
 1010              		.loc 1 493 9 is_stmt 0 view .LVU278
 1011 004e 3246     		mov	r2, r6
 1012 0050 40F68441 		movw	r1, #3204
 1013 0054 2846     		mov	r0, r5
 1014              	.LVL88:
 493:Lib/Camera_Middleware/sensors/vd1943/vd1943.c ****   VD1943_TraceError(ctx, ret);
 1015              		.loc 1 493 9 view .LVU279
 1016 0056 6B69     		ldr	r3, [r5, #20]
 1017 0058 9847     		blx	r3
 1018              	.LVL89:
 494:Lib/Camera_Middleware/sensors/vd1943/vd1943.c **** 
 1019              		.loc 1 494 3 is_stmt 1 view .LVU280
 494:Lib/Camera_Middleware/sensors/vd1943/vd1943.c **** 
 1020              		.loc 1 494 3 view .LVU281
 1021 005a 0446     		mov	r4, r0
 1022 005c 0028     		cmp	r0, #0
 1023 005e F3D0     		beq	.L66
 494:Lib/Camera_Middleware/sensors/vd1943/vd1943.c **** 
 1024              		.loc 1 494 3 discriminator 1 view .LVU282
 494:Lib/Camera_Middleware/sensors/vd1943/vd1943.c **** 
 1025              		.loc 1 494 3 discriminator 1 view .LVU283
 1026 0060 4FF4F773 		mov	r3, #494
 1027 0064 0290     		str	r0, [sp, #8]
 1028 0066 E4E7     		b	.L74
 1029              	.L76:
 1030              		.align	2
 1031              	.L75:
 1032 0068 00000000 		.word	__func__.28
 1033 006c 00000000 		.word	.LC4
 1034              		.cfi_endproc
 1035              	.LFE11:
 1037              		.section	.text.VD1943_SetDigitalGain_RGBNIR,"ax",%progbits
 1038              		.align	1
 1039              		.syntax unified
 1040              		.thumb
 1041              		.thumb_func
 1043              	VD1943_SetDigitalGain_RGBNIR:
 1044              	.LVL90:
 1045              	.LFB13:
 510:Lib/Camera_Middleware/sensors/vd1943/vd1943.c ****   int ret;
 1046              		.loc 1 510 1 view -0
 1047              		.cfi_startproc
 1048              		@ args = 0, pretend = 0, frame = 0
 1049              		@ frame_needed = 0, uses_anonymous_args = 0
 511:Lib/Camera_Middleware/sensors/vd1943/vd1943.c **** 
 1050              		.loc 1 511 3 view .LVU285
 513:Lib/Camera_Middleware/sensors/vd1943/vd1943.c ****   if (ret)
 1051              		.loc 1 513 3 view .LVU286
 510:Lib/Camera_Middleware/sensors/vd1943/vd1943.c ****   int ret;
 1052              		.loc 1 510 1 is_stmt 0 view .LVU287
 1053 0000 38B5     		push	{r3, r4, r5, lr}
ARM GAS  C:\Users\DJESSOU\AppData\Local\Temp\cc3eovRL.s 			page 42


 1054              		.cfi_def_cfa_offset 16
 1055              		.cfi_offset 3, -16
 1056              		.cfi_offset 4, -12
 1057              		.cfi_offset 5, -8
 1058              		.cfi_offset 14, -4
 510:Lib/Camera_Middleware/sensors/vd1943/vd1943.c ****   int ret;
 1059              		.loc 1 510 1 view .LVU288
 1060 0002 0446     		mov	r4, r0
 1061 0004 0D46     		mov	r5, r1
 513:Lib/Camera_Middleware/sensors/vd1943/vd1943.c ****   if (ret)
 1062              		.loc 1 513 9 view .LVU289
 1063 0006 FFF7FEFF 		bl	VD1943_SetDigitalGain_RGB
 1064              	.LVL91:
 514:Lib/Camera_Middleware/sensors/vd1943/vd1943.c ****     return ret;
 1065              		.loc 1 514 3 is_stmt 1 view .LVU290
 514:Lib/Camera_Middleware/sensors/vd1943/vd1943.c ****     return ret;
 1066              		.loc 1 514 6 is_stmt 0 view .LVU291
 1067 000a 28B9     		cbnz	r0, .L77
 516:Lib/Camera_Middleware/sensors/vd1943/vd1943.c ****   if (ret)
 1068              		.loc 1 516 3 is_stmt 1 view .LVU292
 516:Lib/Camera_Middleware/sensors/vd1943/vd1943.c ****   if (ret)
 1069              		.loc 1 516 9 is_stmt 0 view .LVU293
 1070 000c 2946     		mov	r1, r5
 1071 000e 2046     		mov	r0, r4
 1072              	.LVL92:
 521:Lib/Camera_Middleware/sensors/vd1943/vd1943.c **** 
 1073              		.loc 1 521 1 view .LVU294
 1074 0010 BDE83840 		pop	{r3, r4, r5, lr}
 1075              		.cfi_remember_state
 1076              		.cfi_restore 14
 1077              		.cfi_restore 5
 1078              		.cfi_restore 4
 1079              		.cfi_restore 3
 1080              		.cfi_def_cfa_offset 0
 1081              	.LVL93:
 516:Lib/Camera_Middleware/sensors/vd1943/vd1943.c ****   if (ret)
 1082              		.loc 1 516 9 view .LVU295
 1083 0014 FFF7FEBF 		b	VD1943_SetDigitalGain_IR
 1084              	.LVL94:
 1085              	.L77:
 1086              		.cfi_restore_state
 521:Lib/Camera_Middleware/sensors/vd1943/vd1943.c **** 
 1087              		.loc 1 521 1 view .LVU296
 1088 0018 38BD     		pop	{r3, r4, r5, pc}
 521:Lib/Camera_Middleware/sensors/vd1943/vd1943.c **** 
 1089              		.loc 1 521 1 view .LVU297
 1090              		.cfi_endproc
 1091              	.LFE13:
 1093              		.section	.text.VD1943_SetExpoSplit_GS,"ax",%progbits
 1094              		.align	1
 1095              		.syntax unified
 1096              		.thumb
 1097              		.thumb_func
 1099              	VD1943_SetExpoSplit_GS:
 1100              	.LVL95:
 1101              	.LFB16:
 550:Lib/Camera_Middleware/sensors/vd1943/vd1943.c ****   unsigned int expo_in_line = (expo_in_us * 1000 + VD1943_LINE_TIME_IN_NS - 1) / VD1943_LINE_TIME_I
ARM GAS  C:\Users\DJESSOU\AppData\Local\Temp\cc3eovRL.s 			page 43


 1102              		.loc 1 550 1 is_stmt 1 view -0
 1103              		.cfi_startproc
 1104              		@ args = 0, pretend = 0, frame = 0
 1105              		@ frame_needed = 0, uses_anonymous_args = 0
 551:Lib/Camera_Middleware/sensors/vd1943/vd1943.c ****   int ret;
 1106              		.loc 1 551 3 view .LVU299
 550:Lib/Camera_Middleware/sensors/vd1943/vd1943.c ****   unsigned int expo_in_line = (expo_in_us * 1000 + VD1943_LINE_TIME_IN_NS - 1) / VD1943_LINE_TIME_I
 1107              		.loc 1 550 1 is_stmt 0 view .LVU300
 1108 0000 7FB5     		push	{r0, r1, r2, r3, r4, r5, r6, lr}
 1109              		.cfi_def_cfa_offset 32
 1110              		.cfi_offset 4, -16
 1111              		.cfi_offset 5, -12
 1112              		.cfi_offset 6, -8
 1113              		.cfi_offset 14, -4
 551:Lib/Camera_Middleware/sensors/vd1943/vd1943.c ****   int ret;
 1114              		.loc 1 551 75 view .LVU301
 1115 0002 43F6A303 		movw	r3, #14499
 1116 0006 4FF47A72 		mov	r2, #1000
 1117 000a 02FB0131 		mla	r1, r2, r1, r3
 1118              	.LVL96:
 554:Lib/Camera_Middleware/sensors/vd1943/vd1943.c ****     return -1;
 1119              		.loc 1 554 6 view .LVU302
 1120 000e 4EF28F23 		movw	r3, #57999
 551:Lib/Camera_Middleware/sensors/vd1943/vd1943.c ****   int ret;
 1121              		.loc 1 551 16 view .LVU303
 1122 0012 43F6A406 		movw	r6, #14500
 554:Lib/Camera_Middleware/sensors/vd1943/vd1943.c ****     return -1;
 1123              		.loc 1 554 6 view .LVU304
 1124 0016 9942     		cmp	r1, r3
 550:Lib/Camera_Middleware/sensors/vd1943/vd1943.c ****   unsigned int expo_in_line = (expo_in_us * 1000 + VD1943_LINE_TIME_IN_NS - 1) / VD1943_LINE_TIME_I
 1125              		.loc 1 550 1 view .LVU305
 1126 0018 0546     		mov	r5, r0
 551:Lib/Camera_Middleware/sensors/vd1943/vd1943.c ****   int ret;
 1127              		.loc 1 551 16 view .LVU306
 1128 001a B1FBF6F6 		udiv	r6, r1, r6
 1129              	.LVL97:
 552:Lib/Camera_Middleware/sensors/vd1943/vd1943.c **** 
 1130              		.loc 1 552 3 is_stmt 1 view .LVU307
 554:Lib/Camera_Middleware/sensors/vd1943/vd1943.c ****     return -1;
 1131              		.loc 1 554 3 view .LVU308
 554:Lib/Camera_Middleware/sensors/vd1943/vd1943.c ****     return -1;
 1132              		.loc 1 554 6 is_stmt 0 view .LVU309
 1133 001e 24D9     		bls	.L84
 557:Lib/Camera_Middleware/sensors/vd1943/vd1943.c ****   VD1943_TraceError(ctx, ret);
 1134              		.loc 1 557 3 is_stmt 1 view .LVU310
 557:Lib/Camera_Middleware/sensors/vd1943/vd1943.c ****   VD1943_TraceError(ctx, ret);
 1135              		.loc 1 557 9 is_stmt 0 view .LVU311
 1136 0020 B6B2     		uxth	r6, r6
 1137              	.LVL98:
 557:Lib/Camera_Middleware/sensors/vd1943/vd1943.c ****   VD1943_TraceError(ctx, ret);
 1138              		.loc 1 557 9 view .LVU312
 1139 0022 3246     		mov	r2, r6
 1140 0024 40F67A41 		movw	r1, #3194
 1141              	.LVL99:
 557:Lib/Camera_Middleware/sensors/vd1943/vd1943.c ****   VD1943_TraceError(ctx, ret);
 1142              		.loc 1 557 9 view .LVU313
 1143 0028 4369     		ldr	r3, [r0, #20]
ARM GAS  C:\Users\DJESSOU\AppData\Local\Temp\cc3eovRL.s 			page 44


 1144 002a 9847     		blx	r3
 1145              	.LVL100:
 558:Lib/Camera_Middleware/sensors/vd1943/vd1943.c **** 
 1146              		.loc 1 558 3 is_stmt 1 view .LVU314
 558:Lib/Camera_Middleware/sensors/vd1943/vd1943.c **** 
 1147              		.loc 1 558 3 view .LVU315
 1148 002c 0446     		mov	r4, r0
 1149 002e 58B9     		cbnz	r0, .L81
 558:Lib/Camera_Middleware/sensors/vd1943/vd1943.c **** 
 1150              		.loc 1 558 3 discriminator 6 view .LVU316
 558:Lib/Camera_Middleware/sensors/vd1943/vd1943.c **** 
 1151              		.loc 1 558 3 discriminator 8 view .LVU317
 560:Lib/Camera_Middleware/sensors/vd1943/vd1943.c ****   VD1943_TraceError(ctx, ret);
 1152              		.loc 1 560 3 view .LVU318
 560:Lib/Camera_Middleware/sensors/vd1943/vd1943.c ****   VD1943_TraceError(ctx, ret);
 1153              		.loc 1 560 9 is_stmt 0 view .LVU319
 1154 0030 3246     		mov	r2, r6
 1155 0032 40F67C41 		movw	r1, #3196
 1156 0036 2846     		mov	r0, r5
 1157              	.LVL101:
 560:Lib/Camera_Middleware/sensors/vd1943/vd1943.c ****   VD1943_TraceError(ctx, ret);
 1158              		.loc 1 560 9 view .LVU320
 1159 0038 6B69     		ldr	r3, [r5, #20]
 1160 003a 9847     		blx	r3
 1161              	.LVL102:
 561:Lib/Camera_Middleware/sensors/vd1943/vd1943.c **** 
 1162              		.loc 1 561 3 is_stmt 1 view .LVU321
 561:Lib/Camera_Middleware/sensors/vd1943/vd1943.c **** 
 1163              		.loc 1 561 3 view .LVU322
 1164 003c 0446     		mov	r4, r0
 1165 003e 88B1     		cbz	r0, .L79
 561:Lib/Camera_Middleware/sensors/vd1943/vd1943.c **** 
 1166              		.loc 1 561 3 discriminator 1 view .LVU323
 561:Lib/Camera_Middleware/sensors/vd1943/vd1943.c **** 
 1167              		.loc 1 561 3 discriminator 1 view .LVU324
 1168 0040 40F23123 		movw	r3, #561
 1169 0044 0290     		str	r0, [sp, #8]
 1170 0046 02E0     		b	.L85
 1171              	.L81:
 558:Lib/Camera_Middleware/sensors/vd1943/vd1943.c **** 
 1172              		.loc 1 558 3 discriminator 1 view .LVU325
 558:Lib/Camera_Middleware/sensors/vd1943/vd1943.c **** 
 1173              		.loc 1 558 3 discriminator 1 view .LVU326
 1174 0048 40F22E23 		movw	r3, #558
 1175 004c 0290     		str	r0, [sp, #8]
 1176              	.L85:
 561:Lib/Camera_Middleware/sensors/vd1943/vd1943.c **** 
 1177              		.loc 1 561 3 is_stmt 0 discriminator 1 view .LVU327
 1178 004e 084A     		ldr	r2, .L86
 1179 0050 2846     		mov	r0, r5
 1180              	.LVL103:
 561:Lib/Camera_Middleware/sensors/vd1943/vd1943.c **** 
 1181              		.loc 1 561 3 discriminator 1 view .LVU328
 1182 0052 0092     		str	r2, [sp]
 1183 0054 0021     		movs	r1, #0
 1184 0056 074A     		ldr	r2, .L86+4
 1185 0058 0193     		str	r3, [sp, #4]
ARM GAS  C:\Users\DJESSOU\AppData\Local\Temp\cc3eovRL.s 			page 45


 1186 005a FFF7FEFF 		bl	VD1943_log_impl
 1187              	.LVL104:
 561:Lib/Camera_Middleware/sensors/vd1943/vd1943.c **** 
 1188              		.loc 1 561 3 is_stmt 1 discriminator 3 view .LVU329
 561:Lib/Camera_Middleware/sensors/vd1943/vd1943.c **** 
 1189              		.loc 1 561 3 discriminator 3 view .LVU330
 561:Lib/Camera_Middleware/sensors/vd1943/vd1943.c **** 
 1190              		.loc 1 561 3 discriminator 4 view .LVU331
 1191 005e 2846     		mov	r0, r5
 1192 0060 FFF7FEFF 		bl	display_error
 1193              	.LVL105:
 561:Lib/Camera_Middleware/sensors/vd1943/vd1943.c **** 
 1194              		.loc 1 561 3 discriminator 6 view .LVU332
 561:Lib/Camera_Middleware/sensors/vd1943/vd1943.c **** 
 1195              		.loc 1 561 3 discriminator 7 view .LVU333
 1196              	.L79:
 564:Lib/Camera_Middleware/sensors/vd1943/vd1943.c **** 
 1197              		.loc 1 564 1 is_stmt 0 view .LVU334
 1198 0064 2046     		mov	r0, r4
 1199 0066 04B0     		add	sp, sp, #16
 1200              		.cfi_remember_state
 1201              		.cfi_def_cfa_offset 16
 1202              		@ sp needed
 1203 0068 70BD     		pop	{r4, r5, r6, pc}
 1204              	.LVL106:
 1205              	.L84:
 1206              		.cfi_restore_state
 555:Lib/Camera_Middleware/sensors/vd1943/vd1943.c **** 
 1207              		.loc 1 555 12 view .LVU335
 1208 006a 4FF0FF34 		mov	r4, #-1
 1209 006e F9E7     		b	.L79
 1210              	.L87:
 1211              		.align	2
 1212              	.L86:
 1213 0070 00000000 		.word	__func__.27
 1214 0074 00000000 		.word	.LC4
 1215              		.cfi_endproc
 1216              	.LFE16:
 1218              		.section	.text.VD1943_SetExpo_GS,"ax",%progbits
 1219              		.align	1
 1220              		.syntax unified
 1221              		.thumb
 1222              		.thumb_func
 1224              	VD1943_SetExpo_GS:
 1225              	.LVL107:
 1226              	.LFB15:
 536:Lib/Camera_Middleware/sensors/vd1943/vd1943.c ****   unsigned int expo_in_line = (expo_in_us * 1000 + VD1943_LINE_TIME_IN_NS - 1) / VD1943_LINE_TIME_I
 1227              		.loc 1 536 1 is_stmt 1 view -0
 1228              		.cfi_startproc
 1229              		@ args = 0, pretend = 0, frame = 0
 1230              		@ frame_needed = 0, uses_anonymous_args = 0
 537:Lib/Camera_Middleware/sensors/vd1943/vd1943.c ****   int ret;
 1231              		.loc 1 537 3 view .LVU337
 537:Lib/Camera_Middleware/sensors/vd1943/vd1943.c ****   int ret;
 1232              		.loc 1 537 75 is_stmt 0 view .LVU338
 1233 0000 4FF47A72 		mov	r2, #1000
 1234 0004 43F6A303 		movw	r3, #14499
ARM GAS  C:\Users\DJESSOU\AppData\Local\Temp\cc3eovRL.s 			page 46


 1235 0008 02FB0131 		mla	r1, r2, r1, r3
 1236              	.LVL108:
 540:Lib/Camera_Middleware/sensors/vd1943/vd1943.c ****     return -1;
 1237              		.loc 1 540 6 view .LVU339
 1238 000c 4EF28F23 		movw	r3, #57999
 537:Lib/Camera_Middleware/sensors/vd1943/vd1943.c ****   int ret;
 1239              		.loc 1 537 16 view .LVU340
 1240 0010 43F6A402 		movw	r2, #14500
 536:Lib/Camera_Middleware/sensors/vd1943/vd1943.c ****   unsigned int expo_in_line = (expo_in_us * 1000 + VD1943_LINE_TIME_IN_NS - 1) / VD1943_LINE_TIME_I
 1241              		.loc 1 536 1 view .LVU341
 1242 0014 30B5     		push	{r4, r5, lr}
 1243              		.cfi_def_cfa_offset 12
 1244              		.cfi_offset 4, -12
 1245              		.cfi_offset 5, -8
 1246              		.cfi_offset 14, -4
 540:Lib/Camera_Middleware/sensors/vd1943/vd1943.c ****     return -1;
 1247              		.loc 1 540 6 view .LVU342
 1248 0016 9942     		cmp	r1, r3
 536:Lib/Camera_Middleware/sensors/vd1943/vd1943.c ****   unsigned int expo_in_line = (expo_in_us * 1000 + VD1943_LINE_TIME_IN_NS - 1) / VD1943_LINE_TIME_I
 1249              		.loc 1 536 1 view .LVU343
 1250 0018 0546     		mov	r5, r0
 537:Lib/Camera_Middleware/sensors/vd1943/vd1943.c ****   int ret;
 1251              		.loc 1 537 16 view .LVU344
 1252 001a B1FBF2F2 		udiv	r2, r1, r2
 1253              	.LVL109:
 538:Lib/Camera_Middleware/sensors/vd1943/vd1943.c **** 
 1254              		.loc 1 538 3 is_stmt 1 view .LVU345
 540:Lib/Camera_Middleware/sensors/vd1943/vd1943.c ****     return -1;
 1255              		.loc 1 540 3 view .LVU346
 536:Lib/Camera_Middleware/sensors/vd1943/vd1943.c ****   unsigned int expo_in_line = (expo_in_us * 1000 + VD1943_LINE_TIME_IN_NS - 1) / VD1943_LINE_TIME_I
 1256              		.loc 1 536 1 is_stmt 0 view .LVU347
 1257 001e 85B0     		sub	sp, sp, #20
 1258              		.cfi_def_cfa_offset 32
 540:Lib/Camera_Middleware/sensors/vd1943/vd1943.c ****     return -1;
 1259              		.loc 1 540 6 view .LVU348
 1260 0020 17D9     		bls	.L91
 543:Lib/Camera_Middleware/sensors/vd1943/vd1943.c ****   VD1943_TraceError(ctx, ret);
 1261              		.loc 1 543 3 is_stmt 1 view .LVU349
 543:Lib/Camera_Middleware/sensors/vd1943/vd1943.c ****   VD1943_TraceError(ctx, ret);
 1262              		.loc 1 543 9 is_stmt 0 view .LVU350
 1263 0022 40F67A41 		movw	r1, #3194
 1264 0026 4369     		ldr	r3, [r0, #20]
 1265 0028 92B2     		uxth	r2, r2
 1266              	.LVL110:
 543:Lib/Camera_Middleware/sensors/vd1943/vd1943.c ****   VD1943_TraceError(ctx, ret);
 1267              		.loc 1 543 9 view .LVU351
 1268 002a 9847     		blx	r3
 1269              	.LVL111:
 544:Lib/Camera_Middleware/sensors/vd1943/vd1943.c **** 
 1270              		.loc 1 544 3 is_stmt 1 view .LVU352
 544:Lib/Camera_Middleware/sensors/vd1943/vd1943.c **** 
 1271              		.loc 1 544 3 view .LVU353
 1272 002c 0446     		mov	r4, r0
 1273 002e 68B1     		cbz	r0, .L88
 544:Lib/Camera_Middleware/sensors/vd1943/vd1943.c **** 
 1274              		.loc 1 544 3 discriminator 1 view .LVU354
 544:Lib/Camera_Middleware/sensors/vd1943/vd1943.c **** 
ARM GAS  C:\Users\DJESSOU\AppData\Local\Temp\cc3eovRL.s 			page 47


 1275              		.loc 1 544 3 discriminator 1 view .LVU355
 1276 0030 4FF40873 		mov	r3, #544
 1277 0034 084A     		ldr	r2, .L95
 1278 0036 0290     		str	r0, [sp, #8]
 1279 0038 0092     		str	r2, [sp]
 1280 003a 2846     		mov	r0, r5
 1281              	.LVL112:
 544:Lib/Camera_Middleware/sensors/vd1943/vd1943.c **** 
 1282              		.loc 1 544 3 is_stmt 0 discriminator 1 view .LVU356
 1283 003c 0021     		movs	r1, #0
 1284 003e 074A     		ldr	r2, .L95+4
 1285 0040 0193     		str	r3, [sp, #4]
 1286 0042 FFF7FEFF 		bl	VD1943_log_impl
 1287              	.LVL113:
 544:Lib/Camera_Middleware/sensors/vd1943/vd1943.c **** 
 1288              		.loc 1 544 3 is_stmt 1 discriminator 3 view .LVU357
 544:Lib/Camera_Middleware/sensors/vd1943/vd1943.c **** 
 1289              		.loc 1 544 3 discriminator 3 view .LVU358
 544:Lib/Camera_Middleware/sensors/vd1943/vd1943.c **** 
 1290              		.loc 1 544 3 discriminator 4 view .LVU359
 1291 0046 2846     		mov	r0, r5
 1292 0048 FFF7FEFF 		bl	display_error
 1293              	.LVL114:
 1294              	.L88:
 547:Lib/Camera_Middleware/sensors/vd1943/vd1943.c **** 
 1295              		.loc 1 547 1 is_stmt 0 view .LVU360
 1296 004c 2046     		mov	r0, r4
 1297 004e 05B0     		add	sp, sp, #20
 1298              		.cfi_remember_state
 1299              		.cfi_def_cfa_offset 12
 1300              		@ sp needed
 1301 0050 30BD     		pop	{r4, r5, pc}
 1302              	.LVL115:
 1303              	.L91:
 1304              		.cfi_restore_state
 541:Lib/Camera_Middleware/sensors/vd1943/vd1943.c **** 
 1305              		.loc 1 541 12 view .LVU361
 1306 0052 4FF0FF34 		mov	r4, #-1
 1307 0056 F9E7     		b	.L88
 1308              	.L96:
 1309              		.align	2
 1310              	.L95:
 1311 0058 00000000 		.word	__func__.26
 1312 005c 00000000 		.word	.LC4
 1313              		.cfi_endproc
 1314              	.LFE15:
 1316              		.section	.rodata.VD1943_ApplyCmdAndWait.str1.1,"aMS",%progbits,1
 1317              	.LC6:
 1318 0000 56443139 		.ascii	"VD1943_DG%d-%d : Apply cmd %d to 0x%04x\012\000"
 1318      34335F44 
 1318      4725642D 
 1318      2564203A 
 1318      20417070 
 1319              		.section	.text.VD1943_ApplyCmdAndWait,"ax",%progbits
 1320              		.align	1
 1321              		.syntax unified
 1322              		.thumb
ARM GAS  C:\Users\DJESSOU\AppData\Local\Temp\cc3eovRL.s 			page 48


 1323              		.thumb_func
 1325              	VD1943_ApplyCmdAndWait:
 1326              	.LVL116:
 1327              	.LFB4:
 311:Lib/Camera_Middleware/sensors/vd1943/vd1943.c ****   int ret;
 1328              		.loc 1 311 1 is_stmt 1 view -0
 1329              		.cfi_startproc
 1330              		@ args = 0, pretend = 0, frame = 0
 1331              		@ frame_needed = 0, uses_anonymous_args = 0
 312:Lib/Camera_Middleware/sensors/vd1943/vd1943.c **** 
 1332              		.loc 1 312 3 view .LVU363
 314:Lib/Camera_Middleware/sensors/vd1943/vd1943.c ****   ret = ctx->write8(ctx, addr, cmd);
 1333              		.loc 1 314 3 view .LVU364
 314:Lib/Camera_Middleware/sensors/vd1943/vd1943.c ****   ret = ctx->write8(ctx, addr, cmd);
 1334              		.loc 1 314 3 view .LVU365
 311:Lib/Camera_Middleware/sensors/vd1943/vd1943.c ****   int ret;
 1335              		.loc 1 311 1 is_stmt 0 view .LVU366
 1336 0000 7FB5     		push	{r0, r1, r2, r3, r4, r5, r6, lr}
 1337              		.cfi_def_cfa_offset 32
 1338              		.cfi_offset 4, -16
 1339              		.cfi_offset 5, -12
 1340              		.cfi_offset 6, -8
 1341              		.cfi_offset 14, -4
 314:Lib/Camera_Middleware/sensors/vd1943/vd1943.c ****   ret = ctx->write8(ctx, addr, cmd);
 1342              		.loc 1 314 3 view .LVU367
 1343 0002 4FF49D73 		mov	r3, #314
 311:Lib/Camera_Middleware/sensors/vd1943/vd1943.c ****   int ret;
 1344              		.loc 1 311 1 view .LVU368
 1345 0006 0546     		mov	r5, r0
 1346 0008 1446     		mov	r4, r2
 1347 000a 0E46     		mov	r6, r1
 314:Lib/Camera_Middleware/sensors/vd1943/vd1943.c ****   ret = ctx->write8(ctx, addr, cmd);
 1348              		.loc 1 314 3 view .LVU369
 1349 000c CDE90121 		strd	r2, r1, [sp, #4]
 1350 0010 0093     		str	r3, [sp]
 1351 0012 0321     		movs	r1, #3
 1352              	.LVL117:
 314:Lib/Camera_Middleware/sensors/vd1943/vd1943.c ****   ret = ctx->write8(ctx, addr, cmd);
 1353              		.loc 1 314 3 view .LVU370
 1354 0014 0023     		movs	r3, #0
 1355 0016 134A     		ldr	r2, .L103
 1356              	.LVL118:
 314:Lib/Camera_Middleware/sensors/vd1943/vd1943.c ****   ret = ctx->write8(ctx, addr, cmd);
 1357              		.loc 1 314 3 view .LVU371
 1358 0018 FFF7FEFF 		bl	VD1943_log_impl
 1359              	.LVL119:
 314:Lib/Camera_Middleware/sensors/vd1943/vd1943.c ****   ret = ctx->write8(ctx, addr, cmd);
 1360              		.loc 1 314 3 is_stmt 1 discriminator 1 view .LVU372
 315:Lib/Camera_Middleware/sensors/vd1943/vd1943.c ****   VD1943_TraceError(ctx, ret);
 1361              		.loc 1 315 3 view .LVU373
 315:Lib/Camera_Middleware/sensors/vd1943/vd1943.c ****   VD1943_TraceError(ctx, ret);
 1362              		.loc 1 315 9 is_stmt 0 view .LVU374
 1363 001c 2246     		mov	r2, r4
 1364 001e 3146     		mov	r1, r6
 1365 0020 2846     		mov	r0, r5
 1366 0022 2B69     		ldr	r3, [r5, #16]
 1367 0024 9847     		blx	r3
ARM GAS  C:\Users\DJESSOU\AppData\Local\Temp\cc3eovRL.s 			page 49


 1368              	.LVL120:
 316:Lib/Camera_Middleware/sensors/vd1943/vd1943.c **** 
 1369              		.loc 1 316 3 is_stmt 1 view .LVU375
 316:Lib/Camera_Middleware/sensors/vd1943/vd1943.c **** 
 1370              		.loc 1 316 3 view .LVU376
 1371 0026 0446     		mov	r4, r0
 1372              	.LVL121:
 316:Lib/Camera_Middleware/sensors/vd1943/vd1943.c **** 
 1373              		.loc 1 316 3 is_stmt 0 view .LVU377
 1374 0028 50B9     		cbnz	r0, .L98
 316:Lib/Camera_Middleware/sensors/vd1943/vd1943.c **** 
 1375              		.loc 1 316 3 is_stmt 1 discriminator 6 view .LVU378
 316:Lib/Camera_Middleware/sensors/vd1943/vd1943.c **** 
 1376              		.loc 1 316 3 discriminator 8 view .LVU379
 318:Lib/Camera_Middleware/sensors/vd1943/vd1943.c ****   VD1943_TraceError(ctx, ret);
 1377              		.loc 1 318 3 view .LVU380
 318:Lib/Camera_Middleware/sensors/vd1943/vd1943.c ****   VD1943_TraceError(ctx, ret);
 1378              		.loc 1 318 9 is_stmt 0 view .LVU381
 1379 002a 0246     		mov	r2, r0
 1380 002c 3146     		mov	r1, r6
 1381 002e 2846     		mov	r0, r5
 1382              	.LVL122:
 318:Lib/Camera_Middleware/sensors/vd1943/vd1943.c ****   VD1943_TraceError(ctx, ret);
 1383              		.loc 1 318 9 view .LVU382
 1384 0030 FFF7FEFF 		bl	VD1943_PollReg8
 1385              	.LVL123:
 319:Lib/Camera_Middleware/sensors/vd1943/vd1943.c **** 
 1386              		.loc 1 319 3 is_stmt 1 view .LVU383
 319:Lib/Camera_Middleware/sensors/vd1943/vd1943.c **** 
 1387              		.loc 1 319 3 view .LVU384
 1388 0034 0446     		mov	r4, r0
 1389 0036 88B1     		cbz	r0, .L97
 319:Lib/Camera_Middleware/sensors/vd1943/vd1943.c **** 
 1390              		.loc 1 319 3 discriminator 1 view .LVU385
 319:Lib/Camera_Middleware/sensors/vd1943/vd1943.c **** 
 1391              		.loc 1 319 3 discriminator 1 view .LVU386
 1392 0038 40F23F13 		movw	r3, #319
 1393 003c 0290     		str	r0, [sp, #8]
 1394 003e 02E0     		b	.L102
 1395              	.L98:
 316:Lib/Camera_Middleware/sensors/vd1943/vd1943.c **** 
 1396              		.loc 1 316 3 discriminator 1 view .LVU387
 316:Lib/Camera_Middleware/sensors/vd1943/vd1943.c **** 
 1397              		.loc 1 316 3 discriminator 1 view .LVU388
 1398 0040 4FF49E73 		mov	r3, #316
 1399 0044 0290     		str	r0, [sp, #8]
 1400              	.L102:
 319:Lib/Camera_Middleware/sensors/vd1943/vd1943.c **** 
 1401              		.loc 1 319 3 is_stmt 0 discriminator 1 view .LVU389
 1402 0046 084A     		ldr	r2, .L103+4
 1403 0048 2846     		mov	r0, r5
 1404              	.LVL124:
 319:Lib/Camera_Middleware/sensors/vd1943/vd1943.c **** 
 1405              		.loc 1 319 3 discriminator 1 view .LVU390
 1406 004a 0092     		str	r2, [sp]
 1407 004c 0021     		movs	r1, #0
 1408 004e 074A     		ldr	r2, .L103+8
ARM GAS  C:\Users\DJESSOU\AppData\Local\Temp\cc3eovRL.s 			page 50


 1409 0050 0193     		str	r3, [sp, #4]
 1410 0052 FFF7FEFF 		bl	VD1943_log_impl
 1411              	.LVL125:
 319:Lib/Camera_Middleware/sensors/vd1943/vd1943.c **** 
 1412              		.loc 1 319 3 is_stmt 1 discriminator 3 view .LVU391
 319:Lib/Camera_Middleware/sensors/vd1943/vd1943.c **** 
 1413              		.loc 1 319 3 discriminator 3 view .LVU392
 319:Lib/Camera_Middleware/sensors/vd1943/vd1943.c **** 
 1414              		.loc 1 319 3 discriminator 4 view .LVU393
 1415 0056 2846     		mov	r0, r5
 1416 0058 FFF7FEFF 		bl	display_error
 1417              	.LVL126:
 319:Lib/Camera_Middleware/sensors/vd1943/vd1943.c **** 
 1418              		.loc 1 319 3 discriminator 6 view .LVU394
 319:Lib/Camera_Middleware/sensors/vd1943/vd1943.c **** 
 1419              		.loc 1 319 3 discriminator 7 view .LVU395
 1420              	.L97:
 322:Lib/Camera_Middleware/sensors/vd1943/vd1943.c **** 
 1421              		.loc 1 322 1 is_stmt 0 view .LVU396
 1422 005c 2046     		mov	r0, r4
 1423 005e 04B0     		add	sp, sp, #16
 1424              		.cfi_def_cfa_offset 16
 1425              		@ sp needed
 1426 0060 70BD     		pop	{r4, r5, r6, pc}
 1427              	.LVL127:
 1428              	.L104:
 322:Lib/Camera_Middleware/sensors/vd1943/vd1943.c **** 
 1429              		.loc 1 322 1 view .LVU397
 1430 0062 00BF     		.align	2
 1431              	.L103:
 1432 0064 00000000 		.word	.LC6
 1433 0068 00000000 		.word	__func__.24
 1434 006c 00000000 		.word	.LC4
 1435              		.cfi_endproc
 1436              	.LFE4:
 1438              		.section	.rodata.VD1943_WaitState.str1.1,"aMS",%progbits,1
 1439              	.LC7:
 1440 0000 56443139 		.ascii	"VD1943_WRN-%d : Unable to reach state %d\012\000"
 1440      34335F57 
 1440      524E2D25 
 1440      64203A20 
 1440      556E6162 
 1441              	.LC8:
 1442 002a 56443139 		.ascii	"VD1943_DG%d-%d : reach state %d\012\000"
 1442      34335F44 
 1442      4725642D 
 1442      2564203A 
 1442      20726561 
 1443              		.section	.text.VD1943_WaitState,"ax",%progbits
 1444              		.align	1
 1445              		.syntax unified
 1446              		.thumb
 1447              		.thumb_func
 1449              	VD1943_WaitState:
 1450              	.LVL128:
 1451              	.LFB3:
 299:Lib/Camera_Middleware/sensors/vd1943/vd1943.c ****   int ret = VD1943_PollReg8(ctx, VD1943_REG_SYSTEM_FSM_STATE, state);
ARM GAS  C:\Users\DJESSOU\AppData\Local\Temp\cc3eovRL.s 			page 51


 1452              		.loc 1 299 1 is_stmt 1 view -0
 1453              		.cfi_startproc
 1454              		@ args = 0, pretend = 0, frame = 0
 1455              		@ frame_needed = 0, uses_anonymous_args = 0
 300:Lib/Camera_Middleware/sensors/vd1943/vd1943.c **** 
 1456              		.loc 1 300 3 view .LVU399
 299:Lib/Camera_Middleware/sensors/vd1943/vd1943.c ****   int ret = VD1943_PollReg8(ctx, VD1943_REG_SYSTEM_FSM_STATE, state);
 1457              		.loc 1 299 1 is_stmt 0 view .LVU400
 1458 0000 73B5     		push	{r0, r1, r4, r5, r6, lr}
 1459              		.cfi_def_cfa_offset 24
 1460              		.cfi_offset 4, -16
 1461              		.cfi_offset 5, -12
 1462              		.cfi_offset 6, -8
 1463              		.cfi_offset 14, -4
 300:Lib/Camera_Middleware/sensors/vd1943/vd1943.c **** 
 1464              		.loc 1 300 13 view .LVU401
 1465 0002 CAB2     		uxtb	r2, r1
 299:Lib/Camera_Middleware/sensors/vd1943/vd1943.c ****   int ret = VD1943_PollReg8(ctx, VD1943_REG_SYSTEM_FSM_STATE, state);
 1466              		.loc 1 299 1 view .LVU402
 1467 0004 0D46     		mov	r5, r1
 300:Lib/Camera_Middleware/sensors/vd1943/vd1943.c **** 
 1468              		.loc 1 300 13 view .LVU403
 1469 0006 4421     		movs	r1, #68
 1470              	.LVL129:
 299:Lib/Camera_Middleware/sensors/vd1943/vd1943.c ****   int ret = VD1943_PollReg8(ctx, VD1943_REG_SYSTEM_FSM_STATE, state);
 1471              		.loc 1 299 1 view .LVU404
 1472 0008 0646     		mov	r6, r0
 300:Lib/Camera_Middleware/sensors/vd1943/vd1943.c **** 
 1473              		.loc 1 300 13 view .LVU405
 1474 000a FFF7FEFF 		bl	VD1943_PollReg8
 1475              	.LVL130:
 302:Lib/Camera_Middleware/sensors/vd1943/vd1943.c ****     VD1943_warn(ctx, "Unable to reach state %d\n", state);
 1476              		.loc 1 302 3 is_stmt 1 view .LVU406
 302:Lib/Camera_Middleware/sensors/vd1943/vd1943.c ****     VD1943_warn(ctx, "Unable to reach state %d\n", state);
 1477              		.loc 1 302 6 is_stmt 0 view .LVU407
 1478 000e 0446     		mov	r4, r0
 1479 0010 50B1     		cbz	r0, .L106
 303:Lib/Camera_Middleware/sensors/vd1943/vd1943.c ****   else
 1480              		.loc 1 303 5 is_stmt 1 view .LVU408
 303:Lib/Camera_Middleware/sensors/vd1943/vd1943.c ****   else
 1481              		.loc 1 303 5 view .LVU409
 1482 0012 40F22F13 		movw	r3, #303
 1483 0016 0121     		movs	r1, #1
 1484 0018 3046     		mov	r0, r6
 1485              	.LVL131:
 303:Lib/Camera_Middleware/sensors/vd1943/vd1943.c ****   else
 1486              		.loc 1 303 5 is_stmt 0 view .LVU410
 1487 001a 094A     		ldr	r2, .L108
 1488 001c 0095     		str	r5, [sp]
 1489 001e FFF7FEFF 		bl	VD1943_log_impl
 1490              	.LVL132:
 303:Lib/Camera_Middleware/sensors/vd1943/vd1943.c ****   else
 1491              		.loc 1 303 5 is_stmt 1 discriminator 1 view .LVU411
 1492              	.L105:
 308:Lib/Camera_Middleware/sensors/vd1943/vd1943.c **** 
 1493              		.loc 1 308 1 is_stmt 0 view .LVU412
 1494 0022 2046     		mov	r0, r4
ARM GAS  C:\Users\DJESSOU\AppData\Local\Temp\cc3eovRL.s 			page 52


 1495 0024 02B0     		add	sp, sp, #8
 1496              		.cfi_remember_state
 1497              		.cfi_def_cfa_offset 16
 1498              		@ sp needed
 1499 0026 70BD     		pop	{r4, r5, r6, pc}
 1500              	.LVL133:
 1501              	.L106:
 1502              		.cfi_restore_state
 1503              	.LBB8:
 1504              	.LBI8:
 298:Lib/Camera_Middleware/sensors/vd1943/vd1943.c **** {
 1505              		.loc 1 298 12 is_stmt 1 view .LVU413
 1506              	.LBB9:
 305:Lib/Camera_Middleware/sensors/vd1943/vd1943.c **** 
 1507              		.loc 1 305 5 view .LVU414
 305:Lib/Camera_Middleware/sensors/vd1943/vd1943.c **** 
 1508              		.loc 1 305 5 view .LVU415
 1509 0028 40F23113 		movw	r3, #305
 1510 002c 0321     		movs	r1, #3
 1511 002e 0093     		str	r3, [sp]
 1512 0030 044A     		ldr	r2, .L108+4
 1513 0032 0346     		mov	r3, r0
 1514 0034 0195     		str	r5, [sp, #4]
 1515 0036 3046     		mov	r0, r6
 1516              	.LVL134:
 305:Lib/Camera_Middleware/sensors/vd1943/vd1943.c **** 
 1517              		.loc 1 305 5 is_stmt 0 view .LVU416
 1518 0038 FFF7FEFF 		bl	VD1943_log_impl
 1519              	.LVL135:
 305:Lib/Camera_Middleware/sensors/vd1943/vd1943.c **** 
 1520              		.loc 1 305 5 view .LVU417
 1521              	.LBE9:
 1522              	.LBE8:
 305:Lib/Camera_Middleware/sensors/vd1943/vd1943.c **** 
 1523              		.loc 1 305 5 is_stmt 1 discriminator 1 view .LVU418
 307:Lib/Camera_Middleware/sensors/vd1943/vd1943.c **** }
 1524              		.loc 1 307 3 view .LVU419
 307:Lib/Camera_Middleware/sensors/vd1943/vd1943.c **** }
 1525              		.loc 1 307 10 is_stmt 0 view .LVU420
 1526 003c F1E7     		b	.L105
 1527              	.L109:
 1528 003e 00BF     		.align	2
 1529              	.L108:
 1530 0040 00000000 		.word	.LC7
 1531 0044 2A000000 		.word	.LC8
 1532              		.cfi_endproc
 1533              	.LFE3:
 1535              		.section	.text.VD1943_GetExpo_RS,"ax",%progbits
 1536              		.align	1
 1537              		.syntax unified
 1538              		.thumb
 1539              		.thumb_func
 1541              	VD1943_GetExpo_RS:
 1542              	.LFB61:
 1543              		.cfi_startproc
 585:Lib/Camera_Middleware/sensors/vd1943/vd1943.c **** {
 1544              		.loc 1 585 12 is_stmt 1 view -0
ARM GAS  C:\Users\DJESSOU\AppData\Local\Temp\cc3eovRL.s 			page 53


 1545              		@ args = 0, pretend = 0, frame = 0
 1546              		@ frame_needed = 0, uses_anonymous_args = 0
 1547              		@ link register save eliminated.
 1548 0000 FFF7FEBF 		b	VD1943_GetExpoCommon
 1549              		.cfi_endproc
 1550              	.LFE61:
 1552              		.section	.text.VD1943_GetExposureRange,"ax",%progbits
 1553              		.align	1
 1554              		.global	VD1943_GetExposureRange
 1555              		.syntax unified
 1556              		.thumb
 1557              		.thumb_func
 1559              	VD1943_GetExposureRange:
 1560              	.LVL136:
 1561              	.LFB35:
1089:Lib/Camera_Middleware/sensors/vd1943/vd1943.c **** 
1090:Lib/Camera_Middleware/sensors/vd1943/vd1943.c **** static int VD1943_SetupFrameRate(VD1943_Ctx_t *ctx)
1091:Lib/Camera_Middleware/sensors/vd1943/vd1943.c **** {
1092:Lib/Camera_Middleware/sensors/vd1943/vd1943.c ****   struct drv_vd1943_ctx *drv_vd1943_ctx = &ctx->ctx;
1093:Lib/Camera_Middleware/sensors/vd1943/vd1943.c ****   uint16_t frame_length;
1094:Lib/Camera_Middleware/sensors/vd1943/vd1943.c ****   int ret;
1095:Lib/Camera_Middleware/sensors/vd1943/vd1943.c **** 
1096:Lib/Camera_Middleware/sensors/vd1943/vd1943.c ****   ret = VD1943_SetupLineLen(ctx);
1097:Lib/Camera_Middleware/sensors/vd1943/vd1943.c ****   if (ret)
1098:Lib/Camera_Middleware/sensors/vd1943/vd1943.c ****     return ret;
1099:Lib/Camera_Middleware/sensors/vd1943/vd1943.c **** 
1100:Lib/Camera_Middleware/sensors/vd1943/vd1943.c ****   ret = VD1943_ComputeFrameLength(ctx, drv_vd1943_ctx->config_save.frame_rate, &frame_length);
1101:Lib/Camera_Middleware/sensors/vd1943/vd1943.c ****   if (ret)
1102:Lib/Camera_Middleware/sensors/vd1943/vd1943.c ****     return ret;
1103:Lib/Camera_Middleware/sensors/vd1943/vd1943.c **** 
1104:Lib/Camera_Middleware/sensors/vd1943/vd1943.c ****   VD1943_dbg(ctx, 0, "Set frame_length to %d to reach %d fps\n", frame_length, drv_vd1943_ctx->conf
1105:Lib/Camera_Middleware/sensors/vd1943/vd1943.c ****   ret = ctx->write16(ctx, VD1943_REG_FRAME_LENGTH(0), frame_length);
1106:Lib/Camera_Middleware/sensors/vd1943/vd1943.c ****   VD1943_TraceError(ctx, ret);
1107:Lib/Camera_Middleware/sensors/vd1943/vd1943.c **** 
1108:Lib/Camera_Middleware/sensors/vd1943/vd1943.c ****  return 0;
1109:Lib/Camera_Middleware/sensors/vd1943/vd1943.c **** }
1110:Lib/Camera_Middleware/sensors/vd1943/vd1943.c **** 
1111:Lib/Camera_Middleware/sensors/vd1943/vd1943.c **** 
1112:Lib/Camera_Middleware/sensors/vd1943/vd1943.c **** int VD1943_GetExposureRange(VD1943_Ctx_t *ctx, unsigned int *min_us, unsigned int *max_us)
1113:Lib/Camera_Middleware/sensors/vd1943/vd1943.c **** {
 1562              		.loc 1 1113 1 view -0
 1563              		.cfi_startproc
 1564              		@ args = 0, pretend = 0, frame = 8
 1565              		@ frame_needed = 0, uses_anonymous_args = 0
1114:Lib/Camera_Middleware/sensors/vd1943/vd1943.c ****   uint16_t frame_length;
 1566              		.loc 1 1114 3 view .LVU423
1115:Lib/Camera_Middleware/sensors/vd1943/vd1943.c ****   int ret;
 1567              		.loc 1 1115 3 view .LVU424
1116:Lib/Camera_Middleware/sensors/vd1943/vd1943.c **** 
1117:Lib/Camera_Middleware/sensors/vd1943/vd1943.c ****   /* Min Exposure is dependant of shutter mode */
1118:Lib/Camera_Middleware/sensors/vd1943/vd1943.c ****   switch (ctx->ctx.config_save.image_processing_mode) {
 1568              		.loc 1 1118 3 view .LVU425
1113:Lib/Camera_Middleware/sensors/vd1943/vd1943.c ****   uint16_t frame_length;
 1569              		.loc 1 1113 1 is_stmt 0 view .LVU426
 1570 0000 13B5     		push	{r0, r1, r4, lr}
 1571              		.cfi_def_cfa_offset 16
 1572              		.cfi_offset 4, -8
ARM GAS  C:\Users\DJESSOU\AppData\Local\Temp\cc3eovRL.s 			page 54


 1573              		.cfi_offset 14, -4
 1574              		.loc 1 1118 31 view .LVU427
 1575 0002 90F84430 		ldrb	r3, [r0, #68]	@ zero_extendqisi2
1113:Lib/Camera_Middleware/sensors/vd1943/vd1943.c ****   uint16_t frame_length;
 1576              		.loc 1 1113 1 view .LVU428
 1577 0006 1446     		mov	r4, r2
 1578              		.loc 1 1118 3 view .LVU429
 1579 0008 122B     		cmp	r3, #18
 1580 000a 06D8     		bhi	.L112
 1581 000c 082B     		cmp	r3, #8
 1582 000e 02D8     		bhi	.L117
 1583 0010 013B     		subs	r3, r3, #1
 1584 0012 052B     		cmp	r3, #5
 1585 0014 19D8     		bhi	.L119
 1586              	.L117:
 1587 0016 3A23     		movs	r3, #58
 1588 0018 03E0     		b	.L113
 1589              	.L112:
 1590 001a 1A3B     		subs	r3, r3, #26
 1591 001c 092B     		cmp	r3, #9
 1592 001e 14D8     		bhi	.L119
 1593 0020 1D23     		movs	r3, #29
 1594              	.L113:
1119:Lib/Camera_Middleware/sensors/vd1943/vd1943.c ****   case VD1943_GS_SS1_NATIVE_8:
1120:Lib/Camera_Middleware/sensors/vd1943/vd1943.c ****   case VD1943_GS_SS1_NATIVE_10:
1121:Lib/Camera_Middleware/sensors/vd1943/vd1943.c ****   case VD1943_GS_SS1_SPLIT_NATIVE_8:
1122:Lib/Camera_Middleware/sensors/vd1943/vd1943.c ****   case VD1943_GS_SS1_SPLIT_NATIVE_10:
1123:Lib/Camera_Middleware/sensors/vd1943/vd1943.c ****   case VD1943_GS_SS1_SPLIT_IR_8:
1124:Lib/Camera_Middleware/sensors/vd1943/vd1943.c ****   case VD1943_GS_SS1_SPLIT_IR_10:
1125:Lib/Camera_Middleware/sensors/vd1943/vd1943.c ****   case VD1943_GS_SS1_RGB_8:
1126:Lib/Camera_Middleware/sensors/vd1943/vd1943.c ****   case VD1943_GS_SS1_RGB_10:
1127:Lib/Camera_Middleware/sensors/vd1943/vd1943.c ****   case VD1943_GS_SS1_IR_8:
1128:Lib/Camera_Middleware/sensors/vd1943/vd1943.c ****   case VD1943_GS_SS1_IR_10:
1129:Lib/Camera_Middleware/sensors/vd1943/vd1943.c ****   case VD1943_GS_SS2_MONO_8:
1130:Lib/Camera_Middleware/sensors/vd1943/vd1943.c ****   case VD1943_GS_SS2_MONO_10:
1131:Lib/Camera_Middleware/sensors/vd1943/vd1943.c ****   case VD1943_GS_SS4_MONO_8:
1132:Lib/Camera_Middleware/sensors/vd1943/vd1943.c ****   case VD1943_GS_SS4_MONO_10:
1133:Lib/Camera_Middleware/sensors/vd1943/vd1943.c ****   case VD1943_GS_SS32_MONO_8:
1134:Lib/Camera_Middleware/sensors/vd1943/vd1943.c ****   case VD1943_GS_SS32_MONO_10:
1135:Lib/Camera_Middleware/sensors/vd1943/vd1943.c ****     *min_us = (4 * VD1943_LINE_TIME_IN_NS) / 1000;
 1595              		.loc 1 1135 13 view .LVU430
 1596 0022 0B60     		str	r3, [r1]
1136:Lib/Camera_Middleware/sensors/vd1943/vd1943.c ****     break;
1137:Lib/Camera_Middleware/sensors/vd1943/vd1943.c ****   case VD1943_RS_SDR_NATIVE_8:
1138:Lib/Camera_Middleware/sensors/vd1943/vd1943.c ****   case VD1943_RS_SDR_NATIVE_10:
1139:Lib/Camera_Middleware/sensors/vd1943/vd1943.c ****   case VD1943_RS_SDR_NATIVE_12:
1140:Lib/Camera_Middleware/sensors/vd1943/vd1943.c ****   case VD1943_RS_SDR_RGB_8:
1141:Lib/Camera_Middleware/sensors/vd1943/vd1943.c ****   case VD1943_RS_SDR_RGB_10:
1142:Lib/Camera_Middleware/sensors/vd1943/vd1943.c ****   case VD1943_RS_SDR_RGB_12:
1143:Lib/Camera_Middleware/sensors/vd1943/vd1943.c ****   case VD1943_RS_HDR_NATIVE_10:
1144:Lib/Camera_Middleware/sensors/vd1943/vd1943.c ****   case VD1943_RS_HDR_NATIVE_12:
1145:Lib/Camera_Middleware/sensors/vd1943/vd1943.c ****   case VD1943_RS_HDR_RGB_10:
1146:Lib/Camera_Middleware/sensors/vd1943/vd1943.c ****   case VD1943_RS_HDR_RGB_12:
1147:Lib/Camera_Middleware/sensors/vd1943/vd1943.c ****     *min_us = (2 * VD1943_LINE_TIME_IN_NS) / 1000;
1148:Lib/Camera_Middleware/sensors/vd1943/vd1943.c ****     break;
1149:Lib/Camera_Middleware/sensors/vd1943/vd1943.c ****   default:
1150:Lib/Camera_Middleware/sensors/vd1943/vd1943.c ****     return -1;
ARM GAS  C:\Users\DJESSOU\AppData\Local\Temp\cc3eovRL.s 			page 55


1151:Lib/Camera_Middleware/sensors/vd1943/vd1943.c ****   }
1152:Lib/Camera_Middleware/sensors/vd1943/vd1943.c **** 
1153:Lib/Camera_Middleware/sensors/vd1943/vd1943.c ****   /* Max Exposure is dependant of framelength */
1154:Lib/Camera_Middleware/sensors/vd1943/vd1943.c ****   ret = VD1943_ComputeFrameLength(ctx, ctx->ctx.config_save.frame_rate, &frame_length);
 1597              		.loc 1 1154 3 is_stmt 1 view .LVU431
 1598              		.loc 1 1154 9 is_stmt 0 view .LVU432
 1599 0024 016C     		ldr	r1, [r0, #64]
 1600              	.LVL137:
 1601              		.loc 1 1154 9 view .LVU433
 1602 0026 0DF10602 		add	r2, sp, #6
 1603              	.LVL138:
 1604              		.loc 1 1154 9 view .LVU434
 1605 002a FFF7FEFF 		bl	VD1943_ComputeFrameLength
 1606              	.LVL139:
1155:Lib/Camera_Middleware/sensors/vd1943/vd1943.c ****   if (ret)
 1607              		.loc 1 1155 3 is_stmt 1 view .LVU435
 1608              		.loc 1 1155 6 is_stmt 0 view .LVU436
 1609 002e 50B9     		cbnz	r0, .L111
1156:Lib/Camera_Middleware/sensors/vd1943/vd1943.c ****     return ret;
1157:Lib/Camera_Middleware/sensors/vd1943/vd1943.c ****   *max_us = (frame_length - VD1943_EXPOSURE_MARGIN) * VD1943_LINE_TIME_IN_NS / 1000;
 1610              		.loc 1 1157 3 is_stmt 1 view .LVU437
 1611              		.loc 1 1157 53 is_stmt 0 view .LVU438
 1612 0030 43F6A402 		movw	r2, #14500
 1613              		.loc 1 1157 27 view .LVU439
 1614 0034 BDF80630 		ldrh	r3, [sp, #6]
 1615 0038 643B     		subs	r3, r3, #100
 1616              		.loc 1 1157 53 view .LVU440
 1617 003a 5343     		muls	r3, r2, r3
 1618              		.loc 1 1157 78 view .LVU441
 1619 003c 4FF47A72 		mov	r2, #1000
 1620 0040 93FBF2F3 		sdiv	r3, r3, r2
 1621              		.loc 1 1157 11 view .LVU442
 1622 0044 2360     		str	r3, [r4]
1158:Lib/Camera_Middleware/sensors/vd1943/vd1943.c **** 
1159:Lib/Camera_Middleware/sensors/vd1943/vd1943.c ****   return 0;
 1623              		.loc 1 1159 3 is_stmt 1 view .LVU443
 1624              	.LVL140:
 1625              	.L111:
1160:Lib/Camera_Middleware/sensors/vd1943/vd1943.c **** }
 1626              		.loc 1 1160 1 is_stmt 0 view .LVU444
 1627 0046 02B0     		add	sp, sp, #8
 1628              		.cfi_remember_state
 1629              		.cfi_def_cfa_offset 8
 1630              		@ sp needed
 1631 0048 10BD     		pop	{r4, pc}
 1632              	.LVL141:
 1633              	.L119:
 1634              		.cfi_restore_state
1118:Lib/Camera_Middleware/sensors/vd1943/vd1943.c ****   case VD1943_GS_SS1_NATIVE_8:
 1635              		.loc 1 1118 3 view .LVU445
 1636 004a 4FF0FF30 		mov	r0, #-1
 1637              	.LVL142:
1118:Lib/Camera_Middleware/sensors/vd1943/vd1943.c ****   case VD1943_GS_SS1_NATIVE_8:
 1638              		.loc 1 1118 3 view .LVU446
 1639 004e FAE7     		b	.L111
 1640              		.cfi_endproc
 1641              	.LFE35:
ARM GAS  C:\Users\DJESSOU\AppData\Local\Temp\cc3eovRL.s 			page 56


 1643              		.section	.rodata.VD1943_Init.str1.1,"aMS",%progbits,1
 1644              	.LC9:
 1645 0000 56443139 		.ascii	"VD1943_ERR-%d : ext_clock_freq_in_hz out of range\000"
 1645      34335F45 
 1645      52522D25 
 1645      64203A20 
 1645      6578745F 
 1646              	.LC10:
 1647 0032 56443139 		.ascii	"VD1943_ERR-%d : data_rate_in_mps out of range\000"
 1647      34335F45 
 1647      52522D25 
 1647      64203A20 
 1647      64617461 
 1648              	.LC11:
 1649 0060 56443139 		.ascii	"VD1943_ERR-%d : datalane_nb out of range\000"
 1649      34335F45 
 1649      52522D25 
 1649      64203A20 
 1649      64617461 
 1650              	.LC12:
 1651 0089 56443139 		.ascii	"VD1943_ERR-%d : resolution out of range\000"
 1651      34335F45 
 1651      52522D25 
 1651      64203A20 
 1651      7265736F 
 1652              	.LC13:
 1653 00b1 3000     		.ascii	"0\000"
 1654              	.LC14:
 1655 00b3 56443139 		.ascii	"VD1943_DG%d-%d : model_id = 0x%08x\012\000"
 1655      34335F44 
 1655      4725642D 
 1655      2564203A 
 1655      206D6F64 
 1656              	.LC15:
 1657 00d7 56443139 		.ascii	"VD1943_ERR-%d : Unsupported model id: 0x%08x\012\000"
 1657      34335F45 
 1657      52522D25 
 1657      64203A20 
 1657      556E7375 
 1658              	.LC16:
 1659 0105 56443139 		.ascii	"VD1943_DG%d-%d : rom revision = 0x%08x\012\000"
 1659      34335F44 
 1659      4725642D 
 1659      2564203A 
 1659      20726F6D 
 1660              	.LC17:
 1661 012d 56443139 		.ascii	"VD1943_ERR-%d : Unsupported rom revision: 0x%08x\012"
 1661      34335F45 
 1661      52522D25 
 1661      64203A20 
 1661      556E7375 
 1662 015e 00       		.ascii	"\000"
 1663              	.LC18:
 1664 015f 56443139 		.ascii	"VD1943_DG%d-%d : optical revision = 0x%04x\012\000"
 1664      34335F44 
 1664      4725642D 
 1664      2564203A 
ARM GAS  C:\Users\DJESSOU\AppData\Local\Temp\cc3eovRL.s 			page 57


 1664      206F7074 
 1665              	.LC19:
 1666 018b 56443139 		.ascii	"VD1943_NOT-%d : patch = %d.%d\012\000"
 1666      34335F4E 
 1666      4F542D25 
 1666      64203A20 
 1666      70617463 
 1667              		.section	.text.VD1943_Init,"ax",%progbits
 1668              		.align	1
 1669              		.global	VD1943_Init
 1670              		.syntax unified
 1671              		.thumb
 1672              		.thumb_func
 1674              	VD1943_Init:
 1675              	.LVL143:
 1676              	.LFB46:
1161:Lib/Camera_Middleware/sensors/vd1943/vd1943.c **** 
1162:Lib/Camera_Middleware/sensors/vd1943/vd1943.c **** static int VD1943_SetupMirrorFlip(VD1943_Ctx_t *ctx)
1163:Lib/Camera_Middleware/sensors/vd1943/vd1943.c **** {
1164:Lib/Camera_Middleware/sensors/vd1943/vd1943.c ****   struct drv_vd1943_ctx *drv_vd1943_ctx = &ctx->ctx;
1165:Lib/Camera_Middleware/sensors/vd1943/vd1943.c ****   uint8_t mode;
1166:Lib/Camera_Middleware/sensors/vd1943/vd1943.c ****   int ret;
1167:Lib/Camera_Middleware/sensors/vd1943/vd1943.c **** 
1168:Lib/Camera_Middleware/sensors/vd1943/vd1943.c ****   switch (drv_vd1943_ctx->config_save.flip_mirror_mode) {
1169:Lib/Camera_Middleware/sensors/vd1943/vd1943.c ****   case VD1943_MIRROR_FLIP_NONE:
1170:Lib/Camera_Middleware/sensors/vd1943/vd1943.c ****     mode = 0;
1171:Lib/Camera_Middleware/sensors/vd1943/vd1943.c ****     break;
1172:Lib/Camera_Middleware/sensors/vd1943/vd1943.c ****   case VD1943_FLIP:
1173:Lib/Camera_Middleware/sensors/vd1943/vd1943.c ****     mode = 2;
1174:Lib/Camera_Middleware/sensors/vd1943/vd1943.c ****     break;
1175:Lib/Camera_Middleware/sensors/vd1943/vd1943.c ****   case VD1943_MIRROR:
1176:Lib/Camera_Middleware/sensors/vd1943/vd1943.c ****     mode = 1;
1177:Lib/Camera_Middleware/sensors/vd1943/vd1943.c ****     break;
1178:Lib/Camera_Middleware/sensors/vd1943/vd1943.c ****   case VD1943_MIRROR_FLIP:
1179:Lib/Camera_Middleware/sensors/vd1943/vd1943.c ****     mode = 3;
1180:Lib/Camera_Middleware/sensors/vd1943/vd1943.c ****     break;
1181:Lib/Camera_Middleware/sensors/vd1943/vd1943.c ****   default:
1182:Lib/Camera_Middleware/sensors/vd1943/vd1943.c ****     return -1;
1183:Lib/Camera_Middleware/sensors/vd1943/vd1943.c ****   }
1184:Lib/Camera_Middleware/sensors/vd1943/vd1943.c **** 
1185:Lib/Camera_Middleware/sensors/vd1943/vd1943.c ****   ret = ctx->write8(ctx, VD1943_REG_ORIENTATION, mode);
1186:Lib/Camera_Middleware/sensors/vd1943/vd1943.c ****   VD1943_TraceError(ctx, ret);
1187:Lib/Camera_Middleware/sensors/vd1943/vd1943.c **** 
1188:Lib/Camera_Middleware/sensors/vd1943/vd1943.c ****   return 0;
1189:Lib/Camera_Middleware/sensors/vd1943/vd1943.c **** }
1190:Lib/Camera_Middleware/sensors/vd1943/vd1943.c **** 
1191:Lib/Camera_Middleware/sensors/vd1943/vd1943.c **** static int VD1943_SetupPatGen(VD1943_Ctx_t *ctx)
1192:Lib/Camera_Middleware/sensors/vd1943/vd1943.c **** {
1193:Lib/Camera_Middleware/sensors/vd1943/vd1943.c ****   struct drv_vd1943_ctx *drv_vd1943_ctx = &ctx->ctx;
1194:Lib/Camera_Middleware/sensors/vd1943/vd1943.c ****   uint16_t reg16;
1195:Lib/Camera_Middleware/sensors/vd1943/vd1943.c ****   int ret;
1196:Lib/Camera_Middleware/sensors/vd1943/vd1943.c **** 
1197:Lib/Camera_Middleware/sensors/vd1943/vd1943.c ****   switch (drv_vd1943_ctx->config_save.patgen) {
1198:Lib/Camera_Middleware/sensors/vd1943/vd1943.c ****   case VD1943_PATGEN_DISABLE:
1199:Lib/Camera_Middleware/sensors/vd1943/vd1943.c ****     reg16 = VD1943_PATGEN_CTRL_DISABLE;
1200:Lib/Camera_Middleware/sensors/vd1943/vd1943.c ****     break;
1201:Lib/Camera_Middleware/sensors/vd1943/vd1943.c ****   case VD1943_PATGEN_DIAGONAL_GRAYSCALE:
ARM GAS  C:\Users\DJESSOU\AppData\Local\Temp\cc3eovRL.s 			page 58


1202:Lib/Camera_Middleware/sensors/vd1943/vd1943.c ****     reg16 = VD1943_PATGEN_CTRL_DGREY;
1203:Lib/Camera_Middleware/sensors/vd1943/vd1943.c ****     break;
1204:Lib/Camera_Middleware/sensors/vd1943/vd1943.c ****   case VD1943_PATGEN_PSEUDO_RANDOM:
1205:Lib/Camera_Middleware/sensors/vd1943/vd1943.c ****     reg16 = VD1943_PATGEN_CTRL_PN28;
1206:Lib/Camera_Middleware/sensors/vd1943/vd1943.c ****     break;
1207:Lib/Camera_Middleware/sensors/vd1943/vd1943.c ****   default:
1208:Lib/Camera_Middleware/sensors/vd1943/vd1943.c ****     return -1;
1209:Lib/Camera_Middleware/sensors/vd1943/vd1943.c ****   }
1210:Lib/Camera_Middleware/sensors/vd1943/vd1943.c **** 
1211:Lib/Camera_Middleware/sensors/vd1943/vd1943.c ****   ret = ctx->write16(ctx, VD1943_REG_PATGEN_CTRL, reg16);
1212:Lib/Camera_Middleware/sensors/vd1943/vd1943.c ****   VD1943_TraceError(ctx, ret);
1213:Lib/Camera_Middleware/sensors/vd1943/vd1943.c **** 
1214:Lib/Camera_Middleware/sensors/vd1943/vd1943.c ****   return 0;
1215:Lib/Camera_Middleware/sensors/vd1943/vd1943.c **** }
1216:Lib/Camera_Middleware/sensors/vd1943/vd1943.c **** 
1217:Lib/Camera_Middleware/sensors/vd1943/vd1943.c **** static int VD1943_Gpios(VD1943_Ctx_t *ctx)
1218:Lib/Camera_Middleware/sensors/vd1943/vd1943.c **** {
1219:Lib/Camera_Middleware/sensors/vd1943/vd1943.c ****   struct drv_vd1943_ctx *drv_vd1943_ctx = &ctx->ctx;
1220:Lib/Camera_Middleware/sensors/vd1943/vd1943.c ****   int ret;
1221:Lib/Camera_Middleware/sensors/vd1943/vd1943.c ****   int i;
1222:Lib/Camera_Middleware/sensors/vd1943/vd1943.c **** 
1223:Lib/Camera_Middleware/sensors/vd1943/vd1943.c ****   for (i = 0; i < VD1943_GPIO_NB; i++) {
1224:Lib/Camera_Middleware/sensors/vd1943/vd1943.c ****     ret = ctx->write8(ctx, VD1943_REG_GPIO_x_CTRL(i), drv_vd1943_ctx->config_save.gpios[i].gpio_ctr
1225:Lib/Camera_Middleware/sensors/vd1943/vd1943.c ****     VD1943_TraceError(ctx, ret);
1226:Lib/Camera_Middleware/sensors/vd1943/vd1943.c ****     ret = ctx->write8(ctx, VD1943_REG_GPIO_CTRL(0), drv_vd1943_ctx->config_save.gpios[i].enable);
1227:Lib/Camera_Middleware/sensors/vd1943/vd1943.c ****     VD1943_TraceError(ctx, ret);
1228:Lib/Camera_Middleware/sensors/vd1943/vd1943.c ****   }
1229:Lib/Camera_Middleware/sensors/vd1943/vd1943.c **** 
1230:Lib/Camera_Middleware/sensors/vd1943/vd1943.c ****   return 0;
1231:Lib/Camera_Middleware/sensors/vd1943/vd1943.c **** }
1232:Lib/Camera_Middleware/sensors/vd1943/vd1943.c **** 
1233:Lib/Camera_Middleware/sensors/vd1943/vd1943.c **** static int VD1943_VT_Sync(VD1943_Ctx_t *ctx)
1234:Lib/Camera_Middleware/sensors/vd1943/vd1943.c **** {
1235:Lib/Camera_Middleware/sensors/vd1943/vd1943.c ****   struct drv_vd1943_ctx *drv_vd1943_ctx = &ctx->ctx;
1236:Lib/Camera_Middleware/sensors/vd1943/vd1943.c ****   int i;
1237:Lib/Camera_Middleware/sensors/vd1943/vd1943.c ****   int ret;
1238:Lib/Camera_Middleware/sensors/vd1943/vd1943.c **** 
1239:Lib/Camera_Middleware/sensors/vd1943/vd1943.c ****   /* If Slave mode is enabled, ensure at lease one GPIO is configured accordingly */
1240:Lib/Camera_Middleware/sensors/vd1943/vd1943.c ****   if (drv_vd1943_ctx->config_save.sync_mode == VD1943_SLAVE) {
1241:Lib/Camera_Middleware/sensors/vd1943/vd1943.c ****     for (i = 0; i < VD1943_GPIO_NB; i++) {
1242:Lib/Camera_Middleware/sensors/vd1943/vd1943.c ****       if (((drv_vd1943_ctx->config_save.gpios[i].gpio_ctrl & VD1943_GPIO_FSYNC_IN) == VD1943_GPIO_F
1243:Lib/Camera_Middleware/sensors/vd1943/vd1943.c ****         (drv_vd1943_ctx->config_save.gpios[i].enable == VD1943_GPIO_ENABLE)) {
1244:Lib/Camera_Middleware/sensors/vd1943/vd1943.c ****         break;
1245:Lib/Camera_Middleware/sensors/vd1943/vd1943.c ****       }
1246:Lib/Camera_Middleware/sensors/vd1943/vd1943.c ****     }
1247:Lib/Camera_Middleware/sensors/vd1943/vd1943.c **** 
1248:Lib/Camera_Middleware/sensors/vd1943/vd1943.c ****     if (i == VD1943_GPIO_NB) {
1249:Lib/Camera_Middleware/sensors/vd1943/vd1943.c ****       // Slave mode is selected but no GPIO is configured
1250:Lib/Camera_Middleware/sensors/vd1943/vd1943.c ****       return -1;
1251:Lib/Camera_Middleware/sensors/vd1943/vd1943.c ****     }
1252:Lib/Camera_Middleware/sensors/vd1943/vd1943.c ****   }
1253:Lib/Camera_Middleware/sensors/vd1943/vd1943.c **** 
1254:Lib/Camera_Middleware/sensors/vd1943/vd1943.c ****   ret = ctx->write8(ctx, VD1943_REG_VT_CTRL, drv_vd1943_ctx->config_save.sync_mode);
1255:Lib/Camera_Middleware/sensors/vd1943/vd1943.c ****   VD1943_TraceError(ctx, ret);
1256:Lib/Camera_Middleware/sensors/vd1943/vd1943.c **** 
1257:Lib/Camera_Middleware/sensors/vd1943/vd1943.c ****   return 0;
1258:Lib/Camera_Middleware/sensors/vd1943/vd1943.c **** }
ARM GAS  C:\Users\DJESSOU\AppData\Local\Temp\cc3eovRL.s 			page 59


1259:Lib/Camera_Middleware/sensors/vd1943/vd1943.c **** 
1260:Lib/Camera_Middleware/sensors/vd1943/vd1943.c **** static int VD1943_SafetyDisable(VD1943_Ctx_t *ctx)
1261:Lib/Camera_Middleware/sensors/vd1943/vd1943.c **** {
1262:Lib/Camera_Middleware/sensors/vd1943/vd1943.c ****   int ret;
1263:Lib/Camera_Middleware/sensors/vd1943/vd1943.c **** 
1264:Lib/Camera_Middleware/sensors/vd1943/vd1943.c ****   ret = ctx->write8(ctx, VD1943_REG_DIAG_DISABLE_FW_0_ERR, VD1943_DIAG_DISABLE_FW_0_ERR_UI_CRC);
1265:Lib/Camera_Middleware/sensors/vd1943/vd1943.c ****   VD1943_TraceError(ctx, ret);
1266:Lib/Camera_Middleware/sensors/vd1943/vd1943.c ****   ret = ctx->write8(ctx, VD1943_REG_DIAG_DISABLE_FW_1_ERR, VD1943_DIAG_DISABLE_FW_1_ERR_TASK_MONITO
1267:Lib/Camera_Middleware/sensors/vd1943/vd1943.c ****   VD1943_TraceError(ctx, ret);
1268:Lib/Camera_Middleware/sensors/vd1943/vd1943.c ****   ret = ctx->write8(ctx, VD1943_REG_DIAG_DISABLE_STREAMING_ERR, VD1943_DIAG_DISABLE_STREAMING_ERR_A
1269:Lib/Camera_Middleware/sensors/vd1943/vd1943.c ****   VD1943_TraceError(ctx, ret);
1270:Lib/Camera_Middleware/sensors/vd1943/vd1943.c **** 
1271:Lib/Camera_Middleware/sensors/vd1943/vd1943.c ****   return 0;
1272:Lib/Camera_Middleware/sensors/vd1943/vd1943.c **** }
1273:Lib/Camera_Middleware/sensors/vd1943/vd1943.c **** 
1274:Lib/Camera_Middleware/sensors/vd1943/vd1943.c **** static int VD1943_Setup(VD1943_Ctx_t *ctx)
1275:Lib/Camera_Middleware/sensors/vd1943/vd1943.c **** {
1276:Lib/Camera_Middleware/sensors/vd1943/vd1943.c ****   int ret;
1277:Lib/Camera_Middleware/sensors/vd1943/vd1943.c **** 
1278:Lib/Camera_Middleware/sensors/vd1943/vd1943.c ****   ret = VD1943_SetupOutput(ctx);
1279:Lib/Camera_Middleware/sensors/vd1943/vd1943.c ****   if (ret)
1280:Lib/Camera_Middleware/sensors/vd1943/vd1943.c ****     return ret;
1281:Lib/Camera_Middleware/sensors/vd1943/vd1943.c **** 
1282:Lib/Camera_Middleware/sensors/vd1943/vd1943.c ****   ret = VD1943_SetupSize(ctx);
1283:Lib/Camera_Middleware/sensors/vd1943/vd1943.c ****   if (ret)
1284:Lib/Camera_Middleware/sensors/vd1943/vd1943.c ****     return ret;
1285:Lib/Camera_Middleware/sensors/vd1943/vd1943.c **** 
1286:Lib/Camera_Middleware/sensors/vd1943/vd1943.c ****   ret = VD1943_SetupFrameRate(ctx);
1287:Lib/Camera_Middleware/sensors/vd1943/vd1943.c ****   if (ret)
1288:Lib/Camera_Middleware/sensors/vd1943/vd1943.c ****     return ret;
1289:Lib/Camera_Middleware/sensors/vd1943/vd1943.c **** 
1290:Lib/Camera_Middleware/sensors/vd1943/vd1943.c ****   ret = VD1943_SetupMirrorFlip(ctx);
1291:Lib/Camera_Middleware/sensors/vd1943/vd1943.c ****   if (ret)
1292:Lib/Camera_Middleware/sensors/vd1943/vd1943.c ****     return ret;
1293:Lib/Camera_Middleware/sensors/vd1943/vd1943.c **** 
1294:Lib/Camera_Middleware/sensors/vd1943/vd1943.c ****   ret = VD1943_SetupPatGen(ctx);
1295:Lib/Camera_Middleware/sensors/vd1943/vd1943.c ****   if (ret)
1296:Lib/Camera_Middleware/sensors/vd1943/vd1943.c ****     return ret;
1297:Lib/Camera_Middleware/sensors/vd1943/vd1943.c **** 
1298:Lib/Camera_Middleware/sensors/vd1943/vd1943.c ****   ret = VD1943_Gpios(ctx);
1299:Lib/Camera_Middleware/sensors/vd1943/vd1943.c ****   if (ret)
1300:Lib/Camera_Middleware/sensors/vd1943/vd1943.c ****     return ret;
1301:Lib/Camera_Middleware/sensors/vd1943/vd1943.c **** 
1302:Lib/Camera_Middleware/sensors/vd1943/vd1943.c ****   ret = VD1943_VT_Sync(ctx);
1303:Lib/Camera_Middleware/sensors/vd1943/vd1943.c ****   if (ret)
1304:Lib/Camera_Middleware/sensors/vd1943/vd1943.c ****     return ret;
1305:Lib/Camera_Middleware/sensors/vd1943/vd1943.c **** 
1306:Lib/Camera_Middleware/sensors/vd1943/vd1943.c ****   ret = VD1943_SafetyDisable(ctx);
1307:Lib/Camera_Middleware/sensors/vd1943/vd1943.c ****   if (ret)
1308:Lib/Camera_Middleware/sensors/vd1943/vd1943.c ****     return ret;
1309:Lib/Camera_Middleware/sensors/vd1943/vd1943.c **** 
1310:Lib/Camera_Middleware/sensors/vd1943/vd1943.c ****   return 0;
1311:Lib/Camera_Middleware/sensors/vd1943/vd1943.c **** }
1312:Lib/Camera_Middleware/sensors/vd1943/vd1943.c **** 
1313:Lib/Camera_Middleware/sensors/vd1943/vd1943.c **** static int VD1943_StartStreaming(VD1943_Ctx_t *ctx)
1314:Lib/Camera_Middleware/sensors/vd1943/vd1943.c **** {
1315:Lib/Camera_Middleware/sensors/vd1943/vd1943.c ****   int ret;
ARM GAS  C:\Users\DJESSOU\AppData\Local\Temp\cc3eovRL.s 			page 60


1316:Lib/Camera_Middleware/sensors/vd1943/vd1943.c **** 
1317:Lib/Camera_Middleware/sensors/vd1943/vd1943.c ****   ret = VD1943_ApplyCmdAndWait(ctx, VD1943_REG_SW_STBY, VD1943_CMD_START_STREAMING);
1318:Lib/Camera_Middleware/sensors/vd1943/vd1943.c ****   if (ret)
1319:Lib/Camera_Middleware/sensors/vd1943/vd1943.c ****     return ret;
1320:Lib/Camera_Middleware/sensors/vd1943/vd1943.c **** 
1321:Lib/Camera_Middleware/sensors/vd1943/vd1943.c ****   ret = VD1943_WaitState(ctx, VD1943_STREAMING);
1322:Lib/Camera_Middleware/sensors/vd1943/vd1943.c ****   if (ret)
1323:Lib/Camera_Middleware/sensors/vd1943/vd1943.c ****     return ret;
1324:Lib/Camera_Middleware/sensors/vd1943/vd1943.c **** 
1325:Lib/Camera_Middleware/sensors/vd1943/vd1943.c ****   VD1943_notice(ctx, "Streaming is on\n");
1326:Lib/Camera_Middleware/sensors/vd1943/vd1943.c **** 
1327:Lib/Camera_Middleware/sensors/vd1943/vd1943.c ****   return 0;
1328:Lib/Camera_Middleware/sensors/vd1943/vd1943.c **** }
1329:Lib/Camera_Middleware/sensors/vd1943/vd1943.c **** 
1330:Lib/Camera_Middleware/sensors/vd1943/vd1943.c **** static int VD1943_StopStreaming(VD1943_Ctx_t *ctx)
1331:Lib/Camera_Middleware/sensors/vd1943/vd1943.c **** {
1332:Lib/Camera_Middleware/sensors/vd1943/vd1943.c ****   int ret;
1333:Lib/Camera_Middleware/sensors/vd1943/vd1943.c **** 
1334:Lib/Camera_Middleware/sensors/vd1943/vd1943.c ****   ret = VD1943_ApplyCmdAndWait(ctx, VD1943_REG_STREAMING, VD1943_CMD_STOP_STREAMING);
1335:Lib/Camera_Middleware/sensors/vd1943/vd1943.c ****   if (ret)
1336:Lib/Camera_Middleware/sensors/vd1943/vd1943.c ****     return ret;
1337:Lib/Camera_Middleware/sensors/vd1943/vd1943.c **** 
1338:Lib/Camera_Middleware/sensors/vd1943/vd1943.c ****   ret = VD1943_WaitState(ctx, VD1943_SW_STBY);
1339:Lib/Camera_Middleware/sensors/vd1943/vd1943.c ****   if (ret)
1340:Lib/Camera_Middleware/sensors/vd1943/vd1943.c ****     return ret;
1341:Lib/Camera_Middleware/sensors/vd1943/vd1943.c **** 
1342:Lib/Camera_Middleware/sensors/vd1943/vd1943.c ****   VD1943_notice(ctx, "Streaming is on\n");
1343:Lib/Camera_Middleware/sensors/vd1943/vd1943.c **** 
1344:Lib/Camera_Middleware/sensors/vd1943/vd1943.c ****   return 0;
1345:Lib/Camera_Middleware/sensors/vd1943/vd1943.c **** }
1346:Lib/Camera_Middleware/sensors/vd1943/vd1943.c **** 
1347:Lib/Camera_Middleware/sensors/vd1943/vd1943.c **** static int VD1943_CheckConfig(VD1943_Ctx_t *ctx, VD1943_Config_t *config)
1348:Lib/Camera_Middleware/sensors/vd1943/vd1943.c **** {
1349:Lib/Camera_Middleware/sensors/vd1943/vd1943.c ****   struct drv_vd1943_ctx *drv_vd1943_ctx = &ctx->ctx;
1350:Lib/Camera_Middleware/sensors/vd1943/vd1943.c **** 
1351:Lib/Camera_Middleware/sensors/vd1943/vd1943.c ****   if (config->ext_clock_freq_in_hz < VD1943_MIN_CLOCK_FREQ || config->ext_clock_freq_in_hz > VD1943
1352:Lib/Camera_Middleware/sensors/vd1943/vd1943.c ****     VD1943_error(ctx, "ext_clock_freq_in_hz out of range");
1353:Lib/Camera_Middleware/sensors/vd1943/vd1943.c ****     return -1;
1354:Lib/Camera_Middleware/sensors/vd1943/vd1943.c ****   }
1355:Lib/Camera_Middleware/sensors/vd1943/vd1943.c **** 
1356:Lib/Camera_Middleware/sensors/vd1943/vd1943.c ****   if (config->out_itf.data_rate_in_mps < VD1943_MIN_DATARATE || config->out_itf.data_rate_in_mps > 
1357:Lib/Camera_Middleware/sensors/vd1943/vd1943.c ****     VD1943_error(ctx, "data_rate_in_mps out of range");
1358:Lib/Camera_Middleware/sensors/vd1943/vd1943.c ****     return -1;
1359:Lib/Camera_Middleware/sensors/vd1943/vd1943.c ****   }
1360:Lib/Camera_Middleware/sensors/vd1943/vd1943.c **** 
1361:Lib/Camera_Middleware/sensors/vd1943/vd1943.c ****   if (config->out_itf.datalane_nb != 2 && config->out_itf.datalane_nb != 4) {
1362:Lib/Camera_Middleware/sensors/vd1943/vd1943.c ****     VD1943_error(ctx, "datalane_nb out of range");
1363:Lib/Camera_Middleware/sensors/vd1943/vd1943.c ****     return -1;
1364:Lib/Camera_Middleware/sensors/vd1943/vd1943.c ****   }
1365:Lib/Camera_Middleware/sensors/vd1943/vd1943.c **** 
1366:Lib/Camera_Middleware/sensors/vd1943/vd1943.c ****   if (config->resolution < VD1943_RES_QVGA_320_240 ||
1367:Lib/Camera_Middleware/sensors/vd1943/vd1943.c ****       config->resolution > VD1943_RES_FULL_2560_1984) {
1368:Lib/Camera_Middleware/sensors/vd1943/vd1943.c ****     VD1943_error(ctx, "resolution out of range");
1369:Lib/Camera_Middleware/sensors/vd1943/vd1943.c ****     return -1;
1370:Lib/Camera_Middleware/sensors/vd1943/vd1943.c ****   }
1371:Lib/Camera_Middleware/sensors/vd1943/vd1943.c **** 
1372:Lib/Camera_Middleware/sensors/vd1943/vd1943.c ****   switch (config->image_processing_mode) {
ARM GAS  C:\Users\DJESSOU\AppData\Local\Temp\cc3eovRL.s 			page 61


1373:Lib/Camera_Middleware/sensors/vd1943/vd1943.c ****   case VD1943_GS_SS1_NATIVE_8:
1374:Lib/Camera_Middleware/sensors/vd1943/vd1943.c ****   case VD1943_GS_SS1_NATIVE_10:
1375:Lib/Camera_Middleware/sensors/vd1943/vd1943.c ****   case VD1943_GS_SS1_SPLIT_NATIVE_8:
1376:Lib/Camera_Middleware/sensors/vd1943/vd1943.c ****   case VD1943_GS_SS1_SPLIT_NATIVE_10:
1377:Lib/Camera_Middleware/sensors/vd1943/vd1943.c ****   case VD1943_GS_SS2_MONO_8:
1378:Lib/Camera_Middleware/sensors/vd1943/vd1943.c ****   case VD1943_GS_SS2_MONO_10:
1379:Lib/Camera_Middleware/sensors/vd1943/vd1943.c ****   case VD1943_GS_SS4_MONO_8:
1380:Lib/Camera_Middleware/sensors/vd1943/vd1943.c ****   case VD1943_GS_SS4_MONO_10:
1381:Lib/Camera_Middleware/sensors/vd1943/vd1943.c ****   case VD1943_GS_SS32_MONO_8:
1382:Lib/Camera_Middleware/sensors/vd1943/vd1943.c ****   case VD1943_GS_SS32_MONO_10:
1383:Lib/Camera_Middleware/sensors/vd1943/vd1943.c ****   case VD1943_RS_SDR_NATIVE_8:
1384:Lib/Camera_Middleware/sensors/vd1943/vd1943.c ****   case VD1943_RS_SDR_NATIVE_10:
1385:Lib/Camera_Middleware/sensors/vd1943/vd1943.c ****   case VD1943_RS_SDR_NATIVE_12:
1386:Lib/Camera_Middleware/sensors/vd1943/vd1943.c ****   case VD1943_RS_HDR_NATIVE_10:
1387:Lib/Camera_Middleware/sensors/vd1943/vd1943.c ****   case VD1943_RS_HDR_NATIVE_12:
1388:Lib/Camera_Middleware/sensors/vd1943/vd1943.c ****     break;
1389:Lib/Camera_Middleware/sensors/vd1943/vd1943.c ****   case VD1943_GS_SS1_RGB_8:
1390:Lib/Camera_Middleware/sensors/vd1943/vd1943.c ****   case VD1943_GS_SS1_RGB_10:
1391:Lib/Camera_Middleware/sensors/vd1943/vd1943.c ****   case VD1943_GS_SS1_IR_8:
1392:Lib/Camera_Middleware/sensors/vd1943/vd1943.c ****   case VD1943_GS_SS1_IR_10:
1393:Lib/Camera_Middleware/sensors/vd1943/vd1943.c ****   case VD1943_GS_SS1_SPLIT_IR_8:
1394:Lib/Camera_Middleware/sensors/vd1943/vd1943.c ****   case VD1943_GS_SS1_SPLIT_IR_10:
1395:Lib/Camera_Middleware/sensors/vd1943/vd1943.c ****   case VD1943_RS_SDR_RGB_8:
1396:Lib/Camera_Middleware/sensors/vd1943/vd1943.c ****   case VD1943_RS_SDR_RGB_10:
1397:Lib/Camera_Middleware/sensors/vd1943/vd1943.c ****   case VD1943_RS_SDR_RGB_12:
1398:Lib/Camera_Middleware/sensors/vd1943/vd1943.c ****   case VD1943_RS_HDR_RGB_10:
1399:Lib/Camera_Middleware/sensors/vd1943/vd1943.c ****   case VD1943_RS_HDR_RGB_12:
1400:Lib/Camera_Middleware/sensors/vd1943/vd1943.c ****     // Unsupported modes for VD5943 (Mono) variant
1401:Lib/Camera_Middleware/sensors/vd1943/vd1943.c ****     if (drv_vd1943_ctx->is_mono)
1402:Lib/Camera_Middleware/sensors/vd1943/vd1943.c ****       return -1;
1403:Lib/Camera_Middleware/sensors/vd1943/vd1943.c ****     else
1404:Lib/Camera_Middleware/sensors/vd1943/vd1943.c ****       break;
1405:Lib/Camera_Middleware/sensors/vd1943/vd1943.c ****   default:
1406:Lib/Camera_Middleware/sensors/vd1943/vd1943.c ****     return -1;
1407:Lib/Camera_Middleware/sensors/vd1943/vd1943.c ****   }
1408:Lib/Camera_Middleware/sensors/vd1943/vd1943.c **** 
1409:Lib/Camera_Middleware/sensors/vd1943/vd1943.c ****   return 0;
1410:Lib/Camera_Middleware/sensors/vd1943/vd1943.c **** }
1411:Lib/Camera_Middleware/sensors/vd1943/vd1943.c **** 
1412:Lib/Camera_Middleware/sensors/vd1943/vd1943.c **** static int VD1943_SetFctPtr(VD1943_Ctx_t *ctx)
1413:Lib/Camera_Middleware/sensors/vd1943/vd1943.c **** {
1414:Lib/Camera_Middleware/sensors/vd1943/vd1943.c ****   switch (ctx->ctx.config_save.image_processing_mode) {
1415:Lib/Camera_Middleware/sensors/vd1943/vd1943.c ****   case VD1943_GS_SS1_NATIVE_8:
1416:Lib/Camera_Middleware/sensors/vd1943/vd1943.c ****   case VD1943_GS_SS1_NATIVE_10:
1417:Lib/Camera_Middleware/sensors/vd1943/vd1943.c ****     ctx->ctx.set_digital_gain = VD1943_SetDigitalGain_RGBNIR;
1418:Lib/Camera_Middleware/sensors/vd1943/vd1943.c ****     ctx->ctx.set_expo = VD1943_SetExpo_GS;
1419:Lib/Camera_Middleware/sensors/vd1943/vd1943.c ****     ctx->ctx.get_expo = VD1943_GetExpo_GS;
1420:Lib/Camera_Middleware/sensors/vd1943/vd1943.c ****     break;
1421:Lib/Camera_Middleware/sensors/vd1943/vd1943.c ****   case VD1943_GS_SS1_SPLIT_NATIVE_8:
1422:Lib/Camera_Middleware/sensors/vd1943/vd1943.c ****   case VD1943_GS_SS1_SPLIT_NATIVE_10:
1423:Lib/Camera_Middleware/sensors/vd1943/vd1943.c ****   case VD1943_GS_SS1_SPLIT_IR_8:
1424:Lib/Camera_Middleware/sensors/vd1943/vd1943.c ****   case VD1943_GS_SS1_SPLIT_IR_10:
1425:Lib/Camera_Middleware/sensors/vd1943/vd1943.c ****     ctx->ctx.set_digital_gain = VD1943_SetDigitalGain_RGBNIR;
1426:Lib/Camera_Middleware/sensors/vd1943/vd1943.c ****     ctx->ctx.set_expo = VD1943_SetExpoSplit_GS;
1427:Lib/Camera_Middleware/sensors/vd1943/vd1943.c ****     ctx->ctx.get_expo = VD1943_GetExpo_GS;
1428:Lib/Camera_Middleware/sensors/vd1943/vd1943.c ****     break;
1429:Lib/Camera_Middleware/sensors/vd1943/vd1943.c ****   case VD1943_GS_SS1_RGB_8:
ARM GAS  C:\Users\DJESSOU\AppData\Local\Temp\cc3eovRL.s 			page 62


1430:Lib/Camera_Middleware/sensors/vd1943/vd1943.c ****   case VD1943_GS_SS1_RGB_10:
1431:Lib/Camera_Middleware/sensors/vd1943/vd1943.c ****     ctx->ctx.set_digital_gain = VD1943_SetDigitalGain_RGB;
1432:Lib/Camera_Middleware/sensors/vd1943/vd1943.c ****     ctx->ctx.set_expo = VD1943_SetExpo_GS;
1433:Lib/Camera_Middleware/sensors/vd1943/vd1943.c ****     ctx->ctx.get_expo = VD1943_GetExpo_GS;
1434:Lib/Camera_Middleware/sensors/vd1943/vd1943.c ****     break;
1435:Lib/Camera_Middleware/sensors/vd1943/vd1943.c ****   case VD1943_GS_SS1_IR_8:
1436:Lib/Camera_Middleware/sensors/vd1943/vd1943.c ****   case VD1943_GS_SS1_IR_10:
1437:Lib/Camera_Middleware/sensors/vd1943/vd1943.c ****   case VD1943_GS_SS2_MONO_8:
1438:Lib/Camera_Middleware/sensors/vd1943/vd1943.c ****   case VD1943_GS_SS2_MONO_10:
1439:Lib/Camera_Middleware/sensors/vd1943/vd1943.c ****   case VD1943_GS_SS4_MONO_8:
1440:Lib/Camera_Middleware/sensors/vd1943/vd1943.c ****   case VD1943_GS_SS4_MONO_10:
1441:Lib/Camera_Middleware/sensors/vd1943/vd1943.c ****   case VD1943_GS_SS32_MONO_8:
1442:Lib/Camera_Middleware/sensors/vd1943/vd1943.c ****   case VD1943_GS_SS32_MONO_10:
1443:Lib/Camera_Middleware/sensors/vd1943/vd1943.c ****     ctx->ctx.set_digital_gain = VD1943_SetDigitalGain_IR;
1444:Lib/Camera_Middleware/sensors/vd1943/vd1943.c ****     ctx->ctx.set_expo = VD1943_SetExpo_GS;
1445:Lib/Camera_Middleware/sensors/vd1943/vd1943.c ****     ctx->ctx.get_expo = VD1943_GetExpo_GS;
1446:Lib/Camera_Middleware/sensors/vd1943/vd1943.c ****     break;
1447:Lib/Camera_Middleware/sensors/vd1943/vd1943.c ****   case VD1943_RS_SDR_NATIVE_8:
1448:Lib/Camera_Middleware/sensors/vd1943/vd1943.c ****   case VD1943_RS_SDR_NATIVE_10:
1449:Lib/Camera_Middleware/sensors/vd1943/vd1943.c ****   case VD1943_RS_SDR_NATIVE_12:
1450:Lib/Camera_Middleware/sensors/vd1943/vd1943.c ****     ctx->ctx.set_digital_gain = VD1943_SetDigitalGain_RGBNIR;
1451:Lib/Camera_Middleware/sensors/vd1943/vd1943.c ****     ctx->ctx.set_expo = VD1943_SetExpo_RS;
1452:Lib/Camera_Middleware/sensors/vd1943/vd1943.c ****     ctx->ctx.get_expo = VD1943_GetExpo_RS;
1453:Lib/Camera_Middleware/sensors/vd1943/vd1943.c ****     break;
1454:Lib/Camera_Middleware/sensors/vd1943/vd1943.c ****   case VD1943_RS_SDR_RGB_8:
1455:Lib/Camera_Middleware/sensors/vd1943/vd1943.c ****   case VD1943_RS_SDR_RGB_10:
1456:Lib/Camera_Middleware/sensors/vd1943/vd1943.c ****   case VD1943_RS_SDR_RGB_12:
1457:Lib/Camera_Middleware/sensors/vd1943/vd1943.c ****     ctx->ctx.set_digital_gain = VD1943_SetDigitalGain_RGB;
1458:Lib/Camera_Middleware/sensors/vd1943/vd1943.c ****     ctx->ctx.set_expo = VD1943_SetExpo_RS;
1459:Lib/Camera_Middleware/sensors/vd1943/vd1943.c ****     ctx->ctx.get_expo = VD1943_GetExpo_RS;
1460:Lib/Camera_Middleware/sensors/vd1943/vd1943.c ****     break;
1461:Lib/Camera_Middleware/sensors/vd1943/vd1943.c ****   case VD1943_RS_HDR_NATIVE_10:
1462:Lib/Camera_Middleware/sensors/vd1943/vd1943.c ****   case VD1943_RS_HDR_NATIVE_12:
1463:Lib/Camera_Middleware/sensors/vd1943/vd1943.c ****   case VD1943_RS_HDR_RGB_10:
1464:Lib/Camera_Middleware/sensors/vd1943/vd1943.c ****   case VD1943_RS_HDR_RGB_12:
1465:Lib/Camera_Middleware/sensors/vd1943/vd1943.c ****     ctx->ctx.set_digital_gain = VD1943_SetDigitalGain_RGB;
1466:Lib/Camera_Middleware/sensors/vd1943/vd1943.c ****     ctx->ctx.set_expo = VD1943_SetExpo_RS_HDR;
1467:Lib/Camera_Middleware/sensors/vd1943/vd1943.c ****     ctx->ctx.get_expo = VD1943_GetExpo_RS;
1468:Lib/Camera_Middleware/sensors/vd1943/vd1943.c ****     break;
1469:Lib/Camera_Middleware/sensors/vd1943/vd1943.c ****   default:
1470:Lib/Camera_Middleware/sensors/vd1943/vd1943.c ****     assert(0);
1471:Lib/Camera_Middleware/sensors/vd1943/vd1943.c ****     return -1;
1472:Lib/Camera_Middleware/sensors/vd1943/vd1943.c ****   }
1473:Lib/Camera_Middleware/sensors/vd1943/vd1943.c **** 
1474:Lib/Camera_Middleware/sensors/vd1943/vd1943.c ****   return 0;
1475:Lib/Camera_Middleware/sensors/vd1943/vd1943.c **** }
1476:Lib/Camera_Middleware/sensors/vd1943/vd1943.c **** 
1477:Lib/Camera_Middleware/sensors/vd1943/vd1943.c **** int VD1943_Init(VD1943_Ctx_t *ctx, VD1943_Config_t *config)
1478:Lib/Camera_Middleware/sensors/vd1943/vd1943.c **** {
 1677              		.loc 1 1478 1 is_stmt 1 view -0
 1678              		.cfi_startproc
 1679              		@ args = 0, pretend = 0, frame = 8
 1680              		@ frame_needed = 0, uses_anonymous_args = 0
1479:Lib/Camera_Middleware/sensors/vd1943/vd1943.c ****   struct drv_vd1943_ctx *drv_vd1943_ctx = &ctx->ctx;
 1681              		.loc 1 1479 3 view .LVU448
1480:Lib/Camera_Middleware/sensors/vd1943/vd1943.c ****   int ret;
 1682              		.loc 1 1480 3 view .LVU449
ARM GAS  C:\Users\DJESSOU\AppData\Local\Temp\cc3eovRL.s 			page 63


1481:Lib/Camera_Middleware/sensors/vd1943/vd1943.c **** 
1482:Lib/Camera_Middleware/sensors/vd1943/vd1943.c ****   drv_vd1943_ctx->config_save = *config;
 1683              		.loc 1 1482 3 view .LVU450
1478:Lib/Camera_Middleware/sensors/vd1943/vd1943.c ****   struct drv_vd1943_ctx *drv_vd1943_ctx = &ctx->ctx;
 1684              		.loc 1 1478 1 is_stmt 0 view .LVU451
 1685 0000 F0B5     		push	{r4, r5, r6, r7, lr}
 1686              		.cfi_def_cfa_offset 20
 1687              		.cfi_offset 4, -20
 1688              		.cfi_offset 5, -16
 1689              		.cfi_offset 6, -12
 1690              		.cfi_offset 7, -8
 1691              		.cfi_offset 14, -4
 1692              		.loc 1 1482 31 view .LVU452
 1693 0002 4822     		movs	r2, #72
1478:Lib/Camera_Middleware/sensors/vd1943/vd1943.c ****   struct drv_vd1943_ctx *drv_vd1943_ctx = &ctx->ctx;
 1694              		.loc 1 1478 1 view .LVU453
 1695 0004 0446     		mov	r4, r0
 1696 0006 87B0     		sub	sp, sp, #28
 1697              		.cfi_def_cfa_offset 48
 1698              		.loc 1 1482 31 view .LVU454
 1699 0008 3830     		adds	r0, r0, #56
 1700              	.LVL144:
1478:Lib/Camera_Middleware/sensors/vd1943/vd1943.c ****   struct drv_vd1943_ctx *drv_vd1943_ctx = &ctx->ctx;
 1701              		.loc 1 1478 1 view .LVU455
 1702 000a 0D46     		mov	r5, r1
 1703              		.loc 1 1482 31 view .LVU456
 1704 000c FFF7FEFF 		bl	memcpy
 1705              	.LVL145:
1483:Lib/Camera_Middleware/sensors/vd1943/vd1943.c ****   drv_vd1943_ctx->digital_gain = 0x100;
 1706              		.loc 1 1483 3 is_stmt 1 view .LVU457
 1707              		.loc 1 1483 32 is_stmt 0 view .LVU458
 1708 0010 4FF48073 		mov	r3, #256
1484:Lib/Camera_Middleware/sensors/vd1943/vd1943.c **** 
1485:Lib/Camera_Middleware/sensors/vd1943/vd1943.c ****   ctx->shutdown_pin(ctx, 0);
 1709              		.loc 1 1485 3 view .LVU459
 1710 0014 0021     		movs	r1, #0
 1711 0016 2046     		mov	r0, r4
1483:Lib/Camera_Middleware/sensors/vd1943/vd1943.c ****   drv_vd1943_ctx->digital_gain = 0x100;
 1712              		.loc 1 1483 32 view .LVU460
 1713 0018 6363     		str	r3, [r4, #52]
 1714              		.loc 1 1485 3 is_stmt 1 view .LVU461
 1715 001a 2368     		ldr	r3, [r4]
 1716 001c 9847     		blx	r3
 1717              	.LVL146:
1486:Lib/Camera_Middleware/sensors/vd1943/vd1943.c ****   ctx->delay(ctx, 10);
 1718              		.loc 1 1486 3 view .LVU462
 1719 001e 0A21     		movs	r1, #10
 1720 0020 2046     		mov	r0, r4
 1721 0022 236A     		ldr	r3, [r4, #32]
 1722 0024 9847     		blx	r3
 1723              	.LVL147:
1487:Lib/Camera_Middleware/sensors/vd1943/vd1943.c ****   ctx->shutdown_pin(ctx, 1);
 1724              		.loc 1 1487 3 view .LVU463
 1725 0026 0121     		movs	r1, #1
 1726 0028 2046     		mov	r0, r4
 1727 002a 2368     		ldr	r3, [r4]
 1728 002c 9847     		blx	r3
ARM GAS  C:\Users\DJESSOU\AppData\Local\Temp\cc3eovRL.s 			page 64


 1729              	.LVL148:
1488:Lib/Camera_Middleware/sensors/vd1943/vd1943.c ****   ctx->delay(ctx, 10);
 1730              		.loc 1 1488 3 view .LVU464
 1731 002e 236A     		ldr	r3, [r4, #32]
 1732 0030 0A21     		movs	r1, #10
 1733 0032 2046     		mov	r0, r4
 1734 0034 9847     		blx	r3
 1735              	.LVL149:
1489:Lib/Camera_Middleware/sensors/vd1943/vd1943.c **** 
1490:Lib/Camera_Middleware/sensors/vd1943/vd1943.c ****   ret = VD1943_CheckConfig(ctx, config);
 1736              		.loc 1 1490 3 view .LVU465
 1737              	.LBB34:
 1738              	.LBI34:
1347:Lib/Camera_Middleware/sensors/vd1943/vd1943.c **** {
 1739              		.loc 1 1347 12 view .LVU466
 1740              	.LBB35:
1349:Lib/Camera_Middleware/sensors/vd1943/vd1943.c **** 
 1741              		.loc 1 1349 3 view .LVU467
1351:Lib/Camera_Middleware/sensors/vd1943/vd1943.c ****     VD1943_error(ctx, "ext_clock_freq_in_hz out of range");
 1742              		.loc 1 1351 3 view .LVU468
1351:Lib/Camera_Middleware/sensors/vd1943/vd1943.c ****     VD1943_error(ctx, "ext_clock_freq_in_hz out of range");
 1743              		.loc 1 1351 60 is_stmt 0 view .LVU469
 1744 0036 2B68     		ldr	r3, [r5]
1351:Lib/Camera_Middleware/sensors/vd1943/vd1943.c ****     VD1943_error(ctx, "ext_clock_freq_in_hz out of range");
 1745              		.loc 1 1351 6 view .LVU470
 1746 0038 964A     		ldr	r2, .L222
1351:Lib/Camera_Middleware/sensors/vd1943/vd1943.c ****     VD1943_error(ctx, "ext_clock_freq_in_hz out of range");
 1747              		.loc 1 1351 60 view .LVU471
 1748 003a A3F53703 		sub	r3, r3, #11993088
 1749 003e A3F5D853 		sub	r3, r3, #6912
1351:Lib/Camera_Middleware/sensors/vd1943/vd1943.c ****     VD1943_error(ctx, "ext_clock_freq_in_hz out of range");
 1750              		.loc 1 1351 6 view .LVU472
 1751 0042 9342     		cmp	r3, r2
 1752 0044 0BD9     		bls	.L121
1352:Lib/Camera_Middleware/sensors/vd1943/vd1943.c ****     return -1;
 1753              		.loc 1 1352 5 is_stmt 1 view .LVU473
1352:Lib/Camera_Middleware/sensors/vd1943/vd1943.c ****     return -1;
 1754              		.loc 1 1352 5 view .LVU474
 1755 0046 4FF4A963 		mov	r3, #1352
 1756 004a 934A     		ldr	r2, .L222+4
 1757              	.L207:
 1758 004c 0021     		movs	r1, #0
 1759 004e 2046     		mov	r0, r4
 1760 0050 FFF7FEFF 		bl	VD1943_log_impl
 1761              	.LVL150:
1352:Lib/Camera_Middleware/sensors/vd1943/vd1943.c ****     return -1;
 1762              		.loc 1 1352 5 discriminator 1 view .LVU475
1353:Lib/Camera_Middleware/sensors/vd1943/vd1943.c ****   }
 1763              		.loc 1 1353 5 view .LVU476
1353:Lib/Camera_Middleware/sensors/vd1943/vd1943.c ****   }
 1764              		.loc 1 1353 5 is_stmt 0 view .LVU477
 1765              	.LBE35:
 1766              	.LBE34:
1491:Lib/Camera_Middleware/sensors/vd1943/vd1943.c ****   if (ret)
 1767              		.loc 1 1491 3 is_stmt 1 view .LVU478
 1768              	.L124:
1492:Lib/Camera_Middleware/sensors/vd1943/vd1943.c ****     return ret;
ARM GAS  C:\Users\DJESSOU\AppData\Local\Temp\cc3eovRL.s 			page 65


 1769              		.loc 1 1492 12 is_stmt 0 view .LVU479
 1770 0054 4FF0FF35 		mov	r5, #-1
 1771              	.L120:
1493:Lib/Camera_Middleware/sensors/vd1943/vd1943.c **** 
1494:Lib/Camera_Middleware/sensors/vd1943/vd1943.c ****   ret = VD1943_SetFctPtr(ctx);
1495:Lib/Camera_Middleware/sensors/vd1943/vd1943.c ****   if (ret)
1496:Lib/Camera_Middleware/sensors/vd1943/vd1943.c ****     return ret;
1497:Lib/Camera_Middleware/sensors/vd1943/vd1943.c **** 
1498:Lib/Camera_Middleware/sensors/vd1943/vd1943.c ****   ret = VD1943_Boot(ctx);
1499:Lib/Camera_Middleware/sensors/vd1943/vd1943.c ****   if (ret)
1500:Lib/Camera_Middleware/sensors/vd1943/vd1943.c ****     return ret;
1501:Lib/Camera_Middleware/sensors/vd1943/vd1943.c **** 
1502:Lib/Camera_Middleware/sensors/vd1943/vd1943.c ****   drv_vd1943_ctx->state = VD1943_ST_IDLE;
1503:Lib/Camera_Middleware/sensors/vd1943/vd1943.c **** 
1504:Lib/Camera_Middleware/sensors/vd1943/vd1943.c ****   return 0;
1505:Lib/Camera_Middleware/sensors/vd1943/vd1943.c **** }
 1772              		.loc 1 1505 1 view .LVU480
 1773 0058 2846     		mov	r0, r5
 1774 005a 07B0     		add	sp, sp, #28
 1775              		.cfi_remember_state
 1776              		.cfi_def_cfa_offset 20
 1777              		@ sp needed
 1778 005c F0BD     		pop	{r4, r5, r6, r7, pc}
 1779              	.LVL151:
 1780              	.L121:
 1781              		.cfi_restore_state
 1782              	.LBB38:
 1783              	.LBB36:
1356:Lib/Camera_Middleware/sensors/vd1943/vd1943.c ****     VD1943_error(ctx, "data_rate_in_mps out of range");
 1784              		.loc 1 1356 3 is_stmt 1 view .LVU481
1356:Lib/Camera_Middleware/sensors/vd1943/vd1943.c ****     VD1943_error(ctx, "data_rate_in_mps out of range");
 1785              		.loc 1 1356 62 is_stmt 0 view .LVU482
 1786 005e 2A69     		ldr	r2, [r5, #16]
 1787 0060 8E4B     		ldr	r3, .L222+8
 1788 0062 1344     		add	r3, r3, r2
1356:Lib/Camera_Middleware/sensors/vd1943/vd1943.c ****     VD1943_error(ctx, "data_rate_in_mps out of range");
 1789              		.loc 1 1356 6 view .LVU483
 1790 0064 8E4A     		ldr	r2, .L222+12
 1791 0066 9342     		cmp	r3, r2
 1792 0068 03D9     		bls	.L123
1357:Lib/Camera_Middleware/sensors/vd1943/vd1943.c ****     return -1;
 1793              		.loc 1 1357 5 is_stmt 1 view .LVU484
1357:Lib/Camera_Middleware/sensors/vd1943/vd1943.c ****     return -1;
 1794              		.loc 1 1357 5 view .LVU485
 1795 006a 40F24D53 		movw	r3, #1357
 1796 006e 8D4A     		ldr	r2, .L222+16
 1797 0070 ECE7     		b	.L207
 1798              	.L123:
1361:Lib/Camera_Middleware/sensors/vd1943/vd1943.c ****     VD1943_error(ctx, "datalane_nb out of range");
 1799              		.loc 1 1361 3 view .LVU486
1361:Lib/Camera_Middleware/sensors/vd1943/vd1943.c ****     VD1943_error(ctx, "datalane_nb out of range");
 1800              		.loc 1 1361 22 is_stmt 0 view .LVU487
 1801 0072 6B69     		ldr	r3, [r5, #20]
1361:Lib/Camera_Middleware/sensors/vd1943/vd1943.c ****     VD1943_error(ctx, "datalane_nb out of range");
 1802              		.loc 1 1361 6 view .LVU488
 1803 0074 022B     		cmp	r3, #2
 1804 0076 05D0     		beq	.L125
ARM GAS  C:\Users\DJESSOU\AppData\Local\Temp\cc3eovRL.s 			page 66


1361:Lib/Camera_Middleware/sensors/vd1943/vd1943.c ****     VD1943_error(ctx, "datalane_nb out of range");
 1805              		.loc 1 1361 40 discriminator 1 view .LVU489
 1806 0078 042B     		cmp	r3, #4
 1807 007a 03D0     		beq	.L125
1362:Lib/Camera_Middleware/sensors/vd1943/vd1943.c ****     return -1;
 1808              		.loc 1 1362 5 is_stmt 1 view .LVU490
1362:Lib/Camera_Middleware/sensors/vd1943/vd1943.c ****     return -1;
 1809              		.loc 1 1362 5 view .LVU491
 1810 007c 40F25253 		movw	r3, #1362
 1811 0080 894A     		ldr	r2, .L222+20
 1812 0082 E3E7     		b	.L207
 1813              	.L125:
1366:Lib/Camera_Middleware/sensors/vd1943/vd1943.c ****       config->resolution > VD1943_RES_FULL_2560_1984) {
 1814              		.loc 1 1366 3 view .LVU492
1366:Lib/Camera_Middleware/sensors/vd1943/vd1943.c ****       config->resolution > VD1943_RES_FULL_2560_1984) {
 1815              		.loc 1 1366 6 is_stmt 0 view .LVU493
 1816 0084 2B79     		ldrb	r3, [r5, #4]	@ zero_extendqisi2
 1817 0086 092B     		cmp	r3, #9
 1818 0088 03D9     		bls	.L126
1368:Lib/Camera_Middleware/sensors/vd1943/vd1943.c ****     return -1;
 1819              		.loc 1 1368 5 is_stmt 1 view .LVU494
1368:Lib/Camera_Middleware/sensors/vd1943/vd1943.c ****     return -1;
 1820              		.loc 1 1368 5 view .LVU495
 1821 008a 4FF4AB63 		mov	r3, #1368
 1822 008e 874A     		ldr	r2, .L222+24
 1823 0090 DCE7     		b	.L207
 1824              	.L126:
1372:Lib/Camera_Middleware/sensors/vd1943/vd1943.c ****   case VD1943_GS_SS1_NATIVE_8:
 1825              		.loc 1 1372 3 view .LVU496
1372:Lib/Camera_Middleware/sensors/vd1943/vd1943.c ****   case VD1943_GS_SS1_NATIVE_8:
 1826              		.loc 1 1372 17 is_stmt 0 view .LVU497
 1827 0092 2B7B     		ldrb	r3, [r5, #12]	@ zero_extendqisi2
1372:Lib/Camera_Middleware/sensors/vd1943/vd1943.c ****   case VD1943_GS_SS1_NATIVE_8:
 1828              		.loc 1 1372 3 view .LVU498
 1829 0094 042B     		cmp	r3, #4
 1830 0096 1AD8     		bhi	.L127
 1831 0098 002B     		cmp	r3, #0
 1832 009a DBD0     		beq	.L124
 1833              	.L128:
 1834              	.LVL152:
1372:Lib/Camera_Middleware/sensors/vd1943/vd1943.c ****   case VD1943_GS_SS1_NATIVE_8:
 1835              		.loc 1 1372 3 view .LVU499
 1836              	.LBE36:
 1837              	.LBE38:
1494:Lib/Camera_Middleware/sensors/vd1943/vd1943.c ****   if (ret)
 1838              		.loc 1 1494 3 is_stmt 1 view .LVU500
 1839              	.LBB39:
 1840              	.LBI39:
1412:Lib/Camera_Middleware/sensors/vd1943/vd1943.c **** {
 1841              		.loc 1 1412 12 view .LVU501
 1842              	.LBB40:
1414:Lib/Camera_Middleware/sensors/vd1943/vd1943.c ****   case VD1943_GS_SS1_NATIVE_8:
 1843              		.loc 1 1414 3 view .LVU502
 1844 009c 94F84430 		ldrb	r3, [r4, #68]	@ zero_extendqisi2
 1845 00a0 013B     		subs	r3, r3, #1
 1846 00a2 222B     		cmp	r3, #34
 1847 00a4 56D8     		bhi	.L131
ARM GAS  C:\Users\DJESSOU\AppData\Local\Temp\cc3eovRL.s 			page 67


 1848 00a6 DFE803F0 		tbb	[pc, r3]
 1849              	.L133:
 1850 00aa 5C       		.byte	(.L139-.L133)/2
 1851 00ab 5C       		.byte	(.L139-.L133)/2
 1852 00ac 25       		.byte	(.L136-.L133)/2
 1853 00ad 25       		.byte	(.L136-.L133)/2
 1854 00ae 5E       		.byte	(.L189-.L133)/2
 1855 00af 5E       		.byte	(.L189-.L133)/2
 1856 00b0 55       		.byte	(.L131-.L133)/2
 1857 00b1 55       		.byte	(.L131-.L133)/2
 1858 00b2 29       		.byte	(.L137-.L133)/2
 1859 00b3 29       		.byte	(.L137-.L133)/2
 1860 00b4 29       		.byte	(.L137-.L133)/2
 1861 00b5 29       		.byte	(.L137-.L133)/2
 1862 00b6 29       		.byte	(.L137-.L133)/2
 1863 00b7 29       		.byte	(.L137-.L133)/2
 1864 00b8 29       		.byte	(.L137-.L133)/2
 1865 00b9 29       		.byte	(.L137-.L133)/2
 1866 00ba 25       		.byte	(.L136-.L133)/2
 1867 00bb 25       		.byte	(.L136-.L133)/2
 1868 00bc 55       		.byte	(.L131-.L133)/2
 1869 00bd 55       		.byte	(.L131-.L133)/2
 1870 00be 55       		.byte	(.L131-.L133)/2
 1871 00bf 55       		.byte	(.L131-.L133)/2
 1872 00c0 55       		.byte	(.L131-.L133)/2
 1873 00c1 55       		.byte	(.L131-.L133)/2
 1874 00c2 55       		.byte	(.L131-.L133)/2
 1875 00c3 2C       		.byte	(.L135-.L133)/2
 1876 00c4 2C       		.byte	(.L135-.L133)/2
 1877 00c5 2C       		.byte	(.L135-.L133)/2
 1878 00c6 50       		.byte	(.L134-.L133)/2
 1879 00c7 50       		.byte	(.L134-.L133)/2
 1880 00c8 50       		.byte	(.L134-.L133)/2
 1881 00c9 52       		.byte	(.L132-.L133)/2
 1882 00ca 52       		.byte	(.L132-.L133)/2
 1883 00cb 52       		.byte	(.L132-.L133)/2
 1884 00cc 52       		.byte	(.L132-.L133)/2
 1885              	.LVL153:
 1886 00cd 00       		.p2align 1
 1887              	.L127:
1414:Lib/Camera_Middleware/sensors/vd1943/vd1943.c ****   case VD1943_GS_SS1_NATIVE_8:
 1888              		.loc 1 1414 3 is_stmt 0 view .LVU503
 1889              	.LBE40:
 1890              	.LBE39:
 1891              	.LBB45:
 1892              	.LBB37:
1372:Lib/Camera_Middleware/sensors/vd1943/vd1943.c ****   case VD1943_GS_SS1_NATIVE_8:
 1893              		.loc 1 1372 3 view .LVU504
 1894 00ce 053B     		subs	r3, r3, #5
 1895 00d0 DBB2     		uxtb	r3, r3
 1896 00d2 1E2B     		cmp	r3, #30
 1897 00d4 BED8     		bhi	.L124
 1898 00d6 0122     		movs	r2, #1
 1899 00d8 02FA03F3 		lsl	r3, r2, r3
 1900 00dc 744A     		ldr	r2, .L222+28
 1901 00de 1342     		tst	r3, r2
 1902 00e0 DCD1     		bne	.L128
ARM GAS  C:\Users\DJESSOU\AppData\Local\Temp\cc3eovRL.s 			page 68


 1903 00e2 744A     		ldr	r2, .L222+32
 1904 00e4 1A40     		ands	r2, r2, r3
 1905 00e6 002A     		cmp	r2, #0
 1906 00e8 B4D0     		beq	.L124
1401:Lib/Camera_Middleware/sensors/vd1943/vd1943.c ****       return -1;
 1907              		.loc 1 1401 5 is_stmt 1 view .LVU505
1401:Lib/Camera_Middleware/sensors/vd1943/vd1943.c ****       return -1;
 1908              		.loc 1 1401 8 is_stmt 0 view .LVU506
 1909 00ea 94F83030 		ldrb	r3, [r4, #48]	@ zero_extendqisi2
 1910 00ee 002B     		cmp	r3, #0
 1911 00f0 D4D0     		beq	.L128
 1912 00f2 AFE7     		b	.L124
 1913              	.LVL154:
 1914              	.L136:
1401:Lib/Camera_Middleware/sensors/vd1943/vd1943.c ****       return -1;
 1915              		.loc 1 1401 8 view .LVU507
 1916              	.LBE37:
 1917              	.LBE45:
 1918              	.LBB46:
 1919              	.LBB41:
1414:Lib/Camera_Middleware/sensors/vd1943/vd1943.c ****   case VD1943_GS_SS1_NATIVE_8:
 1920              		.loc 1 1414 3 view .LVU508
 1921 00f4 7049     		ldr	r1, .L222+36
 1922 00f6 714A     		ldr	r2, .L222+40
 1923              	.L211:
1414:Lib/Camera_Middleware/sensors/vd1943/vd1943.c ****   case VD1943_GS_SS1_NATIVE_8:
 1924              		.loc 1 1414 3 view .LVU509
 1925 00f8 714B     		ldr	r3, .L222+44
 1926 00fa 05E0     		b	.L138
 1927              	.L137:
1443:Lib/Camera_Middleware/sensors/vd1943/vd1943.c ****     ctx->ctx.set_expo = VD1943_SetExpo_GS;
 1928              		.loc 1 1443 5 is_stmt 1 view .LVU510
1444:Lib/Camera_Middleware/sensors/vd1943/vd1943.c ****     ctx->ctx.get_expo = VD1943_GetExpo_GS;
 1929              		.loc 1 1444 5 view .LVU511
1445:Lib/Camera_Middleware/sensors/vd1943/vd1943.c ****     break;
 1930              		.loc 1 1445 5 view .LVU512
1446:Lib/Camera_Middleware/sensors/vd1943/vd1943.c ****   case VD1943_RS_SDR_NATIVE_8:
 1931              		.loc 1 1446 5 view .LVU513
 1932 00fc 7149     		ldr	r1, .L222+48
 1933              	.L210:
1414:Lib/Camera_Middleware/sensors/vd1943/vd1943.c ****   case VD1943_GS_SS1_NATIVE_8:
 1934              		.loc 1 1414 3 is_stmt 0 view .LVU514
 1935 00fe 724A     		ldr	r2, .L222+52
 1936 0100 FAE7     		b	.L211
 1937              	.L135:
1450:Lib/Camera_Middleware/sensors/vd1943/vd1943.c ****     ctx->ctx.set_expo = VD1943_SetExpo_RS;
 1938              		.loc 1 1450 5 is_stmt 1 view .LVU515
1451:Lib/Camera_Middleware/sensors/vd1943/vd1943.c ****     ctx->ctx.get_expo = VD1943_GetExpo_RS;
 1939              		.loc 1 1451 5 view .LVU516
1452:Lib/Camera_Middleware/sensors/vd1943/vd1943.c ****     break;
 1940              		.loc 1 1452 5 view .LVU517
1453:Lib/Camera_Middleware/sensors/vd1943/vd1943.c ****   case VD1943_RS_SDR_RGB_8:
 1941              		.loc 1 1453 5 view .LVU518
 1942 0102 6D49     		ldr	r1, .L222+36
 1943              	.L220:
1460:Lib/Camera_Middleware/sensors/vd1943/vd1943.c ****   case VD1943_RS_HDR_NATIVE_10:
 1944              		.loc 1 1460 5 is_stmt 0 view .LVU519
ARM GAS  C:\Users\DJESSOU\AppData\Local\Temp\cc3eovRL.s 			page 69


 1945 0104 714A     		ldr	r2, .L222+56
 1946              	.L209:
1468:Lib/Camera_Middleware/sensors/vd1943/vd1943.c ****   default:
 1947              		.loc 1 1468 5 view .LVU520
 1948 0106 724B     		ldr	r3, .L222+60
 1949              	.L138:
1418:Lib/Camera_Middleware/sensors/vd1943/vd1943.c ****     ctx->ctx.get_expo = VD1943_GetExpo_GS;
 1950              		.loc 1 1418 23 view .LVU521
 1951 0108 C4E92012 		strd	r1, r2, [r4, #128]
 1952              	.LBE41:
 1953              	.LBE46:
 1954              	.LBB47:
 1955              	.LBB48:
 730:Lib/Camera_Middleware/sensors/vd1943/vd1943.c ****   if (ret)
 1956              		.loc 1 730 9 view .LVU522
 1957 010c 2046     		mov	r0, r4
 1958 010e 0121     		movs	r1, #1
 1959              	.LBE48:
 1960              	.LBE47:
 1961              	.LBB99:
 1962              	.LBB42:
1419:Lib/Camera_Middleware/sensors/vd1943/vd1943.c ****     break;
 1963              		.loc 1 1419 23 view .LVU523
 1964 0110 C4F88830 		str	r3, [r4, #136]
1474:Lib/Camera_Middleware/sensors/vd1943/vd1943.c **** }
 1965              		.loc 1 1474 3 is_stmt 1 view .LVU524
 1966              	.LVL155:
1474:Lib/Camera_Middleware/sensors/vd1943/vd1943.c **** }
 1967              		.loc 1 1474 3 is_stmt 0 view .LVU525
 1968              	.LBE42:
 1969              	.LBE99:
1495:Lib/Camera_Middleware/sensors/vd1943/vd1943.c ****     return ret;
 1970              		.loc 1 1495 3 is_stmt 1 view .LVU526
1498:Lib/Camera_Middleware/sensors/vd1943/vd1943.c ****   if (ret)
 1971              		.loc 1 1498 3 view .LVU527
 1972              	.LBB100:
 1973              	.LBI47:
 726:Lib/Camera_Middleware/sensors/vd1943/vd1943.c **** {
 1974              		.loc 1 726 12 view .LVU528
 1975              	.LBB95:
 728:Lib/Camera_Middleware/sensors/vd1943/vd1943.c **** 
 1976              		.loc 1 728 3 view .LVU529
 730:Lib/Camera_Middleware/sensors/vd1943/vd1943.c ****   if (ret)
 1977              		.loc 1 730 3 view .LVU530
 730:Lib/Camera_Middleware/sensors/vd1943/vd1943.c ****   if (ret)
 1978              		.loc 1 730 9 is_stmt 0 view .LVU531
 1979 0114 FFF7FEFF 		bl	VD1943_WaitState
 1980              	.LVL156:
 731:Lib/Camera_Middleware/sensors/vd1943/vd1943.c ****     return ret;
 1981              		.loc 1 731 3 is_stmt 1 view .LVU532
 731:Lib/Camera_Middleware/sensors/vd1943/vd1943.c ****     return ret;
 1982              		.loc 1 731 6 is_stmt 0 view .LVU533
 1983 0118 0546     		mov	r5, r0
 1984              	.LVL157:
 731:Lib/Camera_Middleware/sensors/vd1943/vd1943.c ****     return ret;
 1985              		.loc 1 731 6 view .LVU534
 1986 011a 0028     		cmp	r0, #0
ARM GAS  C:\Users\DJESSOU\AppData\Local\Temp\cc3eovRL.s 			page 70


 1987 011c 9CD1     		bne	.L120
 734:Lib/Camera_Middleware/sensors/vd1943/vd1943.c ****   if (ret)
 1988              		.loc 1 734 3 is_stmt 1 view .LVU535
 1989              	.LVL158:
 1990              	.LBB49:
 1991              	.LBI49:
 324:Lib/Camera_Middleware/sensors/vd1943/vd1943.c **** {
 1992              		.loc 1 324 12 view .LVU536
 1993              	.LBB50:
 326:Lib/Camera_Middleware/sensors/vd1943/vd1943.c ****   uint16_t reg16;
 1994              		.loc 1 326 3 view .LVU537
 327:Lib/Camera_Middleware/sensors/vd1943/vd1943.c ****   int ret;
 1995              		.loc 1 327 3 view .LVU538
 328:Lib/Camera_Middleware/sensors/vd1943/vd1943.c **** 
 1996              		.loc 1 328 3 view .LVU539
 330:Lib/Camera_Middleware/sensors/vd1943/vd1943.c ****   VD1943_TraceError(ctx, ret);
 1997              		.loc 1 330 3 view .LVU540
 330:Lib/Camera_Middleware/sensors/vd1943/vd1943.c ****   VD1943_TraceError(ctx, ret);
 1998              		.loc 1 330 9 is_stmt 0 view .LVU541
 1999 011e 0146     		mov	r1, r0
 2000 0120 E368     		ldr	r3, [r4, #12]
 2001 0122 2046     		mov	r0, r4
 2002              	.LVL159:
 330:Lib/Camera_Middleware/sensors/vd1943/vd1943.c ****   VD1943_TraceError(ctx, ret);
 2003              		.loc 1 330 9 view .LVU542
 2004 0124 05AA     		add	r2, sp, #20
 2005 0126 9847     		blx	r3
 2006              	.LVL160:
 331:Lib/Camera_Middleware/sensors/vd1943/vd1943.c ****   VD1943_dbg(ctx, 0, "model_id = 0x%08x\n", reg32);
 2007              		.loc 1 331 3 is_stmt 1 view .LVU543
 331:Lib/Camera_Middleware/sensors/vd1943/vd1943.c ****   VD1943_dbg(ctx, 0, "model_id = 0x%08x\n", reg32);
 2008              		.loc 1 331 3 view .LVU544
 2009 0128 0546     		mov	r5, r0
 2010              	.LVL161:
 331:Lib/Camera_Middleware/sensors/vd1943/vd1943.c ****   VD1943_dbg(ctx, 0, "model_id = 0x%08x\n", reg32);
 2011              		.loc 1 331 3 is_stmt 0 view .LVU545
 2012 012a F0B1     		cbz	r0, .L140
 331:Lib/Camera_Middleware/sensors/vd1943/vd1943.c ****   VD1943_dbg(ctx, 0, "model_id = 0x%08x\n", reg32);
 2013              		.loc 1 331 3 is_stmt 1 discriminator 1 view .LVU546
 331:Lib/Camera_Middleware/sensors/vd1943/vd1943.c ****   VD1943_dbg(ctx, 0, "model_id = 0x%08x\n", reg32);
 2014              		.loc 1 331 3 discriminator 1 view .LVU547
 2015 012c 40F24B13 		movw	r3, #331
 2016 0130 0290     		str	r0, [sp, #8]
 2017              	.L216:
 339:Lib/Camera_Middleware/sensors/vd1943/vd1943.c ****   VD1943_dbg(ctx, 0, "rom revision = 0x%08x\n", reg16);
 2018              		.loc 1 339 3 is_stmt 0 discriminator 1 view .LVU548
 2019 0132 684A     		ldr	r2, .L222+64
 2020 0134 0193     		str	r3, [sp, #4]
 2021              	.LVL162:
 2022              	.L217:
 339:Lib/Camera_Middleware/sensors/vd1943/vd1943.c ****   VD1943_dbg(ctx, 0, "rom revision = 0x%08x\n", reg16);
 2023              		.loc 1 339 3 discriminator 1 view .LVU549
 2024 0136 2046     		mov	r0, r4
 2025 0138 0092     		str	r2, [sp]
 2026 013a 0021     		movs	r1, #0
 2027 013c 664A     		ldr	r2, .L222+68
 2028 013e FFF7FEFF 		bl	VD1943_log_impl
ARM GAS  C:\Users\DJESSOU\AppData\Local\Temp\cc3eovRL.s 			page 71


 2029              	.LVL163:
 339:Lib/Camera_Middleware/sensors/vd1943/vd1943.c ****   VD1943_dbg(ctx, 0, "rom revision = 0x%08x\n", reg16);
 2030              		.loc 1 339 3 is_stmt 1 discriminator 3 view .LVU550
 339:Lib/Camera_Middleware/sensors/vd1943/vd1943.c ****   VD1943_dbg(ctx, 0, "rom revision = 0x%08x\n", reg16);
 2031              		.loc 1 339 3 discriminator 3 view .LVU551
 339:Lib/Camera_Middleware/sensors/vd1943/vd1943.c ****   VD1943_dbg(ctx, 0, "rom revision = 0x%08x\n", reg16);
 2032              		.loc 1 339 3 discriminator 4 view .LVU552
 2033 0142 2046     		mov	r0, r4
 2034 0144 FFF7FEFF 		bl	display_error
 2035              	.LVL164:
 339:Lib/Camera_Middleware/sensors/vd1943/vd1943.c ****   VD1943_dbg(ctx, 0, "rom revision = 0x%08x\n", reg16);
 2036              		.loc 1 339 3 discriminator 6 view .LVU553
 339:Lib/Camera_Middleware/sensors/vd1943/vd1943.c ****   VD1943_dbg(ctx, 0, "rom revision = 0x%08x\n", reg16);
 2037              		.loc 1 339 3 discriminator 7 view .LVU554
 339:Lib/Camera_Middleware/sensors/vd1943/vd1943.c ****   VD1943_dbg(ctx, 0, "rom revision = 0x%08x\n", reg16);
 2038              		.loc 1 339 3 is_stmt 0 discriminator 7 view .LVU555
 2039              	.LBE50:
 2040              	.LBE49:
 735:Lib/Camera_Middleware/sensors/vd1943/vd1943.c ****     return ret;
 2041              		.loc 1 735 3 is_stmt 1 view .LVU556
 2042 0148 86E7     		b	.L120
 2043              	.LVL165:
 2044              	.L134:
 735:Lib/Camera_Middleware/sensors/vd1943/vd1943.c ****     return ret;
